
build/eexec:     file format elf64-x86-64


Disassembly of section .init:

0000000000001000 <_init>:
    1000:	f3 0f 1e fa          	endbr64
    1004:	48 83 ec 08          	sub    $0x8,%rsp
    1008:	48 8b 05 c1 cf 00 00 	mov    0xcfc1(%rip),%rax        # dfd0 <__gmon_start__>
    100f:	48 85 c0             	test   %rax,%rax
    1012:	74 02                	je     1016 <_init+0x16>
    1014:	ff d0                	call   *%rax
    1016:	48 83 c4 08          	add    $0x8,%rsp
    101a:	c3                   	ret

Disassembly of section .plt:

0000000000001020 <free@plt-0x10>:
    1020:	ff 35 ca cf 00 00    	push   0xcfca(%rip)        # dff0 <_GLOBAL_OFFSET_TABLE_+0x8>
    1026:	ff 25 cc cf 00 00    	jmp    *0xcfcc(%rip)        # dff8 <_GLOBAL_OFFSET_TABLE_+0x10>
    102c:	0f 1f 40 00          	nopl   0x0(%rax)

0000000000001030 <free@plt>:
    1030:	ff 25 ca cf 00 00    	jmp    *0xcfca(%rip)        # e000 <free@GLIBC_2.2.5>
    1036:	68 00 00 00 00       	push   $0x0
    103b:	e9 e0 ff ff ff       	jmp    1020 <_init+0x20>

0000000000001040 <strncmp@plt>:
    1040:	ff 25 c2 cf 00 00    	jmp    *0xcfc2(%rip)        # e008 <strncmp@GLIBC_2.2.5>
    1046:	68 01 00 00 00       	push   $0x1
    104b:	e9 d0 ff ff ff       	jmp    1020 <_init+0x20>

0000000000001050 <puts@plt>:
    1050:	ff 25 ba cf 00 00    	jmp    *0xcfba(%rip)        # e010 <puts@GLIBC_2.2.5>
    1056:	68 02 00 00 00       	push   $0x2
    105b:	e9 c0 ff ff ff       	jmp    1020 <_init+0x20>

0000000000001060 <fread@plt>:
    1060:	ff 25 b2 cf 00 00    	jmp    *0xcfb2(%rip)        # e018 <fread@GLIBC_2.2.5>
    1066:	68 03 00 00 00       	push   $0x3
    106b:	e9 b0 ff ff ff       	jmp    1020 <_init+0x20>

0000000000001070 <fclose@plt>:
    1070:	ff 25 aa cf 00 00    	jmp    *0xcfaa(%rip)        # e020 <fclose@GLIBC_2.2.5>
    1076:	68 04 00 00 00       	push   $0x4
    107b:	e9 a0 ff ff ff       	jmp    1020 <_init+0x20>

0000000000001080 <strlen@plt>:
    1080:	ff 25 a2 cf 00 00    	jmp    *0xcfa2(%rip)        # e028 <strlen@GLIBC_2.2.5>
    1086:	68 05 00 00 00       	push   $0x5
    108b:	e9 90 ff ff ff       	jmp    1020 <_init+0x20>

0000000000001090 <__stack_chk_fail@plt>:
    1090:	ff 25 9a cf 00 00    	jmp    *0xcf9a(%rip)        # e030 <__stack_chk_fail@GLIBC_2.4>
    1096:	68 06 00 00 00       	push   $0x6
    109b:	e9 80 ff ff ff       	jmp    1020 <_init+0x20>

00000000000010a0 <printf@plt>:
    10a0:	ff 25 92 cf 00 00    	jmp    *0xcf92(%rip)        # e038 <printf@GLIBC_2.2.5>
    10a6:	68 07 00 00 00       	push   $0x7
    10ab:	e9 70 ff ff ff       	jmp    1020 <_init+0x20>

00000000000010b0 <__assert_fail@plt>:
    10b0:	ff 25 8a cf 00 00    	jmp    *0xcf8a(%rip)        # e040 <__assert_fail@GLIBC_2.2.5>
    10b6:	68 08 00 00 00       	push   $0x8
    10bb:	e9 60 ff ff ff       	jmp    1020 <_init+0x20>

00000000000010c0 <fputs@plt>:
    10c0:	ff 25 82 cf 00 00    	jmp    *0xcf82(%rip)        # e048 <fputs@GLIBC_2.2.5>
    10c6:	68 09 00 00 00       	push   $0x9
    10cb:	e9 50 ff ff ff       	jmp    1020 <_init+0x20>

00000000000010d0 <strtof@plt>:
    10d0:	ff 25 7a cf 00 00    	jmp    *0xcf7a(%rip)        # e050 <strtof@GLIBC_2.2.5>
    10d6:	68 0a 00 00 00       	push   $0xa
    10db:	e9 40 ff ff ff       	jmp    1020 <_init+0x20>

00000000000010e0 <memset@plt>:
    10e0:	ff 25 72 cf 00 00    	jmp    *0xcf72(%rip)        # e058 <memset@GLIBC_2.2.5>
    10e6:	68 0b 00 00 00       	push   $0xb
    10eb:	e9 30 ff ff ff       	jmp    1020 <_init+0x20>

00000000000010f0 <fputc@plt>:
    10f0:	ff 25 6a cf 00 00    	jmp    *0xcf6a(%rip)        # e060 <fputc@GLIBC_2.2.5>
    10f6:	68 0c 00 00 00       	push   $0xc
    10fb:	e9 20 ff ff ff       	jmp    1020 <_init+0x20>

0000000000001100 <calloc@plt>:
    1100:	ff 25 62 cf 00 00    	jmp    *0xcf62(%rip)        # e068 <calloc@GLIBC_2.2.5>
    1106:	68 0d 00 00 00       	push   $0xd
    110b:	e9 10 ff ff ff       	jmp    1020 <_init+0x20>

0000000000001110 <fprintf@plt>:
    1110:	ff 25 5a cf 00 00    	jmp    *0xcf5a(%rip)        # e070 <fprintf@GLIBC_2.2.5>
    1116:	68 0e 00 00 00       	push   $0xe
    111b:	e9 00 ff ff ff       	jmp    1020 <_init+0x20>

0000000000001120 <memcpy@plt>:
    1120:	ff 25 52 cf 00 00    	jmp    *0xcf52(%rip)        # e078 <memcpy@GLIBC_2.14>
    1126:	68 0f 00 00 00       	push   $0xf
    112b:	e9 f0 fe ff ff       	jmp    1020 <_init+0x20>

0000000000001130 <__isoc23_strtol@plt>:
    1130:	ff 25 4a cf 00 00    	jmp    *0xcf4a(%rip)        # e080 <__isoc23_strtol@GLIBC_2.38>
    1136:	68 10 00 00 00       	push   $0x10
    113b:	e9 e0 fe ff ff       	jmp    1020 <_init+0x20>

0000000000001140 <malloc@plt>:
    1140:	ff 25 42 cf 00 00    	jmp    *0xcf42(%rip)        # e088 <malloc@GLIBC_2.2.5>
    1146:	68 11 00 00 00       	push   $0x11
    114b:	e9 d0 fe ff ff       	jmp    1020 <_init+0x20>

0000000000001150 <strlcpy@plt>:
    1150:	ff 25 3a cf 00 00    	jmp    *0xcf3a(%rip)        # e090 <strlcpy@GLIBC_2.38>
    1156:	68 12 00 00 00       	push   $0x12
    115b:	e9 c0 fe ff ff       	jmp    1020 <_init+0x20>

0000000000001160 <realloc@plt>:
    1160:	ff 25 32 cf 00 00    	jmp    *0xcf32(%rip)        # e098 <realloc@GLIBC_2.2.5>
    1166:	68 13 00 00 00       	push   $0x13
    116b:	e9 b0 fe ff ff       	jmp    1020 <_init+0x20>

0000000000001170 <fopen@plt>:
    1170:	ff 25 2a cf 00 00    	jmp    *0xcf2a(%rip)        # e0a0 <fopen@GLIBC_2.2.5>
    1176:	68 14 00 00 00       	push   $0x14
    117b:	e9 a0 fe ff ff       	jmp    1020 <_init+0x20>

0000000000001180 <perror@plt>:
    1180:	ff 25 22 cf 00 00    	jmp    *0xcf22(%rip)        # e0a8 <perror@GLIBC_2.2.5>
    1186:	68 15 00 00 00       	push   $0x15
    118b:	e9 90 fe ff ff       	jmp    1020 <_init+0x20>

0000000000001190 <vfprintf@plt>:
    1190:	ff 25 1a cf 00 00    	jmp    *0xcf1a(%rip)        # e0b0 <vfprintf@GLIBC_2.2.5>
    1196:	68 16 00 00 00       	push   $0x16
    119b:	e9 80 fe ff ff       	jmp    1020 <_init+0x20>

00000000000011a0 <exit@plt>:
    11a0:	ff 25 12 cf 00 00    	jmp    *0xcf12(%rip)        # e0b8 <exit@GLIBC_2.2.5>
    11a6:	68 17 00 00 00       	push   $0x17
    11ab:	e9 70 fe ff ff       	jmp    1020 <_init+0x20>

00000000000011b0 <fwrite@plt>:
    11b0:	ff 25 0a cf 00 00    	jmp    *0xcf0a(%rip)        # e0c0 <fwrite@GLIBC_2.2.5>
    11b6:	68 18 00 00 00       	push   $0x18
    11bb:	e9 60 fe ff ff       	jmp    1020 <_init+0x20>

00000000000011c0 <strdup@plt>:
    11c0:	ff 25 02 cf 00 00    	jmp    *0xcf02(%rip)        # e0c8 <strdup@GLIBC_2.2.5>
    11c6:	68 19 00 00 00       	push   $0x19
    11cb:	e9 50 fe ff ff       	jmp    1020 <_init+0x20>

00000000000011d0 <__ctype_b_loc@plt>:
    11d0:	ff 25 fa ce 00 00    	jmp    *0xcefa(%rip)        # e0d0 <__ctype_b_loc@GLIBC_2.3>
    11d6:	68 1a 00 00 00       	push   $0x1a
    11db:	e9 40 fe ff ff       	jmp    1020 <_init+0x20>

Disassembly of section .text:

00000000000011e0 <_start>:
    11e0:	f3 0f 1e fa          	endbr64
    11e4:	31 ed                	xor    %ebp,%ebp
    11e6:	49 89 d1             	mov    %rdx,%r9
    11e9:	5e                   	pop    %rsi
    11ea:	48 89 e2             	mov    %rsp,%rdx
    11ed:	48 83 e4 f0          	and    $0xfffffffffffffff0,%rsp
    11f1:	50                   	push   %rax
    11f2:	54                   	push   %rsp
    11f3:	45 31 c0             	xor    %r8d,%r8d
    11f6:	31 c9                	xor    %ecx,%ecx
    11f8:	48 8d 3d 26 36 00 00 	lea    0x3626(%rip),%rdi        # 4825 <main>
    11ff:	ff 15 bb cd 00 00    	call   *0xcdbb(%rip)        # dfc0 <__libc_start_main@GLIBC_2.34>
    1205:	f4                   	hlt
    1206:	66 2e 0f 1f 84 00 00 	cs nopw 0x0(%rax,%rax,1)
    120d:	00 00 00 

0000000000001210 <deregister_tm_clones>:
    1210:	48 8d 3d d1 ce 00 00 	lea    0xced1(%rip),%rdi        # e0e8 <__TMC_END__>
    1217:	48 8d 05 ca ce 00 00 	lea    0xceca(%rip),%rax        # e0e8 <__TMC_END__>
    121e:	48 39 f8             	cmp    %rdi,%rax
    1221:	74 15                	je     1238 <deregister_tm_clones+0x28>
    1223:	48 8b 05 9e cd 00 00 	mov    0xcd9e(%rip),%rax        # dfc8 <_ITM_deregisterTMCloneTable>
    122a:	48 85 c0             	test   %rax,%rax
    122d:	74 09                	je     1238 <deregister_tm_clones+0x28>
    122f:	ff e0                	jmp    *%rax
    1231:	0f 1f 80 00 00 00 00 	nopl   0x0(%rax)
    1238:	c3                   	ret
    1239:	0f 1f 80 00 00 00 00 	nopl   0x0(%rax)

0000000000001240 <register_tm_clones>:
    1240:	48 8d 3d a1 ce 00 00 	lea    0xcea1(%rip),%rdi        # e0e8 <__TMC_END__>
    1247:	48 8d 35 9a ce 00 00 	lea    0xce9a(%rip),%rsi        # e0e8 <__TMC_END__>
    124e:	48 29 fe             	sub    %rdi,%rsi
    1251:	48 89 f0             	mov    %rsi,%rax
    1254:	48 c1 ee 3f          	shr    $0x3f,%rsi
    1258:	48 c1 f8 03          	sar    $0x3,%rax
    125c:	48 01 c6             	add    %rax,%rsi
    125f:	48 d1 fe             	sar    $1,%rsi
    1262:	74 14                	je     1278 <register_tm_clones+0x38>
    1264:	48 8b 05 6d cd 00 00 	mov    0xcd6d(%rip),%rax        # dfd8 <_ITM_registerTMCloneTable>
    126b:	48 85 c0             	test   %rax,%rax
    126e:	74 08                	je     1278 <register_tm_clones+0x38>
    1270:	ff e0                	jmp    *%rax
    1272:	66 0f 1f 44 00 00    	nopw   0x0(%rax,%rax,1)
    1278:	c3                   	ret
    1279:	0f 1f 80 00 00 00 00 	nopl   0x0(%rax)

0000000000001280 <__do_global_dtors_aux>:
    1280:	f3 0f 1e fa          	endbr64
    1284:	80 3d 9d ce 00 00 00 	cmpb   $0x0,0xce9d(%rip)        # e128 <completed.0>
    128b:	75 33                	jne    12c0 <__do_global_dtors_aux+0x40>
    128d:	55                   	push   %rbp
    128e:	48 83 3d 4a cd 00 00 	cmpq   $0x0,0xcd4a(%rip)        # dfe0 <__cxa_finalize@GLIBC_2.2.5>
    1295:	00 
    1296:	48 89 e5             	mov    %rsp,%rbp
    1299:	74 0d                	je     12a8 <__do_global_dtors_aux+0x28>
    129b:	48 8b 3d 3e ce 00 00 	mov    0xce3e(%rip),%rdi        # e0e0 <__dso_handle>
    12a2:	ff 15 38 cd 00 00    	call   *0xcd38(%rip)        # dfe0 <__cxa_finalize@GLIBC_2.2.5>
    12a8:	e8 63 ff ff ff       	call   1210 <deregister_tm_clones>
    12ad:	c6 05 74 ce 00 00 01 	movb   $0x1,0xce74(%rip)        # e128 <completed.0>
    12b4:	5d                   	pop    %rbp
    12b5:	c3                   	ret
    12b6:	66 2e 0f 1f 84 00 00 	cs nopw 0x0(%rax,%rax,1)
    12bd:	00 00 00 
    12c0:	c3                   	ret
    12c1:	0f 1f 40 00          	nopl   0x0(%rax)
    12c5:	66 66 2e 0f 1f 84 00 	data16 cs nopw 0x0(%rax,%rax,1)
    12cc:	00 00 00 00 

00000000000012d0 <frame_dummy>:
    12d0:	f3 0f 1e fa          	endbr64
    12d4:	e9 67 ff ff ff       	jmp    1240 <register_tm_clones>

00000000000012d9 <e_refc_init>:
    12d9:	55                   	push   %rbp
    12da:	48 89 e5             	mov    %rsp,%rbp
    12dd:	48 83 ec 10          	sub    $0x10,%rsp
    12e1:	bf 04 00 00 00       	mov    $0x4,%edi
    12e6:	e8 55 fe ff ff       	call   1140 <malloc@plt>
    12eb:	48 89 45 f8          	mov    %rax,-0x8(%rbp)
    12ef:	48 8b 45 f8          	mov    -0x8(%rbp),%rax
    12f3:	c7 00 01 00 00 00    	movl   $0x1,(%rax)
    12f9:	48 8b 45 f8          	mov    -0x8(%rbp),%rax
    12fd:	c9                   	leave
    12fe:	c3                   	ret

00000000000012ff <e_refc_acquire>:
    12ff:	55                   	push   %rbp
    1300:	48 89 e5             	mov    %rsp,%rbp
    1303:	48 89 7d f8          	mov    %rdi,-0x8(%rbp)
    1307:	48 8b 45 f8          	mov    -0x8(%rbp),%rax
    130b:	8b 00                	mov    (%rax),%eax
    130d:	8d 48 01             	lea    0x1(%rax),%ecx
    1310:	48 8b 55 f8          	mov    -0x8(%rbp),%rdx
    1314:	89 0a                	mov    %ecx,(%rdx)
    1316:	5d                   	pop    %rbp
    1317:	c3                   	ret

0000000000001318 <e_refc_release>:
    1318:	55                   	push   %rbp
    1319:	48 89 e5             	mov    %rsp,%rbp
    131c:	48 89 7d f8          	mov    %rdi,-0x8(%rbp)
    1320:	48 8b 45 f8          	mov    -0x8(%rbp),%rax
    1324:	8b 00                	mov    (%rax),%eax
    1326:	85 c0                	test   %eax,%eax
    1328:	7e 0f                	jle    1339 <e_refc_release+0x21>
    132a:	48 8b 45 f8          	mov    -0x8(%rbp),%rax
    132e:	8b 00                	mov    (%rax),%eax
    1330:	8d 50 ff             	lea    -0x1(%rax),%edx
    1333:	48 8b 45 f8          	mov    -0x8(%rbp),%rax
    1337:	89 10                	mov    %edx,(%rax)
    1339:	90                   	nop
    133a:	5d                   	pop    %rbp
    133b:	c3                   	ret

000000000000133c <e_var_acquire>:
    133c:	55                   	push   %rbp
    133d:	48 89 e5             	mov    %rsp,%rbp
    1340:	48 83 ec 08          	sub    $0x8,%rsp
    1344:	48 89 7d f8          	mov    %rdi,-0x8(%rbp)
    1348:	48 8b 45 f8          	mov    -0x8(%rbp),%rax
    134c:	48 8b 40 08          	mov    0x8(%rax),%rax
    1350:	48 89 c7             	mov    %rax,%rdi
    1353:	e8 a7 ff ff ff       	call   12ff <e_refc_acquire>
    1358:	c9                   	leave
    1359:	c3                   	ret

000000000000135a <e_var_release>:
    135a:	55                   	push   %rbp
    135b:	48 89 e5             	mov    %rsp,%rbp
    135e:	48 83 ec 10          	sub    $0x10,%rsp
    1362:	48 89 7d f8          	mov    %rdi,-0x8(%rbp)
    1366:	48 8b 45 f8          	mov    -0x8(%rbp),%rax
    136a:	48 8b 40 08          	mov    0x8(%rax),%rax
    136e:	48 89 c7             	mov    %rax,%rdi
    1371:	e8 a2 ff ff ff       	call   1318 <e_refc_release>
    1376:	48 8b 45 f8          	mov    -0x8(%rbp),%rax
    137a:	48 8b 40 08          	mov    0x8(%rax),%rax
    137e:	8b 00                	mov    (%rax),%eax
    1380:	85 c0                	test   %eax,%eax
    1382:	7f 0c                	jg     1390 <e_var_release+0x36>
    1384:	48 8b 45 f8          	mov    -0x8(%rbp),%rax
    1388:	48 89 c7             	mov    %rax,%rdi
    138b:	e8 24 8b 00 00       	call   9eb4 <e_var_free>
    1390:	90                   	nop
    1391:	c9                   	leave
    1392:	c3                   	ret

0000000000001393 <e_hash_fnv>:
    1393:	55                   	push   %rbp
    1394:	48 89 e5             	mov    %rsp,%rbp
    1397:	48 89 7d d8          	mov    %rdi,-0x28(%rbp)
    139b:	48 89 75 d0          	mov    %rsi,-0x30(%rbp)
    139f:	48 8b 45 d8          	mov    -0x28(%rbp),%rax
    13a3:	48 89 45 f8          	mov    %rax,-0x8(%rbp)
    13a7:	c7 45 ec c5 9d 1c 81 	movl   $0x811c9dc5,-0x14(%rbp)
    13ae:	48 c7 45 f0 00 00 00 	movq   $0x0,-0x10(%rbp)
    13b5:	00 
    13b6:	eb 25                	jmp    13dd <e_hash_fnv+0x4a>
    13b8:	48 8b 55 f8          	mov    -0x8(%rbp),%rdx
    13bc:	48 8b 45 f0          	mov    -0x10(%rbp),%rax
    13c0:	48 01 d0             	add    %rdx,%rax
    13c3:	0f b6 00             	movzbl (%rax),%eax
    13c6:	0f b6 c0             	movzbl %al,%eax
    13c9:	31 45 ec             	xor    %eax,-0x14(%rbp)
    13cc:	8b 45 ec             	mov    -0x14(%rbp),%eax
    13cf:	69 c0 93 01 00 01    	imul   $0x1000193,%eax,%eax
    13d5:	89 45 ec             	mov    %eax,-0x14(%rbp)
    13d8:	48 83 45 f0 01       	addq   $0x1,-0x10(%rbp)
    13dd:	48 8b 45 f0          	mov    -0x10(%rbp),%rax
    13e1:	48 3b 45 d0          	cmp    -0x30(%rbp),%rax
    13e5:	72 d1                	jb     13b8 <e_hash_fnv+0x25>
    13e7:	8b 45 ec             	mov    -0x14(%rbp),%eax
    13ea:	5d                   	pop    %rbp
    13eb:	c3                   	ret

00000000000013ec <e_read_u32>:
    13ec:	55                   	push   %rbp
    13ed:	48 89 e5             	mov    %rsp,%rbp
    13f0:	48 89 7d e8          	mov    %rdi,-0x18(%rbp)
    13f4:	48 8b 45 e8          	mov    -0x18(%rbp),%rax
    13f8:	48 8b 00             	mov    (%rax),%rax
    13fb:	8b 00                	mov    (%rax),%eax
    13fd:	89 45 fc             	mov    %eax,-0x4(%rbp)
    1400:	48 8b 45 e8          	mov    -0x18(%rbp),%rax
    1404:	48 8b 00             	mov    (%rax),%rax
    1407:	48 8d 50 04          	lea    0x4(%rax),%rdx
    140b:	48 8b 45 e8          	mov    -0x18(%rbp),%rax
    140f:	48 89 10             	mov    %rdx,(%rax)
    1412:	8b 45 fc             	mov    -0x4(%rbp),%eax
    1415:	5d                   	pop    %rbp
    1416:	c3                   	ret

0000000000001417 <e_read_u16>:
    1417:	55                   	push   %rbp
    1418:	48 89 e5             	mov    %rsp,%rbp
    141b:	48 89 7d e8          	mov    %rdi,-0x18(%rbp)
    141f:	48 8b 45 e8          	mov    -0x18(%rbp),%rax
    1423:	48 8b 00             	mov    (%rax),%rax
    1426:	0f b7 00             	movzwl (%rax),%eax
    1429:	66 89 45 fe          	mov    %ax,-0x2(%rbp)
    142d:	48 8b 45 e8          	mov    -0x18(%rbp),%rax
    1431:	48 8b 00             	mov    (%rax),%rax
    1434:	48 8d 50 02          	lea    0x2(%rax),%rdx
    1438:	48 8b 45 e8          	mov    -0x18(%rbp),%rax
    143c:	48 89 10             	mov    %rdx,(%rax)
    143f:	0f b7 45 fe          	movzwl -0x2(%rbp),%eax
    1443:	5d                   	pop    %rbp
    1444:	c3                   	ret

0000000000001445 <e_read_u8>:
    1445:	55                   	push   %rbp
    1446:	48 89 e5             	mov    %rsp,%rbp
    1449:	48 89 7d e8          	mov    %rdi,-0x18(%rbp)
    144d:	48 8b 45 e8          	mov    -0x18(%rbp),%rax
    1451:	48 8b 00             	mov    (%rax),%rax
    1454:	0f b6 00             	movzbl (%rax),%eax
    1457:	88 45 ff             	mov    %al,-0x1(%rbp)
    145a:	48 8b 45 e8          	mov    -0x18(%rbp),%rax
    145e:	48 8b 00             	mov    (%rax),%rax
    1461:	48 8d 50 01          	lea    0x1(%rax),%rdx
    1465:	48 8b 45 e8          	mov    -0x18(%rbp),%rax
    1469:	48 89 10             	mov    %rdx,(%rax)
    146c:	0f b6 45 ff          	movzbl -0x1(%rbp),%eax
    1470:	5d                   	pop    %rbp
    1471:	c3                   	ret

0000000000001472 <to_float>:
    1472:	55                   	push   %rbp
    1473:	48 89 e5             	mov    %rsp,%rbp
    1476:	8b 45 10             	mov    0x10(%rbp),%eax
    1479:	83 f8 04             	cmp    $0x4,%eax
    147c:	74 1b                	je     1499 <to_float+0x27>
    147e:	83 f8 04             	cmp    $0x4,%eax
    1481:	77 4c                	ja     14cf <to_float+0x5d>
    1483:	83 f8 03             	cmp    $0x3,%eax
    1486:	74 25                	je     14ad <to_float+0x3b>
    1488:	83 f8 03             	cmp    $0x3,%eax
    148b:	77 42                	ja     14cf <to_float+0x5d>
    148d:	83 f8 01             	cmp    $0x1,%eax
    1490:	74 0e                	je     14a0 <to_float+0x2e>
    1492:	83 f8 02             	cmp    $0x2,%eax
    1495:	74 27                	je     14be <to_float+0x4c>
    1497:	eb 36                	jmp    14cf <to_float+0x5d>
    1499:	f2 0f 10 45 20       	movsd  0x20(%rbp),%xmm0
    149e:	eb 33                	jmp    14d3 <to_float+0x61>
    14a0:	8b 45 20             	mov    0x20(%rbp),%eax
    14a3:	66 0f ef c0          	pxor   %xmm0,%xmm0
    14a7:	f2 0f 2a c0          	cvtsi2sd %eax,%xmm0
    14ab:	eb 26                	jmp    14d3 <to_float+0x61>
    14ad:	0f b6 45 20          	movzbl 0x20(%rbp),%eax
    14b1:	0f be c0             	movsbl %al,%eax
    14b4:	66 0f ef c0          	pxor   %xmm0,%xmm0
    14b8:	f2 0f 2a c0          	cvtsi2sd %eax,%xmm0
    14bc:	eb 15                	jmp    14d3 <to_float+0x61>
    14be:	0f b6 45 20          	movzbl 0x20(%rbp),%eax
    14c2:	0f b6 c0             	movzbl %al,%eax
    14c5:	66 0f ef c0          	pxor   %xmm0,%xmm0
    14c9:	f2 0f 2a c0          	cvtsi2sd %eax,%xmm0
    14cd:	eb 04                	jmp    14d3 <to_float+0x61>
    14cf:	66 0f ef c0          	pxor   %xmm0,%xmm0
    14d3:	5d                   	pop    %rbp
    14d4:	c3                   	ret

00000000000014d5 <to_int>:
    14d5:	55                   	push   %rbp
    14d6:	48 89 e5             	mov    %rsp,%rbp
    14d9:	8b 45 10             	mov    0x10(%rbp),%eax
    14dc:	83 f8 04             	cmp    $0x4,%eax
    14df:	74 20                	je     1501 <to_int+0x2c>
    14e1:	83 f8 04             	cmp    $0x4,%eax
    14e4:	77 38                	ja     151e <to_int+0x49>
    14e6:	83 f8 03             	cmp    $0x3,%eax
    14e9:	74 21                	je     150c <to_int+0x37>
    14eb:	83 f8 03             	cmp    $0x3,%eax
    14ee:	77 2e                	ja     151e <to_int+0x49>
    14f0:	83 f8 01             	cmp    $0x1,%eax
    14f3:	74 07                	je     14fc <to_int+0x27>
    14f5:	83 f8 02             	cmp    $0x2,%eax
    14f8:	74 1b                	je     1515 <to_int+0x40>
    14fa:	eb 22                	jmp    151e <to_int+0x49>
    14fc:	8b 45 20             	mov    0x20(%rbp),%eax
    14ff:	eb 22                	jmp    1523 <to_int+0x4e>
    1501:	f2 0f 10 45 20       	movsd  0x20(%rbp),%xmm0
    1506:	f2 0f 2c c0          	cvttsd2si %xmm0,%eax
    150a:	eb 17                	jmp    1523 <to_int+0x4e>
    150c:	0f b6 45 20          	movzbl 0x20(%rbp),%eax
    1510:	0f be c0             	movsbl %al,%eax
    1513:	eb 0e                	jmp    1523 <to_int+0x4e>
    1515:	0f b6 45 20          	movzbl 0x20(%rbp),%eax
    1519:	0f b6 c0             	movzbl %al,%eax
    151c:	eb 05                	jmp    1523 <to_int+0x4e>
    151e:	b8 00 00 00 00       	mov    $0x0,%eax
    1523:	5d                   	pop    %rbp
    1524:	c3                   	ret

0000000000001525 <is_float>:
    1525:	55                   	push   %rbp
    1526:	48 89 e5             	mov    %rsp,%rbp
    1529:	8b 45 10             	mov    0x10(%rbp),%eax
    152c:	83 f8 04             	cmp    $0x4,%eax
    152f:	0f 94 c0             	sete   %al
    1532:	5d                   	pop    %rbp
    1533:	c3                   	ret

0000000000001534 <operate>:
    1534:	55                   	push   %rbp
    1535:	48 89 e5             	mov    %rsp,%rbp
    1538:	41 54                	push   %r12
    153a:	53                   	push   %rbx
    153b:	48 83 ec 40          	sub    $0x40,%rsp
    153f:	48 89 7d c8          	mov    %rdi,-0x38(%rbp)
    1543:	89 f0                	mov    %esi,%eax
    1545:	88 45 c4             	mov    %al,-0x3c(%rbp)
    1548:	80 7d c4 09          	cmpb   $0x9,-0x3c(%rbp)
    154c:	75 56                	jne    15a4 <operate+0x70>
    154e:	e8 86 fd ff ff       	call   12d9 <e_refc_init>
    1553:	48 89 c3             	mov    %rax,%rbx
    1556:	48 83 ec 08          	sub    $0x8,%rsp
    155a:	48 83 ec 18          	sub    $0x18,%rsp
    155e:	48 89 e1             	mov    %rsp,%rcx
    1561:	48 8b 45 28          	mov    0x28(%rbp),%rax
    1565:	48 8b 55 30          	mov    0x30(%rbp),%rdx
    1569:	48 89 01             	mov    %rax,(%rcx)
    156c:	48 89 51 08          	mov    %rdx,0x8(%rcx)
    1570:	48 8b 45 38          	mov    0x38(%rbp),%rax
    1574:	48 89 41 10          	mov    %rax,0x10(%rcx)
    1578:	e8 58 ff ff ff       	call   14d5 <to_int>
    157d:	48 83 c4 20          	add    $0x20,%rsp
    1581:	85 c0                	test   %eax,%eax
    1583:	0f 94 c2             	sete   %dl
    1586:	48 8b 45 c8          	mov    -0x38(%rbp),%rax
    158a:	c7 00 02 00 00 00    	movl   $0x2,(%rax)
    1590:	48 8b 45 c8          	mov    -0x38(%rbp),%rax
    1594:	48 89 58 08          	mov    %rbx,0x8(%rax)
    1598:	48 8b 45 c8          	mov    -0x38(%rbp),%rax
    159c:	88 50 10             	mov    %dl,0x10(%rax)
    159f:	e9 dd 15 00 00       	jmp    2b81 <operate+0x164d>
    15a4:	0f b6 45 c4          	movzbl -0x3c(%rbp),%eax
    15a8:	83 f8 13             	cmp    $0x13,%eax
    15ab:	0f 84 e2 0e 00 00    	je     2493 <operate+0xf5f>
    15b1:	83 f8 13             	cmp    $0x13,%eax
    15b4:	0f 8f b7 15 00 00    	jg     2b71 <operate+0x163d>
    15ba:	83 f8 12             	cmp    $0x12,%eax
    15bd:	0f 84 5c 0d 00 00    	je     231f <operate+0xdeb>
    15c3:	83 f8 12             	cmp    $0x12,%eax
    15c6:	0f 8f a5 15 00 00    	jg     2b71 <operate+0x163d>
    15cc:	83 f8 11             	cmp    $0x11,%eax
    15cf:	0f 84 d0 0b 00 00    	je     21a5 <operate+0xc71>
    15d5:	83 f8 11             	cmp    $0x11,%eax
    15d8:	0f 8f 93 15 00 00    	jg     2b71 <operate+0x163d>
    15de:	83 f8 10             	cmp    $0x10,%eax
    15e1:	0f 84 44 0a 00 00    	je     202b <operate+0xaf7>
    15e7:	83 f8 10             	cmp    $0x10,%eax
    15ea:	0f 8f 81 15 00 00    	jg     2b71 <operate+0x163d>
    15f0:	83 f8 0f             	cmp    $0xf,%eax
    15f3:	0f 84 ad 08 00 00    	je     1ea6 <operate+0x972>
    15f9:	83 f8 0f             	cmp    $0xf,%eax
    15fc:	0f 8f 6f 15 00 00    	jg     2b71 <operate+0x163d>
    1602:	83 f8 0e             	cmp    $0xe,%eax
    1605:	0f 84 16 07 00 00    	je     1d21 <operate+0x7ed>
    160b:	83 f8 0e             	cmp    $0xe,%eax
    160e:	0f 8f 5d 15 00 00    	jg     2b71 <operate+0x163d>
    1614:	83 f8 0d             	cmp    $0xd,%eax
    1617:	0f 84 76 13 00 00    	je     2993 <operate+0x145f>
    161d:	83 f8 0d             	cmp    $0xd,%eax
    1620:	0f 8f 4b 15 00 00    	jg     2b71 <operate+0x163d>
    1626:	83 f8 0c             	cmp    $0xc,%eax
    1629:	0f 84 c1 14 00 00    	je     2af0 <operate+0x15bc>
    162f:	83 f8 0c             	cmp    $0xc,%eax
    1632:	0f 8f 39 15 00 00    	jg     2b71 <operate+0x163d>
    1638:	83 f8 0b             	cmp    $0xb,%eax
    163b:	0f 84 2b 14 00 00    	je     2a6c <operate+0x1538>
    1641:	83 f8 0b             	cmp    $0xb,%eax
    1644:	0f 8f 27 15 00 00    	jg     2b71 <operate+0x163d>
    164a:	83 f8 0a             	cmp    $0xa,%eax
    164d:	0f 84 95 13 00 00    	je     29e8 <operate+0x14b4>
    1653:	83 f8 0a             	cmp    $0xa,%eax
    1656:	0f 8f 15 15 00 00    	jg     2b71 <operate+0x163d>
    165c:	83 f8 08             	cmp    $0x8,%eax
    165f:	0f 84 68 11 00 00    	je     27cd <operate+0x1299>
    1665:	83 f8 08             	cmp    $0x8,%eax
    1668:	0f 8f 03 15 00 00    	jg     2b71 <operate+0x163d>
    166e:	83 f8 07             	cmp    $0x7,%eax
    1671:	0f 84 90 0f 00 00    	je     2607 <operate+0x10d3>
    1677:	83 f8 07             	cmp    $0x7,%eax
    167a:	0f 8f f1 14 00 00    	jg     2b71 <operate+0x163d>
    1680:	83 f8 05             	cmp    $0x5,%eax
    1683:	0f 84 0d 06 00 00    	je     1c96 <operate+0x762>
    1689:	83 f8 05             	cmp    $0x5,%eax
    168c:	0f 8f df 14 00 00    	jg     2b71 <operate+0x163d>
    1692:	83 f8 04             	cmp    $0x4,%eax
    1695:	0f 84 80 04 00 00    	je     1b1b <operate+0x5e7>
    169b:	83 f8 04             	cmp    $0x4,%eax
    169e:	0f 8f cd 14 00 00    	jg     2b71 <operate+0x163d>
    16a4:	83 f8 03             	cmp    $0x3,%eax
    16a7:	0f 84 ff 02 00 00    	je     19ac <operate+0x478>
    16ad:	83 f8 03             	cmp    $0x3,%eax
    16b0:	0f 8f bb 14 00 00    	jg     2b71 <operate+0x163d>
    16b6:	83 f8 01             	cmp    $0x1,%eax
    16b9:	74 0e                	je     16c9 <operate+0x195>
    16bb:	83 f8 02             	cmp    $0x2,%eax
    16be:	0f 84 72 01 00 00    	je     1836 <operate+0x302>
    16c4:	e9 a8 14 00 00       	jmp    2b71 <operate+0x163d>
    16c9:	48 83 ec 08          	sub    $0x8,%rsp
    16cd:	48 83 ec 18          	sub    $0x18,%rsp
    16d1:	48 89 e1             	mov    %rsp,%rcx
    16d4:	48 8b 45 10          	mov    0x10(%rbp),%rax
    16d8:	48 8b 55 18          	mov    0x18(%rbp),%rdx
    16dc:	48 89 01             	mov    %rax,(%rcx)
    16df:	48 89 51 08          	mov    %rdx,0x8(%rcx)
    16e3:	48 8b 45 20          	mov    0x20(%rbp),%rax
    16e7:	48 89 41 10          	mov    %rax,0x10(%rcx)
    16eb:	e8 35 fe ff ff       	call   1525 <is_float>
    16f0:	48 83 c4 20          	add    $0x20,%rsp
    16f4:	84 c0                	test   %al,%al
    16f6:	75 33                	jne    172b <operate+0x1f7>
    16f8:	48 83 ec 08          	sub    $0x8,%rsp
    16fc:	48 83 ec 18          	sub    $0x18,%rsp
    1700:	48 89 e1             	mov    %rsp,%rcx
    1703:	48 8b 45 28          	mov    0x28(%rbp),%rax
    1707:	48 8b 55 30          	mov    0x30(%rbp),%rdx
    170b:	48 89 01             	mov    %rax,(%rcx)
    170e:	48 89 51 08          	mov    %rdx,0x8(%rcx)
    1712:	48 8b 45 38          	mov    0x38(%rbp),%rax
    1716:	48 89 41 10          	mov    %rax,0x10(%rcx)
    171a:	e8 06 fe ff ff       	call   1525 <is_float>
    171f:	48 83 c4 20          	add    $0x20,%rsp
    1723:	84 c0                	test   %al,%al
    1725:	0f 84 88 00 00 00    	je     17b3 <operate+0x27f>
    172b:	e8 a9 fb ff ff       	call   12d9 <e_refc_init>
    1730:	48 89 c3             	mov    %rax,%rbx
    1733:	48 83 ec 08          	sub    $0x8,%rsp
    1737:	48 83 ec 18          	sub    $0x18,%rsp
    173b:	48 89 e1             	mov    %rsp,%rcx
    173e:	48 8b 45 10          	mov    0x10(%rbp),%rax
    1742:	48 8b 55 18          	mov    0x18(%rbp),%rdx
    1746:	48 89 01             	mov    %rax,(%rcx)
    1749:	48 89 51 08          	mov    %rdx,0x8(%rcx)
    174d:	48 8b 45 20          	mov    0x20(%rbp),%rax
    1751:	48 89 41 10          	mov    %rax,0x10(%rcx)
    1755:	e8 18 fd ff ff       	call   1472 <to_float>
    175a:	48 83 c4 20          	add    $0x20,%rsp
    175e:	f2 0f 11 45 b8       	movsd  %xmm0,-0x48(%rbp)
    1763:	48 83 ec 08          	sub    $0x8,%rsp
    1767:	48 83 ec 18          	sub    $0x18,%rsp
    176b:	48 89 e1             	mov    %rsp,%rcx
    176e:	48 8b 45 28          	mov    0x28(%rbp),%rax
    1772:	48 8b 55 30          	mov    0x30(%rbp),%rdx
    1776:	48 89 01             	mov    %rax,(%rcx)
    1779:	48 89 51 08          	mov    %rdx,0x8(%rcx)
    177d:	48 8b 45 38          	mov    0x38(%rbp),%rax
    1781:	48 89 41 10          	mov    %rax,0x10(%rcx)
    1785:	e8 e8 fc ff ff       	call   1472 <to_float>
    178a:	48 83 c4 20          	add    $0x20,%rsp
    178e:	f2 0f 58 45 b8       	addsd  -0x48(%rbp),%xmm0
    1793:	48 8b 45 c8          	mov    -0x38(%rbp),%rax
    1797:	c7 00 04 00 00 00    	movl   $0x4,(%rax)
    179d:	48 8b 45 c8          	mov    -0x38(%rbp),%rax
    17a1:	48 89 58 08          	mov    %rbx,0x8(%rax)
    17a5:	48 8b 45 c8          	mov    -0x38(%rbp),%rax
    17a9:	f2 0f 11 40 10       	movsd  %xmm0,0x10(%rax)
    17ae:	e9 ce 13 00 00       	jmp    2b81 <operate+0x164d>
    17b3:	e8 21 fb ff ff       	call   12d9 <e_refc_init>
    17b8:	48 89 c3             	mov    %rax,%rbx
    17bb:	48 83 ec 08          	sub    $0x8,%rsp
    17bf:	48 83 ec 18          	sub    $0x18,%rsp
    17c3:	48 89 e1             	mov    %rsp,%rcx
    17c6:	48 8b 45 10          	mov    0x10(%rbp),%rax
    17ca:	48 8b 55 18          	mov    0x18(%rbp),%rdx
    17ce:	48 89 01             	mov    %rax,(%rcx)
    17d1:	48 89 51 08          	mov    %rdx,0x8(%rcx)
    17d5:	48 8b 45 20          	mov    0x20(%rbp),%rax
    17d9:	48 89 41 10          	mov    %rax,0x10(%rcx)
    17dd:	e8 f3 fc ff ff       	call   14d5 <to_int>
    17e2:	48 83 c4 20          	add    $0x20,%rsp
    17e6:	41 89 c4             	mov    %eax,%r12d
    17e9:	48 83 ec 08          	sub    $0x8,%rsp
    17ed:	48 83 ec 18          	sub    $0x18,%rsp
    17f1:	48 89 e1             	mov    %rsp,%rcx
    17f4:	48 8b 45 28          	mov    0x28(%rbp),%rax
    17f8:	48 8b 55 30          	mov    0x30(%rbp),%rdx
    17fc:	48 89 01             	mov    %rax,(%rcx)
    17ff:	48 89 51 08          	mov    %rdx,0x8(%rcx)
    1803:	48 8b 45 38          	mov    0x38(%rbp),%rax
    1807:	48 89 41 10          	mov    %rax,0x10(%rcx)
    180b:	e8 c5 fc ff ff       	call   14d5 <to_int>
    1810:	48 83 c4 20          	add    $0x20,%rsp
    1814:	41 8d 14 04          	lea    (%r12,%rax,1),%edx
    1818:	48 8b 45 c8          	mov    -0x38(%rbp),%rax
    181c:	c7 00 01 00 00 00    	movl   $0x1,(%rax)
    1822:	48 8b 45 c8          	mov    -0x38(%rbp),%rax
    1826:	48 89 58 08          	mov    %rbx,0x8(%rax)
    182a:	48 8b 45 c8          	mov    -0x38(%rbp),%rax
    182e:	89 50 10             	mov    %edx,0x10(%rax)
    1831:	e9 4b 13 00 00       	jmp    2b81 <operate+0x164d>
    1836:	48 83 ec 08          	sub    $0x8,%rsp
    183a:	48 83 ec 18          	sub    $0x18,%rsp
    183e:	48 89 e1             	mov    %rsp,%rcx
    1841:	48 8b 45 10          	mov    0x10(%rbp),%rax
    1845:	48 8b 55 18          	mov    0x18(%rbp),%rdx
    1849:	48 89 01             	mov    %rax,(%rcx)
    184c:	48 89 51 08          	mov    %rdx,0x8(%rcx)
    1850:	48 8b 45 20          	mov    0x20(%rbp),%rax
    1854:	48 89 41 10          	mov    %rax,0x10(%rcx)
    1858:	e8 c8 fc ff ff       	call   1525 <is_float>
    185d:	48 83 c4 20          	add    $0x20,%rsp
    1861:	84 c0                	test   %al,%al
    1863:	75 33                	jne    1898 <operate+0x364>
    1865:	48 83 ec 08          	sub    $0x8,%rsp
    1869:	48 83 ec 18          	sub    $0x18,%rsp
    186d:	48 89 e1             	mov    %rsp,%rcx
    1870:	48 8b 45 28          	mov    0x28(%rbp),%rax
    1874:	48 8b 55 30          	mov    0x30(%rbp),%rdx
    1878:	48 89 01             	mov    %rax,(%rcx)
    187b:	48 89 51 08          	mov    %rdx,0x8(%rcx)
    187f:	48 8b 45 38          	mov    0x38(%rbp),%rax
    1883:	48 89 41 10          	mov    %rax,0x10(%rcx)
    1887:	e8 99 fc ff ff       	call   1525 <is_float>
    188c:	48 83 c4 20          	add    $0x20,%rsp
    1890:	84 c0                	test   %al,%al
    1892:	0f 84 90 00 00 00    	je     1928 <operate+0x3f4>
    1898:	e8 3c fa ff ff       	call   12d9 <e_refc_init>
    189d:	48 89 c3             	mov    %rax,%rbx
    18a0:	48 83 ec 08          	sub    $0x8,%rsp
    18a4:	48 83 ec 18          	sub    $0x18,%rsp
    18a8:	48 89 e1             	mov    %rsp,%rcx
    18ab:	48 8b 45 10          	mov    0x10(%rbp),%rax
    18af:	48 8b 55 18          	mov    0x18(%rbp),%rdx
    18b3:	48 89 01             	mov    %rax,(%rcx)
    18b6:	48 89 51 08          	mov    %rdx,0x8(%rcx)
    18ba:	48 8b 45 20          	mov    0x20(%rbp),%rax
    18be:	48 89 41 10          	mov    %rax,0x10(%rcx)
    18c2:	e8 ab fb ff ff       	call   1472 <to_float>
    18c7:	48 83 c4 20          	add    $0x20,%rsp
    18cb:	66 49 0f 7e c4       	movq   %xmm0,%r12
    18d0:	48 83 ec 08          	sub    $0x8,%rsp
    18d4:	48 83 ec 18          	sub    $0x18,%rsp
    18d8:	48 89 e1             	mov    %rsp,%rcx
    18db:	48 8b 45 28          	mov    0x28(%rbp),%rax
    18df:	48 8b 55 30          	mov    0x30(%rbp),%rdx
    18e3:	48 89 01             	mov    %rax,(%rcx)
    18e6:	48 89 51 08          	mov    %rdx,0x8(%rcx)
    18ea:	48 8b 45 38          	mov    0x38(%rbp),%rax
    18ee:	48 89 41 10          	mov    %rax,0x10(%rcx)
    18f2:	e8 7b fb ff ff       	call   1472 <to_float>
    18f7:	48 83 c4 20          	add    $0x20,%rsp
    18fb:	66 0f 28 c8          	movapd %xmm0,%xmm1
    18ff:	66 49 0f 6e c4       	movq   %r12,%xmm0
    1904:	f2 0f 5c c1          	subsd  %xmm1,%xmm0
    1908:	48 8b 45 c8          	mov    -0x38(%rbp),%rax
    190c:	c7 00 04 00 00 00    	movl   $0x4,(%rax)
    1912:	48 8b 45 c8          	mov    -0x38(%rbp),%rax
    1916:	48 89 58 08          	mov    %rbx,0x8(%rax)
    191a:	48 8b 45 c8          	mov    -0x38(%rbp),%rax
    191e:	f2 0f 11 40 10       	movsd  %xmm0,0x10(%rax)
    1923:	e9 59 12 00 00       	jmp    2b81 <operate+0x164d>
    1928:	e8 ac f9 ff ff       	call   12d9 <e_refc_init>
    192d:	48 89 c3             	mov    %rax,%rbx
    1930:	48 83 ec 08          	sub    $0x8,%rsp
    1934:	48 83 ec 18          	sub    $0x18,%rsp
    1938:	48 89 e1             	mov    %rsp,%rcx
    193b:	48 8b 45 10          	mov    0x10(%rbp),%rax
    193f:	48 8b 55 18          	mov    0x18(%rbp),%rdx
    1943:	48 89 01             	mov    %rax,(%rcx)
    1946:	48 89 51 08          	mov    %rdx,0x8(%rcx)
    194a:	48 8b 45 20          	mov    0x20(%rbp),%rax
    194e:	48 89 41 10          	mov    %rax,0x10(%rcx)
    1952:	e8 7e fb ff ff       	call   14d5 <to_int>
    1957:	48 83 c4 20          	add    $0x20,%rsp
    195b:	41 89 c4             	mov    %eax,%r12d
    195e:	48 83 ec 08          	sub    $0x8,%rsp
    1962:	48 83 ec 18          	sub    $0x18,%rsp
    1966:	48 89 e1             	mov    %rsp,%rcx
    1969:	48 8b 45 28          	mov    0x28(%rbp),%rax
    196d:	48 8b 55 30          	mov    0x30(%rbp),%rdx
    1971:	48 89 01             	mov    %rax,(%rcx)
    1974:	48 89 51 08          	mov    %rdx,0x8(%rcx)
    1978:	48 8b 45 38          	mov    0x38(%rbp),%rax
    197c:	48 89 41 10          	mov    %rax,0x10(%rcx)
    1980:	e8 50 fb ff ff       	call   14d5 <to_int>
    1985:	48 83 c4 20          	add    $0x20,%rsp
    1989:	44 89 e2             	mov    %r12d,%edx
    198c:	29 c2                	sub    %eax,%edx
    198e:	48 8b 45 c8          	mov    -0x38(%rbp),%rax
    1992:	c7 00 01 00 00 00    	movl   $0x1,(%rax)
    1998:	48 8b 45 c8          	mov    -0x38(%rbp),%rax
    199c:	48 89 58 08          	mov    %rbx,0x8(%rax)
    19a0:	48 8b 45 c8          	mov    -0x38(%rbp),%rax
    19a4:	89 50 10             	mov    %edx,0x10(%rax)
    19a7:	e9 d5 11 00 00       	jmp    2b81 <operate+0x164d>
    19ac:	48 83 ec 08          	sub    $0x8,%rsp
    19b0:	48 83 ec 18          	sub    $0x18,%rsp
    19b4:	48 89 e1             	mov    %rsp,%rcx
    19b7:	48 8b 45 10          	mov    0x10(%rbp),%rax
    19bb:	48 8b 55 18          	mov    0x18(%rbp),%rdx
    19bf:	48 89 01             	mov    %rax,(%rcx)
    19c2:	48 89 51 08          	mov    %rdx,0x8(%rcx)
    19c6:	48 8b 45 20          	mov    0x20(%rbp),%rax
    19ca:	48 89 41 10          	mov    %rax,0x10(%rcx)
    19ce:	e8 52 fb ff ff       	call   1525 <is_float>
    19d3:	48 83 c4 20          	add    $0x20,%rsp
    19d7:	84 c0                	test   %al,%al
    19d9:	75 33                	jne    1a0e <operate+0x4da>
    19db:	48 83 ec 08          	sub    $0x8,%rsp
    19df:	48 83 ec 18          	sub    $0x18,%rsp
    19e3:	48 89 e1             	mov    %rsp,%rcx
    19e6:	48 8b 45 28          	mov    0x28(%rbp),%rax
    19ea:	48 8b 55 30          	mov    0x30(%rbp),%rdx
    19ee:	48 89 01             	mov    %rax,(%rcx)
    19f1:	48 89 51 08          	mov    %rdx,0x8(%rcx)
    19f5:	48 8b 45 38          	mov    0x38(%rbp),%rax
    19f9:	48 89 41 10          	mov    %rax,0x10(%rcx)
    19fd:	e8 23 fb ff ff       	call   1525 <is_float>
    1a02:	48 83 c4 20          	add    $0x20,%rsp
    1a06:	84 c0                	test   %al,%al
    1a08:	0f 84 88 00 00 00    	je     1a96 <operate+0x562>
    1a0e:	e8 c6 f8 ff ff       	call   12d9 <e_refc_init>
    1a13:	48 89 c3             	mov    %rax,%rbx
    1a16:	48 83 ec 08          	sub    $0x8,%rsp
    1a1a:	48 83 ec 18          	sub    $0x18,%rsp
    1a1e:	48 89 e1             	mov    %rsp,%rcx
    1a21:	48 8b 45 10          	mov    0x10(%rbp),%rax
    1a25:	48 8b 55 18          	mov    0x18(%rbp),%rdx
    1a29:	48 89 01             	mov    %rax,(%rcx)
    1a2c:	48 89 51 08          	mov    %rdx,0x8(%rcx)
    1a30:	48 8b 45 20          	mov    0x20(%rbp),%rax
    1a34:	48 89 41 10          	mov    %rax,0x10(%rcx)
    1a38:	e8 35 fa ff ff       	call   1472 <to_float>
    1a3d:	48 83 c4 20          	add    $0x20,%rsp
    1a41:	f2 0f 11 45 b8       	movsd  %xmm0,-0x48(%rbp)
    1a46:	48 83 ec 08          	sub    $0x8,%rsp
    1a4a:	48 83 ec 18          	sub    $0x18,%rsp
    1a4e:	48 89 e1             	mov    %rsp,%rcx
    1a51:	48 8b 45 28          	mov    0x28(%rbp),%rax
    1a55:	48 8b 55 30          	mov    0x30(%rbp),%rdx
    1a59:	48 89 01             	mov    %rax,(%rcx)
    1a5c:	48 89 51 08          	mov    %rdx,0x8(%rcx)
    1a60:	48 8b 45 38          	mov    0x38(%rbp),%rax
    1a64:	48 89 41 10          	mov    %rax,0x10(%rcx)
    1a68:	e8 05 fa ff ff       	call   1472 <to_float>
    1a6d:	48 83 c4 20          	add    $0x20,%rsp
    1a71:	f2 0f 59 45 b8       	mulsd  -0x48(%rbp),%xmm0
    1a76:	48 8b 45 c8          	mov    -0x38(%rbp),%rax
    1a7a:	c7 00 04 00 00 00    	movl   $0x4,(%rax)
    1a80:	48 8b 45 c8          	mov    -0x38(%rbp),%rax
    1a84:	48 89 58 08          	mov    %rbx,0x8(%rax)
    1a88:	48 8b 45 c8          	mov    -0x38(%rbp),%rax
    1a8c:	f2 0f 11 40 10       	movsd  %xmm0,0x10(%rax)
    1a91:	e9 eb 10 00 00       	jmp    2b81 <operate+0x164d>
    1a96:	e8 3e f8 ff ff       	call   12d9 <e_refc_init>
    1a9b:	48 89 c3             	mov    %rax,%rbx
    1a9e:	48 83 ec 08          	sub    $0x8,%rsp
    1aa2:	48 83 ec 18          	sub    $0x18,%rsp
    1aa6:	48 89 e1             	mov    %rsp,%rcx
    1aa9:	48 8b 45 10          	mov    0x10(%rbp),%rax
    1aad:	48 8b 55 18          	mov    0x18(%rbp),%rdx
    1ab1:	48 89 01             	mov    %rax,(%rcx)
    1ab4:	48 89 51 08          	mov    %rdx,0x8(%rcx)
    1ab8:	48 8b 45 20          	mov    0x20(%rbp),%rax
    1abc:	48 89 41 10          	mov    %rax,0x10(%rcx)
    1ac0:	e8 10 fa ff ff       	call   14d5 <to_int>
    1ac5:	48 83 c4 20          	add    $0x20,%rsp
    1ac9:	41 89 c4             	mov    %eax,%r12d
    1acc:	48 83 ec 08          	sub    $0x8,%rsp
    1ad0:	48 83 ec 18          	sub    $0x18,%rsp
    1ad4:	48 89 e1             	mov    %rsp,%rcx
    1ad7:	48 8b 45 28          	mov    0x28(%rbp),%rax
    1adb:	48 8b 55 30          	mov    0x30(%rbp),%rdx
    1adf:	48 89 01             	mov    %rax,(%rcx)
    1ae2:	48 89 51 08          	mov    %rdx,0x8(%rcx)
    1ae6:	48 8b 45 38          	mov    0x38(%rbp),%rax
    1aea:	48 89 41 10          	mov    %rax,0x10(%rcx)
    1aee:	e8 e2 f9 ff ff       	call   14d5 <to_int>
    1af3:	48 83 c4 20          	add    $0x20,%rsp
    1af7:	44 89 e2             	mov    %r12d,%edx
    1afa:	0f af d0             	imul   %eax,%edx
    1afd:	48 8b 45 c8          	mov    -0x38(%rbp),%rax
    1b01:	c7 00 01 00 00 00    	movl   $0x1,(%rax)
    1b07:	48 8b 45 c8          	mov    -0x38(%rbp),%rax
    1b0b:	48 89 58 08          	mov    %rbx,0x8(%rax)
    1b0f:	48 8b 45 c8          	mov    -0x38(%rbp),%rax
    1b13:	89 50 10             	mov    %edx,0x10(%rax)
    1b16:	e9 66 10 00 00       	jmp    2b81 <operate+0x164d>
    1b1b:	48 83 ec 08          	sub    $0x8,%rsp
    1b1f:	48 83 ec 18          	sub    $0x18,%rsp
    1b23:	48 89 e1             	mov    %rsp,%rcx
    1b26:	48 8b 45 10          	mov    0x10(%rbp),%rax
    1b2a:	48 8b 55 18          	mov    0x18(%rbp),%rdx
    1b2e:	48 89 01             	mov    %rax,(%rcx)
    1b31:	48 89 51 08          	mov    %rdx,0x8(%rcx)
    1b35:	48 8b 45 20          	mov    0x20(%rbp),%rax
    1b39:	48 89 41 10          	mov    %rax,0x10(%rcx)
    1b3d:	e8 e3 f9 ff ff       	call   1525 <is_float>
    1b42:	48 83 c4 20          	add    $0x20,%rsp
    1b46:	84 c0                	test   %al,%al
    1b48:	75 33                	jne    1b7d <operate+0x649>
    1b4a:	48 83 ec 08          	sub    $0x8,%rsp
    1b4e:	48 83 ec 18          	sub    $0x18,%rsp
    1b52:	48 89 e1             	mov    %rsp,%rcx
    1b55:	48 8b 45 28          	mov    0x28(%rbp),%rax
    1b59:	48 8b 55 30          	mov    0x30(%rbp),%rdx
    1b5d:	48 89 01             	mov    %rax,(%rcx)
    1b60:	48 89 51 08          	mov    %rdx,0x8(%rcx)
    1b64:	48 8b 45 38          	mov    0x38(%rbp),%rax
    1b68:	48 89 41 10          	mov    %rax,0x10(%rcx)
    1b6c:	e8 b4 f9 ff ff       	call   1525 <is_float>
    1b71:	48 83 c4 20          	add    $0x20,%rsp
    1b75:	84 c0                	test   %al,%al
    1b77:	0f 84 90 00 00 00    	je     1c0d <operate+0x6d9>
    1b7d:	e8 57 f7 ff ff       	call   12d9 <e_refc_init>
    1b82:	48 89 c3             	mov    %rax,%rbx
    1b85:	48 83 ec 08          	sub    $0x8,%rsp
    1b89:	48 83 ec 18          	sub    $0x18,%rsp
    1b8d:	48 89 e1             	mov    %rsp,%rcx
    1b90:	48 8b 45 10          	mov    0x10(%rbp),%rax
    1b94:	48 8b 55 18          	mov    0x18(%rbp),%rdx
    1b98:	48 89 01             	mov    %rax,(%rcx)
    1b9b:	48 89 51 08          	mov    %rdx,0x8(%rcx)
    1b9f:	48 8b 45 20          	mov    0x20(%rbp),%rax
    1ba3:	48 89 41 10          	mov    %rax,0x10(%rcx)
    1ba7:	e8 c6 f8 ff ff       	call   1472 <to_float>
    1bac:	48 83 c4 20          	add    $0x20,%rsp
    1bb0:	66 49 0f 7e c4       	movq   %xmm0,%r12
    1bb5:	48 83 ec 08          	sub    $0x8,%rsp
    1bb9:	48 83 ec 18          	sub    $0x18,%rsp
    1bbd:	48 89 e1             	mov    %rsp,%rcx
    1bc0:	48 8b 45 28          	mov    0x28(%rbp),%rax
    1bc4:	48 8b 55 30          	mov    0x30(%rbp),%rdx
    1bc8:	48 89 01             	mov    %rax,(%rcx)
    1bcb:	48 89 51 08          	mov    %rdx,0x8(%rcx)
    1bcf:	48 8b 45 38          	mov    0x38(%rbp),%rax
    1bd3:	48 89 41 10          	mov    %rax,0x10(%rcx)
    1bd7:	e8 96 f8 ff ff       	call   1472 <to_float>
    1bdc:	48 83 c4 20          	add    $0x20,%rsp
    1be0:	66 0f 28 c8          	movapd %xmm0,%xmm1
    1be4:	66 49 0f 6e c4       	movq   %r12,%xmm0
    1be9:	f2 0f 5e c1          	divsd  %xmm1,%xmm0
    1bed:	48 8b 45 c8          	mov    -0x38(%rbp),%rax
    1bf1:	c7 00 04 00 00 00    	movl   $0x4,(%rax)
    1bf7:	48 8b 45 c8          	mov    -0x38(%rbp),%rax
    1bfb:	48 89 58 08          	mov    %rbx,0x8(%rax)
    1bff:	48 8b 45 c8          	mov    -0x38(%rbp),%rax
    1c03:	f2 0f 11 40 10       	movsd  %xmm0,0x10(%rax)
    1c08:	e9 74 0f 00 00       	jmp    2b81 <operate+0x164d>
    1c0d:	e8 c7 f6 ff ff       	call   12d9 <e_refc_init>
    1c12:	48 89 c3             	mov    %rax,%rbx
    1c15:	48 83 ec 08          	sub    $0x8,%rsp
    1c19:	48 83 ec 18          	sub    $0x18,%rsp
    1c1d:	48 89 e1             	mov    %rsp,%rcx
    1c20:	48 8b 45 10          	mov    0x10(%rbp),%rax
    1c24:	48 8b 55 18          	mov    0x18(%rbp),%rdx
    1c28:	48 89 01             	mov    %rax,(%rcx)
    1c2b:	48 89 51 08          	mov    %rdx,0x8(%rcx)
    1c2f:	48 8b 45 20          	mov    0x20(%rbp),%rax
    1c33:	48 89 41 10          	mov    %rax,0x10(%rcx)
    1c37:	e8 99 f8 ff ff       	call   14d5 <to_int>
    1c3c:	48 83 c4 20          	add    $0x20,%rsp
    1c40:	41 89 c4             	mov    %eax,%r12d
    1c43:	48 83 ec 08          	sub    $0x8,%rsp
    1c47:	48 83 ec 18          	sub    $0x18,%rsp
    1c4b:	48 89 e1             	mov    %rsp,%rcx
    1c4e:	48 8b 45 28          	mov    0x28(%rbp),%rax
    1c52:	48 8b 55 30          	mov    0x30(%rbp),%rdx
    1c56:	48 89 01             	mov    %rax,(%rcx)
    1c59:	48 89 51 08          	mov    %rdx,0x8(%rcx)
    1c5d:	48 8b 45 38          	mov    0x38(%rbp),%rax
    1c61:	48 89 41 10          	mov    %rax,0x10(%rcx)
    1c65:	e8 6b f8 ff ff       	call   14d5 <to_int>
    1c6a:	48 83 c4 20          	add    $0x20,%rsp
    1c6e:	89 c6                	mov    %eax,%esi
    1c70:	44 89 e0             	mov    %r12d,%eax
    1c73:	99                   	cltd
    1c74:	f7 fe                	idiv   %esi
    1c76:	89 c2                	mov    %eax,%edx
    1c78:	48 8b 45 c8          	mov    -0x38(%rbp),%rax
    1c7c:	c7 00 01 00 00 00    	movl   $0x1,(%rax)
    1c82:	48 8b 45 c8          	mov    -0x38(%rbp),%rax
    1c86:	48 89 58 08          	mov    %rbx,0x8(%rax)
    1c8a:	48 8b 45 c8          	mov    -0x38(%rbp),%rax
    1c8e:	89 50 10             	mov    %edx,0x10(%rax)
    1c91:	e9 eb 0e 00 00       	jmp    2b81 <operate+0x164d>
    1c96:	e8 3e f6 ff ff       	call   12d9 <e_refc_init>
    1c9b:	48 89 c3             	mov    %rax,%rbx
    1c9e:	48 83 ec 08          	sub    $0x8,%rsp
    1ca2:	48 83 ec 18          	sub    $0x18,%rsp
    1ca6:	48 89 e1             	mov    %rsp,%rcx
    1ca9:	48 8b 45 10          	mov    0x10(%rbp),%rax
    1cad:	48 8b 55 18          	mov    0x18(%rbp),%rdx
    1cb1:	48 89 01             	mov    %rax,(%rcx)
    1cb4:	48 89 51 08          	mov    %rdx,0x8(%rcx)
    1cb8:	48 8b 45 20          	mov    0x20(%rbp),%rax
    1cbc:	48 89 41 10          	mov    %rax,0x10(%rcx)
    1cc0:	e8 10 f8 ff ff       	call   14d5 <to_int>
    1cc5:	48 83 c4 20          	add    $0x20,%rsp
    1cc9:	41 89 c4             	mov    %eax,%r12d
    1ccc:	48 83 ec 08          	sub    $0x8,%rsp
    1cd0:	48 83 ec 18          	sub    $0x18,%rsp
    1cd4:	48 89 e1             	mov    %rsp,%rcx
    1cd7:	48 8b 45 28          	mov    0x28(%rbp),%rax
    1cdb:	48 8b 55 30          	mov    0x30(%rbp),%rdx
    1cdf:	48 89 01             	mov    %rax,(%rcx)
    1ce2:	48 89 51 08          	mov    %rdx,0x8(%rcx)
    1ce6:	48 8b 45 38          	mov    0x38(%rbp),%rax
    1cea:	48 89 41 10          	mov    %rax,0x10(%rcx)
    1cee:	e8 e2 f7 ff ff       	call   14d5 <to_int>
    1cf3:	48 83 c4 20          	add    $0x20,%rsp
    1cf7:	89 c7                	mov    %eax,%edi
    1cf9:	44 89 e0             	mov    %r12d,%eax
    1cfc:	99                   	cltd
    1cfd:	f7 ff                	idiv   %edi
    1cff:	89 d1                	mov    %edx,%ecx
    1d01:	89 ca                	mov    %ecx,%edx
    1d03:	48 8b 45 c8          	mov    -0x38(%rbp),%rax
    1d07:	c7 00 01 00 00 00    	movl   $0x1,(%rax)
    1d0d:	48 8b 45 c8          	mov    -0x38(%rbp),%rax
    1d11:	48 89 58 08          	mov    %rbx,0x8(%rax)
    1d15:	48 8b 45 c8          	mov    -0x38(%rbp),%rax
    1d19:	89 50 10             	mov    %edx,0x10(%rax)
    1d1c:	e9 60 0e 00 00       	jmp    2b81 <operate+0x164d>
    1d21:	48 83 ec 08          	sub    $0x8,%rsp
    1d25:	48 83 ec 18          	sub    $0x18,%rsp
    1d29:	48 89 e1             	mov    %rsp,%rcx
    1d2c:	48 8b 45 10          	mov    0x10(%rbp),%rax
    1d30:	48 8b 55 18          	mov    0x18(%rbp),%rdx
    1d34:	48 89 01             	mov    %rax,(%rcx)
    1d37:	48 89 51 08          	mov    %rdx,0x8(%rcx)
    1d3b:	48 8b 45 20          	mov    0x20(%rbp),%rax
    1d3f:	48 89 41 10          	mov    %rax,0x10(%rcx)
    1d43:	e8 dd f7 ff ff       	call   1525 <is_float>
    1d48:	48 83 c4 20          	add    $0x20,%rsp
    1d4c:	84 c0                	test   %al,%al
    1d4e:	75 33                	jne    1d83 <operate+0x84f>
    1d50:	48 83 ec 08          	sub    $0x8,%rsp
    1d54:	48 83 ec 18          	sub    $0x18,%rsp
    1d58:	48 89 e1             	mov    %rsp,%rcx
    1d5b:	48 8b 45 28          	mov    0x28(%rbp),%rax
    1d5f:	48 8b 55 30          	mov    0x30(%rbp),%rdx
    1d63:	48 89 01             	mov    %rax,(%rcx)
    1d66:	48 89 51 08          	mov    %rdx,0x8(%rcx)
    1d6a:	48 8b 45 38          	mov    0x38(%rbp),%rax
    1d6e:	48 89 41 10          	mov    %rax,0x10(%rcx)
    1d72:	e8 ae f7 ff ff       	call   1525 <is_float>
    1d77:	48 83 c4 20          	add    $0x20,%rsp
    1d7b:	84 c0                	test   %al,%al
    1d7d:	0f 84 9e 00 00 00    	je     1e21 <operate+0x8ed>
    1d83:	e8 51 f5 ff ff       	call   12d9 <e_refc_init>
    1d88:	49 89 c4             	mov    %rax,%r12
    1d8b:	48 83 ec 08          	sub    $0x8,%rsp
    1d8f:	48 83 ec 18          	sub    $0x18,%rsp
    1d93:	48 89 e1             	mov    %rsp,%rcx
    1d96:	48 8b 45 10          	mov    0x10(%rbp),%rax
    1d9a:	48 8b 55 18          	mov    0x18(%rbp),%rdx
    1d9e:	48 89 01             	mov    %rax,(%rcx)
    1da1:	48 89 51 08          	mov    %rdx,0x8(%rcx)
    1da5:	48 8b 45 20          	mov    0x20(%rbp),%rax
    1da9:	48 89 41 10          	mov    %rax,0x10(%rcx)
    1dad:	e8 c0 f6 ff ff       	call   1472 <to_float>
    1db2:	48 83 c4 20          	add    $0x20,%rsp
    1db6:	66 48 0f 7e c3       	movq   %xmm0,%rbx
    1dbb:	48 83 ec 08          	sub    $0x8,%rsp
    1dbf:	48 83 ec 18          	sub    $0x18,%rsp
    1dc3:	48 89 e1             	mov    %rsp,%rcx
    1dc6:	48 8b 45 28          	mov    0x28(%rbp),%rax
    1dca:	48 8b 55 30          	mov    0x30(%rbp),%rdx
    1dce:	48 89 01             	mov    %rax,(%rcx)
    1dd1:	48 89 51 08          	mov    %rdx,0x8(%rcx)
    1dd5:	48 8b 45 38          	mov    0x38(%rbp),%rax
    1dd9:	48 89 41 10          	mov    %rax,0x10(%rcx)
    1ddd:	e8 90 f6 ff ff       	call   1472 <to_float>
    1de2:	48 83 c4 20          	add    $0x20,%rsp
    1de6:	66 48 0f 6e e3       	movq   %rbx,%xmm4
    1deb:	66 0f 2e e0          	ucomisd %xmm0,%xmm4
    1def:	0f 9b c0             	setnp  %al
    1df2:	ba 00 00 00 00       	mov    $0x0,%edx
    1df7:	66 48 0f 6e eb       	movq   %rbx,%xmm5
    1dfc:	66 0f 2e e8          	ucomisd %xmm0,%xmm5
    1e00:	0f 44 d0             	cmove  %eax,%edx
    1e03:	48 8b 45 c8          	mov    -0x38(%rbp),%rax
    1e07:	c7 00 02 00 00 00    	movl   $0x2,(%rax)
    1e0d:	48 8b 45 c8          	mov    -0x38(%rbp),%rax
    1e11:	4c 89 60 08          	mov    %r12,0x8(%rax)
    1e15:	48 8b 45 c8          	mov    -0x38(%rbp),%rax
    1e19:	88 50 10             	mov    %dl,0x10(%rax)
    1e1c:	e9 60 0d 00 00       	jmp    2b81 <operate+0x164d>
    1e21:	e8 b3 f4 ff ff       	call   12d9 <e_refc_init>
    1e26:	48 89 c3             	mov    %rax,%rbx
    1e29:	48 83 ec 08          	sub    $0x8,%rsp
    1e2d:	48 83 ec 18          	sub    $0x18,%rsp
    1e31:	48 89 e1             	mov    %rsp,%rcx
    1e34:	48 8b 45 10          	mov    0x10(%rbp),%rax
    1e38:	48 8b 55 18          	mov    0x18(%rbp),%rdx
    1e3c:	48 89 01             	mov    %rax,(%rcx)
    1e3f:	48 89 51 08          	mov    %rdx,0x8(%rcx)
    1e43:	48 8b 45 20          	mov    0x20(%rbp),%rax
    1e47:	48 89 41 10          	mov    %rax,0x10(%rcx)
    1e4b:	e8 85 f6 ff ff       	call   14d5 <to_int>
    1e50:	48 83 c4 20          	add    $0x20,%rsp
    1e54:	41 89 c4             	mov    %eax,%r12d
    1e57:	48 83 ec 08          	sub    $0x8,%rsp
    1e5b:	48 83 ec 18          	sub    $0x18,%rsp
    1e5f:	48 89 e1             	mov    %rsp,%rcx
    1e62:	48 8b 45 28          	mov    0x28(%rbp),%rax
    1e66:	48 8b 55 30          	mov    0x30(%rbp),%rdx
    1e6a:	48 89 01             	mov    %rax,(%rcx)
    1e6d:	48 89 51 08          	mov    %rdx,0x8(%rcx)
    1e71:	48 8b 45 38          	mov    0x38(%rbp),%rax
    1e75:	48 89 41 10          	mov    %rax,0x10(%rcx)
    1e79:	e8 57 f6 ff ff       	call   14d5 <to_int>
    1e7e:	48 83 c4 20          	add    $0x20,%rsp
    1e82:	41 39 c4             	cmp    %eax,%r12d
    1e85:	0f 94 c2             	sete   %dl
    1e88:	48 8b 45 c8          	mov    -0x38(%rbp),%rax
    1e8c:	c7 00 02 00 00 00    	movl   $0x2,(%rax)
    1e92:	48 8b 45 c8          	mov    -0x38(%rbp),%rax
    1e96:	48 89 58 08          	mov    %rbx,0x8(%rax)
    1e9a:	48 8b 45 c8          	mov    -0x38(%rbp),%rax
    1e9e:	88 50 10             	mov    %dl,0x10(%rax)
    1ea1:	e9 db 0c 00 00       	jmp    2b81 <operate+0x164d>
    1ea6:	48 83 ec 08          	sub    $0x8,%rsp
    1eaa:	48 83 ec 18          	sub    $0x18,%rsp
    1eae:	48 89 e1             	mov    %rsp,%rcx
    1eb1:	48 8b 45 10          	mov    0x10(%rbp),%rax
    1eb5:	48 8b 55 18          	mov    0x18(%rbp),%rdx
    1eb9:	48 89 01             	mov    %rax,(%rcx)
    1ebc:	48 89 51 08          	mov    %rdx,0x8(%rcx)
    1ec0:	48 8b 45 20          	mov    0x20(%rbp),%rax
    1ec4:	48 89 41 10          	mov    %rax,0x10(%rcx)
    1ec8:	e8 58 f6 ff ff       	call   1525 <is_float>
    1ecd:	48 83 c4 20          	add    $0x20,%rsp
    1ed1:	84 c0                	test   %al,%al
    1ed3:	75 33                	jne    1f08 <operate+0x9d4>
    1ed5:	48 83 ec 08          	sub    $0x8,%rsp
    1ed9:	48 83 ec 18          	sub    $0x18,%rsp
    1edd:	48 89 e1             	mov    %rsp,%rcx
    1ee0:	48 8b 45 28          	mov    0x28(%rbp),%rax
    1ee4:	48 8b 55 30          	mov    0x30(%rbp),%rdx
    1ee8:	48 89 01             	mov    %rax,(%rcx)
    1eeb:	48 89 51 08          	mov    %rdx,0x8(%rcx)
    1eef:	48 8b 45 38          	mov    0x38(%rbp),%rax
    1ef3:	48 89 41 10          	mov    %rax,0x10(%rcx)
    1ef7:	e8 29 f6 ff ff       	call   1525 <is_float>
    1efc:	48 83 c4 20          	add    $0x20,%rsp
    1f00:	84 c0                	test   %al,%al
    1f02:	0f 84 9e 00 00 00    	je     1fa6 <operate+0xa72>
    1f08:	e8 cc f3 ff ff       	call   12d9 <e_refc_init>
    1f0d:	49 89 c4             	mov    %rax,%r12
    1f10:	48 83 ec 08          	sub    $0x8,%rsp
    1f14:	48 83 ec 18          	sub    $0x18,%rsp
    1f18:	48 89 e1             	mov    %rsp,%rcx
    1f1b:	48 8b 45 10          	mov    0x10(%rbp),%rax
    1f1f:	48 8b 55 18          	mov    0x18(%rbp),%rdx
    1f23:	48 89 01             	mov    %rax,(%rcx)
    1f26:	48 89 51 08          	mov    %rdx,0x8(%rcx)
    1f2a:	48 8b 45 20          	mov    0x20(%rbp),%rax
    1f2e:	48 89 41 10          	mov    %rax,0x10(%rcx)
    1f32:	e8 3b f5 ff ff       	call   1472 <to_float>
    1f37:	48 83 c4 20          	add    $0x20,%rsp
    1f3b:	66 48 0f 7e c3       	movq   %xmm0,%rbx
    1f40:	48 83 ec 08          	sub    $0x8,%rsp
    1f44:	48 83 ec 18          	sub    $0x18,%rsp
    1f48:	48 89 e1             	mov    %rsp,%rcx
    1f4b:	48 8b 45 28          	mov    0x28(%rbp),%rax
    1f4f:	48 8b 55 30          	mov    0x30(%rbp),%rdx
    1f53:	48 89 01             	mov    %rax,(%rcx)
    1f56:	48 89 51 08          	mov    %rdx,0x8(%rcx)
    1f5a:	48 8b 45 38          	mov    0x38(%rbp),%rax
    1f5e:	48 89 41 10          	mov    %rax,0x10(%rcx)
    1f62:	e8 0b f5 ff ff       	call   1472 <to_float>
    1f67:	48 83 c4 20          	add    $0x20,%rsp
    1f6b:	66 48 0f 6e f3       	movq   %rbx,%xmm6
    1f70:	66 0f 2e f0          	ucomisd %xmm0,%xmm6
    1f74:	0f 9a c0             	setp   %al
    1f77:	ba 01 00 00 00       	mov    $0x1,%edx
    1f7c:	66 48 0f 6e fb       	movq   %rbx,%xmm7
    1f81:	66 0f 2e f8          	ucomisd %xmm0,%xmm7
    1f85:	0f 44 d0             	cmove  %eax,%edx
    1f88:	48 8b 45 c8          	mov    -0x38(%rbp),%rax
    1f8c:	c7 00 02 00 00 00    	movl   $0x2,(%rax)
    1f92:	48 8b 45 c8          	mov    -0x38(%rbp),%rax
    1f96:	4c 89 60 08          	mov    %r12,0x8(%rax)
    1f9a:	48 8b 45 c8          	mov    -0x38(%rbp),%rax
    1f9e:	88 50 10             	mov    %dl,0x10(%rax)
    1fa1:	e9 db 0b 00 00       	jmp    2b81 <operate+0x164d>
    1fa6:	e8 2e f3 ff ff       	call   12d9 <e_refc_init>
    1fab:	48 89 c3             	mov    %rax,%rbx
    1fae:	48 83 ec 08          	sub    $0x8,%rsp
    1fb2:	48 83 ec 18          	sub    $0x18,%rsp
    1fb6:	48 89 e1             	mov    %rsp,%rcx
    1fb9:	48 8b 45 10          	mov    0x10(%rbp),%rax
    1fbd:	48 8b 55 18          	mov    0x18(%rbp),%rdx
    1fc1:	48 89 01             	mov    %rax,(%rcx)
    1fc4:	48 89 51 08          	mov    %rdx,0x8(%rcx)
    1fc8:	48 8b 45 20          	mov    0x20(%rbp),%rax
    1fcc:	48 89 41 10          	mov    %rax,0x10(%rcx)
    1fd0:	e8 00 f5 ff ff       	call   14d5 <to_int>
    1fd5:	48 83 c4 20          	add    $0x20,%rsp
    1fd9:	41 89 c4             	mov    %eax,%r12d
    1fdc:	48 83 ec 08          	sub    $0x8,%rsp
    1fe0:	48 83 ec 18          	sub    $0x18,%rsp
    1fe4:	48 89 e1             	mov    %rsp,%rcx
    1fe7:	48 8b 45 28          	mov    0x28(%rbp),%rax
    1feb:	48 8b 55 30          	mov    0x30(%rbp),%rdx
    1fef:	48 89 01             	mov    %rax,(%rcx)
    1ff2:	48 89 51 08          	mov    %rdx,0x8(%rcx)
    1ff6:	48 8b 45 38          	mov    0x38(%rbp),%rax
    1ffa:	48 89 41 10          	mov    %rax,0x10(%rcx)
    1ffe:	e8 d2 f4 ff ff       	call   14d5 <to_int>
    2003:	48 83 c4 20          	add    $0x20,%rsp
    2007:	41 39 c4             	cmp    %eax,%r12d
    200a:	0f 95 c2             	setne  %dl
    200d:	48 8b 45 c8          	mov    -0x38(%rbp),%rax
    2011:	c7 00 02 00 00 00    	movl   $0x2,(%rax)
    2017:	48 8b 45 c8          	mov    -0x38(%rbp),%rax
    201b:	48 89 58 08          	mov    %rbx,0x8(%rax)
    201f:	48 8b 45 c8          	mov    -0x38(%rbp),%rax
    2023:	88 50 10             	mov    %dl,0x10(%rax)
    2026:	e9 56 0b 00 00       	jmp    2b81 <operate+0x164d>
    202b:	48 83 ec 08          	sub    $0x8,%rsp
    202f:	48 83 ec 18          	sub    $0x18,%rsp
    2033:	48 89 e1             	mov    %rsp,%rcx
    2036:	48 8b 45 10          	mov    0x10(%rbp),%rax
    203a:	48 8b 55 18          	mov    0x18(%rbp),%rdx
    203e:	48 89 01             	mov    %rax,(%rcx)
    2041:	48 89 51 08          	mov    %rdx,0x8(%rcx)
    2045:	48 8b 45 20          	mov    0x20(%rbp),%rax
    2049:	48 89 41 10          	mov    %rax,0x10(%rcx)
    204d:	e8 d3 f4 ff ff       	call   1525 <is_float>
    2052:	48 83 c4 20          	add    $0x20,%rsp
    2056:	84 c0                	test   %al,%al
    2058:	75 33                	jne    208d <operate+0xb59>
    205a:	48 83 ec 08          	sub    $0x8,%rsp
    205e:	48 83 ec 18          	sub    $0x18,%rsp
    2062:	48 89 e1             	mov    %rsp,%rcx
    2065:	48 8b 45 28          	mov    0x28(%rbp),%rax
    2069:	48 8b 55 30          	mov    0x30(%rbp),%rdx
    206d:	48 89 01             	mov    %rax,(%rcx)
    2070:	48 89 51 08          	mov    %rdx,0x8(%rcx)
    2074:	48 8b 45 38          	mov    0x38(%rbp),%rax
    2078:	48 89 41 10          	mov    %rax,0x10(%rcx)
    207c:	e8 a4 f4 ff ff       	call   1525 <is_float>
    2081:	48 83 c4 20          	add    $0x20,%rsp
    2085:	84 c0                	test   %al,%al
    2087:	0f 84 93 00 00 00    	je     2120 <operate+0xbec>
    208d:	e8 47 f2 ff ff       	call   12d9 <e_refc_init>
    2092:	48 89 c3             	mov    %rax,%rbx
    2095:	48 83 ec 08          	sub    $0x8,%rsp
    2099:	48 83 ec 18          	sub    $0x18,%rsp
    209d:	48 89 e1             	mov    %rsp,%rcx
    20a0:	48 8b 45 10          	mov    0x10(%rbp),%rax
    20a4:	48 8b 55 18          	mov    0x18(%rbp),%rdx
    20a8:	48 89 01             	mov    %rax,(%rcx)
    20ab:	48 89 51 08          	mov    %rdx,0x8(%rcx)
    20af:	48 8b 45 20          	mov    0x20(%rbp),%rax
    20b3:	48 89 41 10          	mov    %rax,0x10(%rcx)
    20b7:	e8 b6 f3 ff ff       	call   1472 <to_float>
    20bc:	48 83 c4 20          	add    $0x20,%rsp
    20c0:	f2 0f 11 45 b8       	movsd  %xmm0,-0x48(%rbp)
    20c5:	48 83 ec 08          	sub    $0x8,%rsp
    20c9:	48 83 ec 18          	sub    $0x18,%rsp
    20cd:	48 89 e1             	mov    %rsp,%rcx
    20d0:	48 8b 45 28          	mov    0x28(%rbp),%rax
    20d4:	48 8b 55 30          	mov    0x30(%rbp),%rdx
    20d8:	48 89 01             	mov    %rax,(%rcx)
    20db:	48 89 51 08          	mov    %rdx,0x8(%rcx)
    20df:	48 8b 45 38          	mov    0x38(%rbp),%rax
    20e3:	48 89 41 10          	mov    %rax,0x10(%rcx)
    20e7:	e8 86 f3 ff ff       	call   1472 <to_float>
    20ec:	48 83 c4 20          	add    $0x20,%rsp
    20f0:	66 48 0f 7e c0       	movq   %xmm0,%rax
    20f5:	66 48 0f 6e d0       	movq   %rax,%xmm2
    20fa:	66 0f 2f 55 b8       	comisd -0x48(%rbp),%xmm2
    20ff:	0f 97 c2             	seta   %dl
    2102:	48 8b 45 c8          	mov    -0x38(%rbp),%rax
    2106:	c7 00 02 00 00 00    	movl   $0x2,(%rax)
    210c:	48 8b 45 c8          	mov    -0x38(%rbp),%rax
    2110:	48 89 58 08          	mov    %rbx,0x8(%rax)
    2114:	48 8b 45 c8          	mov    -0x38(%rbp),%rax
    2118:	88 50 10             	mov    %dl,0x10(%rax)
    211b:	e9 61 0a 00 00       	jmp    2b81 <operate+0x164d>
    2120:	e8 b4 f1 ff ff       	call   12d9 <e_refc_init>
    2125:	48 89 c3             	mov    %rax,%rbx
    2128:	48 83 ec 08          	sub    $0x8,%rsp
    212c:	48 83 ec 18          	sub    $0x18,%rsp
    2130:	48 89 e1             	mov    %rsp,%rcx
    2133:	48 8b 45 10          	mov    0x10(%rbp),%rax
    2137:	48 8b 55 18          	mov    0x18(%rbp),%rdx
    213b:	48 89 01             	mov    %rax,(%rcx)
    213e:	48 89 51 08          	mov    %rdx,0x8(%rcx)
    2142:	48 8b 45 20          	mov    0x20(%rbp),%rax
    2146:	48 89 41 10          	mov    %rax,0x10(%rcx)
    214a:	e8 86 f3 ff ff       	call   14d5 <to_int>
    214f:	48 83 c4 20          	add    $0x20,%rsp
    2153:	41 89 c4             	mov    %eax,%r12d
    2156:	48 83 ec 08          	sub    $0x8,%rsp
    215a:	48 83 ec 18          	sub    $0x18,%rsp
    215e:	48 89 e1             	mov    %rsp,%rcx
    2161:	48 8b 45 28          	mov    0x28(%rbp),%rax
    2165:	48 8b 55 30          	mov    0x30(%rbp),%rdx
    2169:	48 89 01             	mov    %rax,(%rcx)
    216c:	48 89 51 08          	mov    %rdx,0x8(%rcx)
    2170:	48 8b 45 38          	mov    0x38(%rbp),%rax
    2174:	48 89 41 10          	mov    %rax,0x10(%rcx)
    2178:	e8 58 f3 ff ff       	call   14d5 <to_int>
    217d:	48 83 c4 20          	add    $0x20,%rsp
    2181:	41 39 c4             	cmp    %eax,%r12d
    2184:	0f 9c c2             	setl   %dl
    2187:	48 8b 45 c8          	mov    -0x38(%rbp),%rax
    218b:	c7 00 02 00 00 00    	movl   $0x2,(%rax)
    2191:	48 8b 45 c8          	mov    -0x38(%rbp),%rax
    2195:	48 89 58 08          	mov    %rbx,0x8(%rax)
    2199:	48 8b 45 c8          	mov    -0x38(%rbp),%rax
    219d:	88 50 10             	mov    %dl,0x10(%rax)
    21a0:	e9 dc 09 00 00       	jmp    2b81 <operate+0x164d>
    21a5:	48 83 ec 08          	sub    $0x8,%rsp
    21a9:	48 83 ec 18          	sub    $0x18,%rsp
    21ad:	48 89 e1             	mov    %rsp,%rcx
    21b0:	48 8b 45 10          	mov    0x10(%rbp),%rax
    21b4:	48 8b 55 18          	mov    0x18(%rbp),%rdx
    21b8:	48 89 01             	mov    %rax,(%rcx)
    21bb:	48 89 51 08          	mov    %rdx,0x8(%rcx)
    21bf:	48 8b 45 20          	mov    0x20(%rbp),%rax
    21c3:	48 89 41 10          	mov    %rax,0x10(%rcx)
    21c7:	e8 59 f3 ff ff       	call   1525 <is_float>
    21cc:	48 83 c4 20          	add    $0x20,%rsp
    21d0:	84 c0                	test   %al,%al
    21d2:	75 33                	jne    2207 <operate+0xcd3>
    21d4:	48 83 ec 08          	sub    $0x8,%rsp
    21d8:	48 83 ec 18          	sub    $0x18,%rsp
    21dc:	48 89 e1             	mov    %rsp,%rcx
    21df:	48 8b 45 28          	mov    0x28(%rbp),%rax
    21e3:	48 8b 55 30          	mov    0x30(%rbp),%rdx
    21e7:	48 89 01             	mov    %rax,(%rcx)
    21ea:	48 89 51 08          	mov    %rdx,0x8(%rcx)
    21ee:	48 8b 45 38          	mov    0x38(%rbp),%rax
    21f2:	48 89 41 10          	mov    %rax,0x10(%rcx)
    21f6:	e8 2a f3 ff ff       	call   1525 <is_float>
    21fb:	48 83 c4 20          	add    $0x20,%rsp
    21ff:	84 c0                	test   %al,%al
    2201:	0f 84 93 00 00 00    	je     229a <operate+0xd66>
    2207:	e8 cd f0 ff ff       	call   12d9 <e_refc_init>
    220c:	48 89 c3             	mov    %rax,%rbx
    220f:	48 83 ec 08          	sub    $0x8,%rsp
    2213:	48 83 ec 18          	sub    $0x18,%rsp
    2217:	48 89 e1             	mov    %rsp,%rcx
    221a:	48 8b 45 10          	mov    0x10(%rbp),%rax
    221e:	48 8b 55 18          	mov    0x18(%rbp),%rdx
    2222:	48 89 01             	mov    %rax,(%rcx)
    2225:	48 89 51 08          	mov    %rdx,0x8(%rcx)
    2229:	48 8b 45 20          	mov    0x20(%rbp),%rax
    222d:	48 89 41 10          	mov    %rax,0x10(%rcx)
    2231:	e8 3c f2 ff ff       	call   1472 <to_float>
    2236:	48 83 c4 20          	add    $0x20,%rsp
    223a:	f2 0f 11 45 b8       	movsd  %xmm0,-0x48(%rbp)
    223f:	48 83 ec 08          	sub    $0x8,%rsp
    2243:	48 83 ec 18          	sub    $0x18,%rsp
    2247:	48 89 e1             	mov    %rsp,%rcx
    224a:	48 8b 45 28          	mov    0x28(%rbp),%rax
    224e:	48 8b 55 30          	mov    0x30(%rbp),%rdx
    2252:	48 89 01             	mov    %rax,(%rcx)
    2255:	48 89 51 08          	mov    %rdx,0x8(%rcx)
    2259:	48 8b 45 38          	mov    0x38(%rbp),%rax
    225d:	48 89 41 10          	mov    %rax,0x10(%rcx)
    2261:	e8 0c f2 ff ff       	call   1472 <to_float>
    2266:	48 83 c4 20          	add    $0x20,%rsp
    226a:	66 48 0f 7e c0       	movq   %xmm0,%rax
    226f:	66 48 0f 6e e0       	movq   %rax,%xmm4
    2274:	66 0f 2f 65 b8       	comisd -0x48(%rbp),%xmm4
    2279:	0f 93 c2             	setae  %dl
    227c:	48 8b 45 c8          	mov    -0x38(%rbp),%rax
    2280:	c7 00 02 00 00 00    	movl   $0x2,(%rax)
    2286:	48 8b 45 c8          	mov    -0x38(%rbp),%rax
    228a:	48 89 58 08          	mov    %rbx,0x8(%rax)
    228e:	48 8b 45 c8          	mov    -0x38(%rbp),%rax
    2292:	88 50 10             	mov    %dl,0x10(%rax)
    2295:	e9 e7 08 00 00       	jmp    2b81 <operate+0x164d>
    229a:	e8 3a f0 ff ff       	call   12d9 <e_refc_init>
    229f:	48 89 c3             	mov    %rax,%rbx
    22a2:	48 83 ec 08          	sub    $0x8,%rsp
    22a6:	48 83 ec 18          	sub    $0x18,%rsp
    22aa:	48 89 e1             	mov    %rsp,%rcx
    22ad:	48 8b 45 10          	mov    0x10(%rbp),%rax
    22b1:	48 8b 55 18          	mov    0x18(%rbp),%rdx
    22b5:	48 89 01             	mov    %rax,(%rcx)
    22b8:	48 89 51 08          	mov    %rdx,0x8(%rcx)
    22bc:	48 8b 45 20          	mov    0x20(%rbp),%rax
    22c0:	48 89 41 10          	mov    %rax,0x10(%rcx)
    22c4:	e8 0c f2 ff ff       	call   14d5 <to_int>
    22c9:	48 83 c4 20          	add    $0x20,%rsp
    22cd:	41 89 c4             	mov    %eax,%r12d
    22d0:	48 83 ec 08          	sub    $0x8,%rsp
    22d4:	48 83 ec 18          	sub    $0x18,%rsp
    22d8:	48 89 e1             	mov    %rsp,%rcx
    22db:	48 8b 45 28          	mov    0x28(%rbp),%rax
    22df:	48 8b 55 30          	mov    0x30(%rbp),%rdx
    22e3:	48 89 01             	mov    %rax,(%rcx)
    22e6:	48 89 51 08          	mov    %rdx,0x8(%rcx)
    22ea:	48 8b 45 38          	mov    0x38(%rbp),%rax
    22ee:	48 89 41 10          	mov    %rax,0x10(%rcx)
    22f2:	e8 de f1 ff ff       	call   14d5 <to_int>
    22f7:	48 83 c4 20          	add    $0x20,%rsp
    22fb:	41 39 c4             	cmp    %eax,%r12d
    22fe:	0f 9e c2             	setle  %dl
    2301:	48 8b 45 c8          	mov    -0x38(%rbp),%rax
    2305:	c7 00 02 00 00 00    	movl   $0x2,(%rax)
    230b:	48 8b 45 c8          	mov    -0x38(%rbp),%rax
    230f:	48 89 58 08          	mov    %rbx,0x8(%rax)
    2313:	48 8b 45 c8          	mov    -0x38(%rbp),%rax
    2317:	88 50 10             	mov    %dl,0x10(%rax)
    231a:	e9 62 08 00 00       	jmp    2b81 <operate+0x164d>
    231f:	48 83 ec 08          	sub    $0x8,%rsp
    2323:	48 83 ec 18          	sub    $0x18,%rsp
    2327:	48 89 e1             	mov    %rsp,%rcx
    232a:	48 8b 45 10          	mov    0x10(%rbp),%rax
    232e:	48 8b 55 18          	mov    0x18(%rbp),%rdx
    2332:	48 89 01             	mov    %rax,(%rcx)
    2335:	48 89 51 08          	mov    %rdx,0x8(%rcx)
    2339:	48 8b 45 20          	mov    0x20(%rbp),%rax
    233d:	48 89 41 10          	mov    %rax,0x10(%rcx)
    2341:	e8 df f1 ff ff       	call   1525 <is_float>
    2346:	48 83 c4 20          	add    $0x20,%rsp
    234a:	84 c0                	test   %al,%al
    234c:	75 33                	jne    2381 <operate+0xe4d>
    234e:	48 83 ec 08          	sub    $0x8,%rsp
    2352:	48 83 ec 18          	sub    $0x18,%rsp
    2356:	48 89 e1             	mov    %rsp,%rcx
    2359:	48 8b 45 28          	mov    0x28(%rbp),%rax
    235d:	48 8b 55 30          	mov    0x30(%rbp),%rdx
    2361:	48 89 01             	mov    %rax,(%rcx)
    2364:	48 89 51 08          	mov    %rdx,0x8(%rcx)
    2368:	48 8b 45 38          	mov    0x38(%rbp),%rax
    236c:	48 89 41 10          	mov    %rax,0x10(%rcx)
    2370:	e8 b0 f1 ff ff       	call   1525 <is_float>
    2375:	48 83 c4 20          	add    $0x20,%rsp
    2379:	84 c0                	test   %al,%al
    237b:	0f 84 8d 00 00 00    	je     240e <operate+0xeda>
    2381:	e8 53 ef ff ff       	call   12d9 <e_refc_init>
    2386:	48 89 c3             	mov    %rax,%rbx
    2389:	48 83 ec 08          	sub    $0x8,%rsp
    238d:	48 83 ec 18          	sub    $0x18,%rsp
    2391:	48 89 e1             	mov    %rsp,%rcx
    2394:	48 8b 45 10          	mov    0x10(%rbp),%rax
    2398:	48 8b 55 18          	mov    0x18(%rbp),%rdx
    239c:	48 89 01             	mov    %rax,(%rcx)
    239f:	48 89 51 08          	mov    %rdx,0x8(%rcx)
    23a3:	48 8b 45 20          	mov    0x20(%rbp),%rax
    23a7:	48 89 41 10          	mov    %rax,0x10(%rcx)
    23ab:	e8 c2 f0 ff ff       	call   1472 <to_float>
    23b0:	48 83 c4 20          	add    $0x20,%rsp
    23b4:	66 49 0f 7e c4       	movq   %xmm0,%r12
    23b9:	48 83 ec 08          	sub    $0x8,%rsp
    23bd:	48 83 ec 18          	sub    $0x18,%rsp
    23c1:	48 89 e1             	mov    %rsp,%rcx
    23c4:	48 8b 45 28          	mov    0x28(%rbp),%rax
    23c8:	48 8b 55 30          	mov    0x30(%rbp),%rdx
    23cc:	48 89 01             	mov    %rax,(%rcx)
    23cf:	48 89 51 08          	mov    %rdx,0x8(%rcx)
    23d3:	48 8b 45 38          	mov    0x38(%rbp),%rax
    23d7:	48 89 41 10          	mov    %rax,0x10(%rcx)
    23db:	e8 92 f0 ff ff       	call   1472 <to_float>
    23e0:	48 83 c4 20          	add    $0x20,%rsp
    23e4:	66 49 0f 6e f4       	movq   %r12,%xmm6
    23e9:	66 0f 2f f0          	comisd %xmm0,%xmm6
    23ed:	0f 97 c2             	seta   %dl
    23f0:	48 8b 45 c8          	mov    -0x38(%rbp),%rax
    23f4:	c7 00 02 00 00 00    	movl   $0x2,(%rax)
    23fa:	48 8b 45 c8          	mov    -0x38(%rbp),%rax
    23fe:	48 89 58 08          	mov    %rbx,0x8(%rax)
    2402:	48 8b 45 c8          	mov    -0x38(%rbp),%rax
    2406:	88 50 10             	mov    %dl,0x10(%rax)
    2409:	e9 73 07 00 00       	jmp    2b81 <operate+0x164d>
    240e:	e8 c6 ee ff ff       	call   12d9 <e_refc_init>
    2413:	48 89 c3             	mov    %rax,%rbx
    2416:	48 83 ec 08          	sub    $0x8,%rsp
    241a:	48 83 ec 18          	sub    $0x18,%rsp
    241e:	48 89 e1             	mov    %rsp,%rcx
    2421:	48 8b 45 10          	mov    0x10(%rbp),%rax
    2425:	48 8b 55 18          	mov    0x18(%rbp),%rdx
    2429:	48 89 01             	mov    %rax,(%rcx)
    242c:	48 89 51 08          	mov    %rdx,0x8(%rcx)
    2430:	48 8b 45 20          	mov    0x20(%rbp),%rax
    2434:	48 89 41 10          	mov    %rax,0x10(%rcx)
    2438:	e8 98 f0 ff ff       	call   14d5 <to_int>
    243d:	48 83 c4 20          	add    $0x20,%rsp
    2441:	41 89 c4             	mov    %eax,%r12d
    2444:	48 83 ec 08          	sub    $0x8,%rsp
    2448:	48 83 ec 18          	sub    $0x18,%rsp
    244c:	48 89 e1             	mov    %rsp,%rcx
    244f:	48 8b 45 28          	mov    0x28(%rbp),%rax
    2453:	48 8b 55 30          	mov    0x30(%rbp),%rdx
    2457:	48 89 01             	mov    %rax,(%rcx)
    245a:	48 89 51 08          	mov    %rdx,0x8(%rcx)
    245e:	48 8b 45 38          	mov    0x38(%rbp),%rax
    2462:	48 89 41 10          	mov    %rax,0x10(%rcx)
    2466:	e8 6a f0 ff ff       	call   14d5 <to_int>
    246b:	48 83 c4 20          	add    $0x20,%rsp
    246f:	41 39 c4             	cmp    %eax,%r12d
    2472:	0f 9f c2             	setg   %dl
    2475:	48 8b 45 c8          	mov    -0x38(%rbp),%rax
    2479:	c7 00 02 00 00 00    	movl   $0x2,(%rax)
    247f:	48 8b 45 c8          	mov    -0x38(%rbp),%rax
    2483:	48 89 58 08          	mov    %rbx,0x8(%rax)
    2487:	48 8b 45 c8          	mov    -0x38(%rbp),%rax
    248b:	88 50 10             	mov    %dl,0x10(%rax)
    248e:	e9 ee 06 00 00       	jmp    2b81 <operate+0x164d>
    2493:	48 83 ec 08          	sub    $0x8,%rsp
    2497:	48 83 ec 18          	sub    $0x18,%rsp
    249b:	48 89 e1             	mov    %rsp,%rcx
    249e:	48 8b 45 10          	mov    0x10(%rbp),%rax
    24a2:	48 8b 55 18          	mov    0x18(%rbp),%rdx
    24a6:	48 89 01             	mov    %rax,(%rcx)
    24a9:	48 89 51 08          	mov    %rdx,0x8(%rcx)
    24ad:	48 8b 45 20          	mov    0x20(%rbp),%rax
    24b1:	48 89 41 10          	mov    %rax,0x10(%rcx)
    24b5:	e8 6b f0 ff ff       	call   1525 <is_float>
    24ba:	48 83 c4 20          	add    $0x20,%rsp
    24be:	84 c0                	test   %al,%al
    24c0:	75 33                	jne    24f5 <operate+0xfc1>
    24c2:	48 83 ec 08          	sub    $0x8,%rsp
    24c6:	48 83 ec 18          	sub    $0x18,%rsp
    24ca:	48 89 e1             	mov    %rsp,%rcx
    24cd:	48 8b 45 28          	mov    0x28(%rbp),%rax
    24d1:	48 8b 55 30          	mov    0x30(%rbp),%rdx
    24d5:	48 89 01             	mov    %rax,(%rcx)
    24d8:	48 89 51 08          	mov    %rdx,0x8(%rcx)
    24dc:	48 8b 45 38          	mov    0x38(%rbp),%rax
    24e0:	48 89 41 10          	mov    %rax,0x10(%rcx)
    24e4:	e8 3c f0 ff ff       	call   1525 <is_float>
    24e9:	48 83 c4 20          	add    $0x20,%rsp
    24ed:	84 c0                	test   %al,%al
    24ef:	0f 84 8d 00 00 00    	je     2582 <operate+0x104e>
    24f5:	e8 df ed ff ff       	call   12d9 <e_refc_init>
    24fa:	48 89 c3             	mov    %rax,%rbx
    24fd:	48 83 ec 08          	sub    $0x8,%rsp
    2501:	48 83 ec 18          	sub    $0x18,%rsp
    2505:	48 89 e1             	mov    %rsp,%rcx
    2508:	48 8b 45 10          	mov    0x10(%rbp),%rax
    250c:	48 8b 55 18          	mov    0x18(%rbp),%rdx
    2510:	48 89 01             	mov    %rax,(%rcx)
    2513:	48 89 51 08          	mov    %rdx,0x8(%rcx)
    2517:	48 8b 45 20          	mov    0x20(%rbp),%rax
    251b:	48 89 41 10          	mov    %rax,0x10(%rcx)
    251f:	e8 4e ef ff ff       	call   1472 <to_float>
    2524:	48 83 c4 20          	add    $0x20,%rsp
    2528:	66 49 0f 7e c4       	movq   %xmm0,%r12
    252d:	48 83 ec 08          	sub    $0x8,%rsp
    2531:	48 83 ec 18          	sub    $0x18,%rsp
    2535:	48 89 e1             	mov    %rsp,%rcx
    2538:	48 8b 45 28          	mov    0x28(%rbp),%rax
    253c:	48 8b 55 30          	mov    0x30(%rbp),%rdx
    2540:	48 89 01             	mov    %rax,(%rcx)
    2543:	48 89 51 08          	mov    %rdx,0x8(%rcx)
    2547:	48 8b 45 38          	mov    0x38(%rbp),%rax
    254b:	48 89 41 10          	mov    %rax,0x10(%rcx)
    254f:	e8 1e ef ff ff       	call   1472 <to_float>
    2554:	48 83 c4 20          	add    $0x20,%rsp
    2558:	66 49 0f 6e fc       	movq   %r12,%xmm7
    255d:	66 0f 2f f8          	comisd %xmm0,%xmm7
    2561:	0f 93 c2             	setae  %dl
    2564:	48 8b 45 c8          	mov    -0x38(%rbp),%rax
    2568:	c7 00 02 00 00 00    	movl   $0x2,(%rax)
    256e:	48 8b 45 c8          	mov    -0x38(%rbp),%rax
    2572:	48 89 58 08          	mov    %rbx,0x8(%rax)
    2576:	48 8b 45 c8          	mov    -0x38(%rbp),%rax
    257a:	88 50 10             	mov    %dl,0x10(%rax)
    257d:	e9 ff 05 00 00       	jmp    2b81 <operate+0x164d>
    2582:	e8 52 ed ff ff       	call   12d9 <e_refc_init>
    2587:	48 89 c3             	mov    %rax,%rbx
    258a:	48 83 ec 08          	sub    $0x8,%rsp
    258e:	48 83 ec 18          	sub    $0x18,%rsp
    2592:	48 89 e1             	mov    %rsp,%rcx
    2595:	48 8b 45 10          	mov    0x10(%rbp),%rax
    2599:	48 8b 55 18          	mov    0x18(%rbp),%rdx
    259d:	48 89 01             	mov    %rax,(%rcx)
    25a0:	48 89 51 08          	mov    %rdx,0x8(%rcx)
    25a4:	48 8b 45 20          	mov    0x20(%rbp),%rax
    25a8:	48 89 41 10          	mov    %rax,0x10(%rcx)
    25ac:	e8 24 ef ff ff       	call   14d5 <to_int>
    25b1:	48 83 c4 20          	add    $0x20,%rsp
    25b5:	41 89 c4             	mov    %eax,%r12d
    25b8:	48 83 ec 08          	sub    $0x8,%rsp
    25bc:	48 83 ec 18          	sub    $0x18,%rsp
    25c0:	48 89 e1             	mov    %rsp,%rcx
    25c3:	48 8b 45 28          	mov    0x28(%rbp),%rax
    25c7:	48 8b 55 30          	mov    0x30(%rbp),%rdx
    25cb:	48 89 01             	mov    %rax,(%rcx)
    25ce:	48 89 51 08          	mov    %rdx,0x8(%rcx)
    25d2:	48 8b 45 38          	mov    0x38(%rbp),%rax
    25d6:	48 89 41 10          	mov    %rax,0x10(%rcx)
    25da:	e8 f6 ee ff ff       	call   14d5 <to_int>
    25df:	48 83 c4 20          	add    $0x20,%rsp
    25e3:	41 39 c4             	cmp    %eax,%r12d
    25e6:	0f 9d c2             	setge  %dl
    25e9:	48 8b 45 c8          	mov    -0x38(%rbp),%rax
    25ed:	c7 00 02 00 00 00    	movl   $0x2,(%rax)
    25f3:	48 8b 45 c8          	mov    -0x38(%rbp),%rax
    25f7:	48 89 58 08          	mov    %rbx,0x8(%rax)
    25fb:	48 8b 45 c8          	mov    -0x38(%rbp),%rax
    25ff:	88 50 10             	mov    %dl,0x10(%rax)
    2602:	e9 7a 05 00 00       	jmp    2b81 <operate+0x164d>
    2607:	48 83 ec 08          	sub    $0x8,%rsp
    260b:	48 83 ec 18          	sub    $0x18,%rsp
    260f:	48 89 e1             	mov    %rsp,%rcx
    2612:	48 8b 45 10          	mov    0x10(%rbp),%rax
    2616:	48 8b 55 18          	mov    0x18(%rbp),%rdx
    261a:	48 89 01             	mov    %rax,(%rcx)
    261d:	48 89 51 08          	mov    %rdx,0x8(%rcx)
    2621:	48 8b 45 20          	mov    0x20(%rbp),%rax
    2625:	48 89 41 10          	mov    %rax,0x10(%rcx)
    2629:	e8 f7 ee ff ff       	call   1525 <is_float>
    262e:	48 83 c4 20          	add    $0x20,%rsp
    2632:	84 c0                	test   %al,%al
    2634:	75 33                	jne    2669 <operate+0x1135>
    2636:	48 83 ec 08          	sub    $0x8,%rsp
    263a:	48 83 ec 18          	sub    $0x18,%rsp
    263e:	48 89 e1             	mov    %rsp,%rcx
    2641:	48 8b 45 28          	mov    0x28(%rbp),%rax
    2645:	48 8b 55 30          	mov    0x30(%rbp),%rdx
    2649:	48 89 01             	mov    %rax,(%rcx)
    264c:	48 89 51 08          	mov    %rdx,0x8(%rcx)
    2650:	48 8b 45 38          	mov    0x38(%rbp),%rax
    2654:	48 89 41 10          	mov    %rax,0x10(%rcx)
    2658:	e8 c8 ee ff ff       	call   1525 <is_float>
    265d:	48 83 c4 20          	add    $0x20,%rsp
    2661:	84 c0                	test   %al,%al
    2663:	0f 84 d1 00 00 00    	je     273a <operate+0x1206>
    2669:	e8 6b ec ff ff       	call   12d9 <e_refc_init>
    266e:	48 89 c3             	mov    %rax,%rbx
    2671:	48 83 ec 08          	sub    $0x8,%rsp
    2675:	48 83 ec 18          	sub    $0x18,%rsp
    2679:	48 89 e1             	mov    %rsp,%rcx
    267c:	48 8b 45 10          	mov    0x10(%rbp),%rax
    2680:	48 8b 55 18          	mov    0x18(%rbp),%rdx
    2684:	48 89 01             	mov    %rax,(%rcx)
    2687:	48 89 51 08          	mov    %rdx,0x8(%rcx)
    268b:	48 8b 45 20          	mov    0x20(%rbp),%rax
    268f:	48 89 41 10          	mov    %rax,0x10(%rcx)
    2693:	e8 da ed ff ff       	call   1472 <to_float>
    2698:	48 83 c4 20          	add    $0x20,%rsp
    269c:	66 48 0f 7e c0       	movq   %xmm0,%rax
    26a1:	66 0f ef c0          	pxor   %xmm0,%xmm0
    26a5:	66 48 0f 6e c8       	movq   %rax,%xmm1
    26aa:	66 0f 2e c8          	ucomisd %xmm0,%xmm1
    26ae:	7a 0f                	jp     26bf <operate+0x118b>
    26b0:	66 0f ef c0          	pxor   %xmm0,%xmm0
    26b4:	66 48 0f 6e d0       	movq   %rax,%xmm2
    26b9:	66 0f 2e d0          	ucomisd %xmm0,%xmm2
    26bd:	74 55                	je     2714 <operate+0x11e0>
    26bf:	48 83 ec 08          	sub    $0x8,%rsp
    26c3:	48 83 ec 18          	sub    $0x18,%rsp
    26c7:	48 89 e1             	mov    %rsp,%rcx
    26ca:	48 8b 45 28          	mov    0x28(%rbp),%rax
    26ce:	48 8b 55 30          	mov    0x30(%rbp),%rdx
    26d2:	48 89 01             	mov    %rax,(%rcx)
    26d5:	48 89 51 08          	mov    %rdx,0x8(%rcx)
    26d9:	48 8b 45 38          	mov    0x38(%rbp),%rax
    26dd:	48 89 41 10          	mov    %rax,0x10(%rcx)
    26e1:	e8 8c ed ff ff       	call   1472 <to_float>
    26e6:	48 83 c4 20          	add    $0x20,%rsp
    26ea:	66 48 0f 7e c0       	movq   %xmm0,%rax
    26ef:	66 0f ef c0          	pxor   %xmm0,%xmm0
    26f3:	66 48 0f 6e d8       	movq   %rax,%xmm3
    26f8:	66 0f 2e d8          	ucomisd %xmm0,%xmm3
    26fc:	7a 0f                	jp     270d <operate+0x11d9>
    26fe:	66 0f ef c0          	pxor   %xmm0,%xmm0
    2702:	66 48 0f 6e e0       	movq   %rax,%xmm4
    2707:	66 0f 2e e0          	ucomisd %xmm0,%xmm4
    270b:	74 07                	je     2714 <operate+0x11e0>
    270d:	b8 01 00 00 00       	mov    $0x1,%eax
    2712:	eb 05                	jmp    2719 <operate+0x11e5>
    2714:	b8 00 00 00 00       	mov    $0x0,%eax
    2719:	83 e0 01             	and    $0x1,%eax
    271c:	48 8b 55 c8          	mov    -0x38(%rbp),%rdx
    2720:	c7 02 02 00 00 00    	movl   $0x2,(%rdx)
    2726:	48 8b 55 c8          	mov    -0x38(%rbp),%rdx
    272a:	48 89 5a 08          	mov    %rbx,0x8(%rdx)
    272e:	48 8b 55 c8          	mov    -0x38(%rbp),%rdx
    2732:	88 42 10             	mov    %al,0x10(%rdx)
    2735:	e9 47 04 00 00       	jmp    2b81 <operate+0x164d>
    273a:	e8 9a eb ff ff       	call   12d9 <e_refc_init>
    273f:	48 89 c3             	mov    %rax,%rbx
    2742:	48 83 ec 08          	sub    $0x8,%rsp
    2746:	48 83 ec 18          	sub    $0x18,%rsp
    274a:	48 89 e1             	mov    %rsp,%rcx
    274d:	48 8b 45 10          	mov    0x10(%rbp),%rax
    2751:	48 8b 55 18          	mov    0x18(%rbp),%rdx
    2755:	48 89 01             	mov    %rax,(%rcx)
    2758:	48 89 51 08          	mov    %rdx,0x8(%rcx)
    275c:	48 8b 45 20          	mov    0x20(%rbp),%rax
    2760:	48 89 41 10          	mov    %rax,0x10(%rcx)
    2764:	e8 6c ed ff ff       	call   14d5 <to_int>
    2769:	48 83 c4 20          	add    $0x20,%rsp
    276d:	85 c0                	test   %eax,%eax
    276f:	74 36                	je     27a7 <operate+0x1273>
    2771:	48 83 ec 08          	sub    $0x8,%rsp
    2775:	48 83 ec 18          	sub    $0x18,%rsp
    2779:	48 89 e1             	mov    %rsp,%rcx
    277c:	48 8b 45 28          	mov    0x28(%rbp),%rax
    2780:	48 8b 55 30          	mov    0x30(%rbp),%rdx
    2784:	48 89 01             	mov    %rax,(%rcx)
    2787:	48 89 51 08          	mov    %rdx,0x8(%rcx)
    278b:	48 8b 45 38          	mov    0x38(%rbp),%rax
    278f:	48 89 41 10          	mov    %rax,0x10(%rcx)
    2793:	e8 3d ed ff ff       	call   14d5 <to_int>
    2798:	48 83 c4 20          	add    $0x20,%rsp
    279c:	85 c0                	test   %eax,%eax
    279e:	74 07                	je     27a7 <operate+0x1273>
    27a0:	b8 01 00 00 00       	mov    $0x1,%eax
    27a5:	eb 05                	jmp    27ac <operate+0x1278>
    27a7:	b8 00 00 00 00       	mov    $0x0,%eax
    27ac:	83 e0 01             	and    $0x1,%eax
    27af:	48 8b 55 c8          	mov    -0x38(%rbp),%rdx
    27b3:	c7 02 02 00 00 00    	movl   $0x2,(%rdx)
    27b9:	48 8b 55 c8          	mov    -0x38(%rbp),%rdx
    27bd:	48 89 5a 08          	mov    %rbx,0x8(%rdx)
    27c1:	48 8b 55 c8          	mov    -0x38(%rbp),%rdx
    27c5:	88 42 10             	mov    %al,0x10(%rdx)
    27c8:	e9 b4 03 00 00       	jmp    2b81 <operate+0x164d>
    27cd:	48 83 ec 08          	sub    $0x8,%rsp
    27d1:	48 83 ec 18          	sub    $0x18,%rsp
    27d5:	48 89 e1             	mov    %rsp,%rcx
    27d8:	48 8b 45 10          	mov    0x10(%rbp),%rax
    27dc:	48 8b 55 18          	mov    0x18(%rbp),%rdx
    27e0:	48 89 01             	mov    %rax,(%rcx)
    27e3:	48 89 51 08          	mov    %rdx,0x8(%rcx)
    27e7:	48 8b 45 20          	mov    0x20(%rbp),%rax
    27eb:	48 89 41 10          	mov    %rax,0x10(%rcx)
    27ef:	e8 31 ed ff ff       	call   1525 <is_float>
    27f4:	48 83 c4 20          	add    $0x20,%rsp
    27f8:	84 c0                	test   %al,%al
    27fa:	75 33                	jne    282f <operate+0x12fb>
    27fc:	48 83 ec 08          	sub    $0x8,%rsp
    2800:	48 83 ec 18          	sub    $0x18,%rsp
    2804:	48 89 e1             	mov    %rsp,%rcx
    2807:	48 8b 45 28          	mov    0x28(%rbp),%rax
    280b:	48 8b 55 30          	mov    0x30(%rbp),%rdx
    280f:	48 89 01             	mov    %rax,(%rcx)
    2812:	48 89 51 08          	mov    %rdx,0x8(%rcx)
    2816:	48 8b 45 38          	mov    0x38(%rbp),%rax
    281a:	48 89 41 10          	mov    %rax,0x10(%rcx)
    281e:	e8 02 ed ff ff       	call   1525 <is_float>
    2823:	48 83 c4 20          	add    $0x20,%rsp
    2827:	84 c0                	test   %al,%al
    2829:	0f 84 d1 00 00 00    	je     2900 <operate+0x13cc>
    282f:	e8 a5 ea ff ff       	call   12d9 <e_refc_init>
    2834:	48 89 c3             	mov    %rax,%rbx
    2837:	48 83 ec 08          	sub    $0x8,%rsp
    283b:	48 83 ec 18          	sub    $0x18,%rsp
    283f:	48 89 e1             	mov    %rsp,%rcx
    2842:	48 8b 45 10          	mov    0x10(%rbp),%rax
    2846:	48 8b 55 18          	mov    0x18(%rbp),%rdx
    284a:	48 89 01             	mov    %rax,(%rcx)
    284d:	48 89 51 08          	mov    %rdx,0x8(%rcx)
    2851:	48 8b 45 20          	mov    0x20(%rbp),%rax
    2855:	48 89 41 10          	mov    %rax,0x10(%rcx)
    2859:	e8 14 ec ff ff       	call   1472 <to_float>
    285e:	48 83 c4 20          	add    $0x20,%rsp
    2862:	66 48 0f 7e c0       	movq   %xmm0,%rax
    2867:	66 0f ef c0          	pxor   %xmm0,%xmm0
    286b:	66 48 0f 6e e8       	movq   %rax,%xmm5
    2870:	66 0f 2e e8          	ucomisd %xmm0,%xmm5
    2874:	7a 5d                	jp     28d3 <operate+0x139f>
    2876:	66 0f ef c0          	pxor   %xmm0,%xmm0
    287a:	66 48 0f 6e f0       	movq   %rax,%xmm6
    287f:	66 0f 2e f0          	ucomisd %xmm0,%xmm6
    2883:	75 4e                	jne    28d3 <operate+0x139f>
    2885:	48 83 ec 08          	sub    $0x8,%rsp
    2889:	48 83 ec 18          	sub    $0x18,%rsp
    288d:	48 89 e1             	mov    %rsp,%rcx
    2890:	48 8b 45 28          	mov    0x28(%rbp),%rax
    2894:	48 8b 55 30          	mov    0x30(%rbp),%rdx
    2898:	48 89 01             	mov    %rax,(%rcx)
    289b:	48 89 51 08          	mov    %rdx,0x8(%rcx)
    289f:	48 8b 45 38          	mov    0x38(%rbp),%rax
    28a3:	48 89 41 10          	mov    %rax,0x10(%rcx)
    28a7:	e8 c6 eb ff ff       	call   1472 <to_float>
    28ac:	48 83 c4 20          	add    $0x20,%rsp
    28b0:	66 48 0f 7e c0       	movq   %xmm0,%rax
    28b5:	66 0f ef c0          	pxor   %xmm0,%xmm0
    28b9:	66 48 0f 6e f8       	movq   %rax,%xmm7
    28be:	66 0f 2e f8          	ucomisd %xmm0,%xmm7
    28c2:	7a 0f                	jp     28d3 <operate+0x139f>
    28c4:	66 0f ef c0          	pxor   %xmm0,%xmm0
    28c8:	66 48 0f 6e c8       	movq   %rax,%xmm1
    28cd:	66 0f 2e c8          	ucomisd %xmm0,%xmm1
    28d1:	74 07                	je     28da <operate+0x13a6>
    28d3:	b8 01 00 00 00       	mov    $0x1,%eax
    28d8:	eb 05                	jmp    28df <operate+0x13ab>
    28da:	b8 00 00 00 00       	mov    $0x0,%eax
    28df:	83 e0 01             	and    $0x1,%eax
    28e2:	48 8b 55 c8          	mov    -0x38(%rbp),%rdx
    28e6:	c7 02 02 00 00 00    	movl   $0x2,(%rdx)
    28ec:	48 8b 55 c8          	mov    -0x38(%rbp),%rdx
    28f0:	48 89 5a 08          	mov    %rbx,0x8(%rdx)
    28f4:	48 8b 55 c8          	mov    -0x38(%rbp),%rdx
    28f8:	88 42 10             	mov    %al,0x10(%rdx)
    28fb:	e9 81 02 00 00       	jmp    2b81 <operate+0x164d>
    2900:	e8 d4 e9 ff ff       	call   12d9 <e_refc_init>
    2905:	48 89 c3             	mov    %rax,%rbx
    2908:	48 83 ec 08          	sub    $0x8,%rsp
    290c:	48 83 ec 18          	sub    $0x18,%rsp
    2910:	48 89 e1             	mov    %rsp,%rcx
    2913:	48 8b 45 10          	mov    0x10(%rbp),%rax
    2917:	48 8b 55 18          	mov    0x18(%rbp),%rdx
    291b:	48 89 01             	mov    %rax,(%rcx)
    291e:	48 89 51 08          	mov    %rdx,0x8(%rcx)
    2922:	48 8b 45 20          	mov    0x20(%rbp),%rax
    2926:	48 89 41 10          	mov    %rax,0x10(%rcx)
    292a:	e8 a6 eb ff ff       	call   14d5 <to_int>
    292f:	48 83 c4 20          	add    $0x20,%rsp
    2933:	85 c0                	test   %eax,%eax
    2935:	75 2f                	jne    2966 <operate+0x1432>
    2937:	48 83 ec 08          	sub    $0x8,%rsp
    293b:	48 83 ec 18          	sub    $0x18,%rsp
    293f:	48 89 e1             	mov    %rsp,%rcx
    2942:	48 8b 45 28          	mov    0x28(%rbp),%rax
    2946:	48 8b 55 30          	mov    0x30(%rbp),%rdx
    294a:	48 89 01             	mov    %rax,(%rcx)
    294d:	48 89 51 08          	mov    %rdx,0x8(%rcx)
    2951:	48 8b 45 38          	mov    0x38(%rbp),%rax
    2955:	48 89 41 10          	mov    %rax,0x10(%rcx)
    2959:	e8 77 eb ff ff       	call   14d5 <to_int>
    295e:	48 83 c4 20          	add    $0x20,%rsp
    2962:	85 c0                	test   %eax,%eax
    2964:	74 07                	je     296d <operate+0x1439>
    2966:	b8 01 00 00 00       	mov    $0x1,%eax
    296b:	eb 05                	jmp    2972 <operate+0x143e>
    296d:	b8 00 00 00 00       	mov    $0x0,%eax
    2972:	83 e0 01             	and    $0x1,%eax
    2975:	48 8b 55 c8          	mov    -0x38(%rbp),%rdx
    2979:	c7 02 02 00 00 00    	movl   $0x2,(%rdx)
    297f:	48 8b 55 c8          	mov    -0x38(%rbp),%rdx
    2983:	48 89 5a 08          	mov    %rbx,0x8(%rdx)
    2987:	48 8b 55 c8          	mov    -0x38(%rbp),%rdx
    298b:	88 42 10             	mov    %al,0x10(%rdx)
    298e:	e9 ee 01 00 00       	jmp    2b81 <operate+0x164d>
    2993:	e8 41 e9 ff ff       	call   12d9 <e_refc_init>
    2998:	48 89 c3             	mov    %rax,%rbx
    299b:	48 83 ec 08          	sub    $0x8,%rsp
    299f:	48 83 ec 18          	sub    $0x18,%rsp
    29a3:	48 89 e1             	mov    %rsp,%rcx
    29a6:	48 8b 45 28          	mov    0x28(%rbp),%rax
    29aa:	48 8b 55 30          	mov    0x30(%rbp),%rdx
    29ae:	48 89 01             	mov    %rax,(%rcx)
    29b1:	48 89 51 08          	mov    %rdx,0x8(%rcx)
    29b5:	48 8b 45 38          	mov    0x38(%rbp),%rax
    29b9:	48 89 41 10          	mov    %rax,0x10(%rcx)
    29bd:	e8 13 eb ff ff       	call   14d5 <to_int>
    29c2:	48 83 c4 20          	add    $0x20,%rsp
    29c6:	f7 d0                	not    %eax
    29c8:	89 c2                	mov    %eax,%edx
    29ca:	48 8b 45 c8          	mov    -0x38(%rbp),%rax
    29ce:	c7 00 01 00 00 00    	movl   $0x1,(%rax)
    29d4:	48 8b 45 c8          	mov    -0x38(%rbp),%rax
    29d8:	48 89 58 08          	mov    %rbx,0x8(%rax)
    29dc:	48 8b 45 c8          	mov    -0x38(%rbp),%rax
    29e0:	89 50 10             	mov    %edx,0x10(%rax)
    29e3:	e9 99 01 00 00       	jmp    2b81 <operate+0x164d>
    29e8:	e8 ec e8 ff ff       	call   12d9 <e_refc_init>
    29ed:	48 89 c3             	mov    %rax,%rbx
    29f0:	48 83 ec 08          	sub    $0x8,%rsp
    29f4:	48 83 ec 18          	sub    $0x18,%rsp
    29f8:	48 89 e1             	mov    %rsp,%rcx
    29fb:	48 8b 45 10          	mov    0x10(%rbp),%rax
    29ff:	48 8b 55 18          	mov    0x18(%rbp),%rdx
    2a03:	48 89 01             	mov    %rax,(%rcx)
    2a06:	48 89 51 08          	mov    %rdx,0x8(%rcx)
    2a0a:	48 8b 45 20          	mov    0x20(%rbp),%rax
    2a0e:	48 89 41 10          	mov    %rax,0x10(%rcx)
    2a12:	e8 be ea ff ff       	call   14d5 <to_int>
    2a17:	48 83 c4 20          	add    $0x20,%rsp
    2a1b:	41 89 c4             	mov    %eax,%r12d
    2a1e:	48 83 ec 08          	sub    $0x8,%rsp
    2a22:	48 83 ec 18          	sub    $0x18,%rsp
    2a26:	48 89 e1             	mov    %rsp,%rcx
    2a29:	48 8b 45 28          	mov    0x28(%rbp),%rax
    2a2d:	48 8b 55 30          	mov    0x30(%rbp),%rdx
    2a31:	48 89 01             	mov    %rax,(%rcx)
    2a34:	48 89 51 08          	mov    %rdx,0x8(%rcx)
    2a38:	48 8b 45 38          	mov    0x38(%rbp),%rax
    2a3c:	48 89 41 10          	mov    %rax,0x10(%rcx)
    2a40:	e8 90 ea ff ff       	call   14d5 <to_int>
    2a45:	48 83 c4 20          	add    $0x20,%rsp
    2a49:	44 89 e2             	mov    %r12d,%edx
    2a4c:	21 c2                	and    %eax,%edx
    2a4e:	48 8b 45 c8          	mov    -0x38(%rbp),%rax
    2a52:	c7 00 01 00 00 00    	movl   $0x1,(%rax)
    2a58:	48 8b 45 c8          	mov    -0x38(%rbp),%rax
    2a5c:	48 89 58 08          	mov    %rbx,0x8(%rax)
    2a60:	48 8b 45 c8          	mov    -0x38(%rbp),%rax
    2a64:	89 50 10             	mov    %edx,0x10(%rax)
    2a67:	e9 15 01 00 00       	jmp    2b81 <operate+0x164d>
    2a6c:	e8 68 e8 ff ff       	call   12d9 <e_refc_init>
    2a71:	48 89 c3             	mov    %rax,%rbx
    2a74:	48 83 ec 08          	sub    $0x8,%rsp
    2a78:	48 83 ec 18          	sub    $0x18,%rsp
    2a7c:	48 89 e1             	mov    %rsp,%rcx
    2a7f:	48 8b 45 10          	mov    0x10(%rbp),%rax
    2a83:	48 8b 55 18          	mov    0x18(%rbp),%rdx
    2a87:	48 89 01             	mov    %rax,(%rcx)
    2a8a:	48 89 51 08          	mov    %rdx,0x8(%rcx)
    2a8e:	48 8b 45 20          	mov    0x20(%rbp),%rax
    2a92:	48 89 41 10          	mov    %rax,0x10(%rcx)
    2a96:	e8 3a ea ff ff       	call   14d5 <to_int>
    2a9b:	48 83 c4 20          	add    $0x20,%rsp
    2a9f:	41 89 c4             	mov    %eax,%r12d
    2aa2:	48 83 ec 08          	sub    $0x8,%rsp
    2aa6:	48 83 ec 18          	sub    $0x18,%rsp
    2aaa:	48 89 e1             	mov    %rsp,%rcx
    2aad:	48 8b 45 28          	mov    0x28(%rbp),%rax
    2ab1:	48 8b 55 30          	mov    0x30(%rbp),%rdx
    2ab5:	48 89 01             	mov    %rax,(%rcx)
    2ab8:	48 89 51 08          	mov    %rdx,0x8(%rcx)
    2abc:	48 8b 45 38          	mov    0x38(%rbp),%rax
    2ac0:	48 89 41 10          	mov    %rax,0x10(%rcx)
    2ac4:	e8 0c ea ff ff       	call   14d5 <to_int>
    2ac9:	48 83 c4 20          	add    $0x20,%rsp
    2acd:	44 89 e2             	mov    %r12d,%edx
    2ad0:	09 c2                	or     %eax,%edx
    2ad2:	48 8b 45 c8          	mov    -0x38(%rbp),%rax
    2ad6:	c7 00 01 00 00 00    	movl   $0x1,(%rax)
    2adc:	48 8b 45 c8          	mov    -0x38(%rbp),%rax
    2ae0:	48 89 58 08          	mov    %rbx,0x8(%rax)
    2ae4:	48 8b 45 c8          	mov    -0x38(%rbp),%rax
    2ae8:	89 50 10             	mov    %edx,0x10(%rax)
    2aeb:	e9 91 00 00 00       	jmp    2b81 <operate+0x164d>
    2af0:	e8 e4 e7 ff ff       	call   12d9 <e_refc_init>
    2af5:	48 89 c3             	mov    %rax,%rbx
    2af8:	48 83 ec 08          	sub    $0x8,%rsp
    2afc:	48 83 ec 18          	sub    $0x18,%rsp
    2b00:	48 89 e1             	mov    %rsp,%rcx
    2b03:	48 8b 45 10          	mov    0x10(%rbp),%rax
    2b07:	48 8b 55 18          	mov    0x18(%rbp),%rdx
    2b0b:	48 89 01             	mov    %rax,(%rcx)
    2b0e:	48 89 51 08          	mov    %rdx,0x8(%rcx)
    2b12:	48 8b 45 20          	mov    0x20(%rbp),%rax
    2b16:	48 89 41 10          	mov    %rax,0x10(%rcx)
    2b1a:	e8 b6 e9 ff ff       	call   14d5 <to_int>
    2b1f:	48 83 c4 20          	add    $0x20,%rsp
    2b23:	41 89 c4             	mov    %eax,%r12d
    2b26:	48 83 ec 08          	sub    $0x8,%rsp
    2b2a:	48 83 ec 18          	sub    $0x18,%rsp
    2b2e:	48 89 e1             	mov    %rsp,%rcx
    2b31:	48 8b 45 28          	mov    0x28(%rbp),%rax
    2b35:	48 8b 55 30          	mov    0x30(%rbp),%rdx
    2b39:	48 89 01             	mov    %rax,(%rcx)
    2b3c:	48 89 51 08          	mov    %rdx,0x8(%rcx)
    2b40:	48 8b 45 38          	mov    0x38(%rbp),%rax
    2b44:	48 89 41 10          	mov    %rax,0x10(%rcx)
    2b48:	e8 88 e9 ff ff       	call   14d5 <to_int>
    2b4d:	48 83 c4 20          	add    $0x20,%rsp
    2b51:	44 89 e2             	mov    %r12d,%edx
    2b54:	31 c2                	xor    %eax,%edx
    2b56:	48 8b 45 c8          	mov    -0x38(%rbp),%rax
    2b5a:	c7 00 01 00 00 00    	movl   $0x1,(%rax)
    2b60:	48 8b 45 c8          	mov    -0x38(%rbp),%rax
    2b64:	48 89 58 08          	mov    %rbx,0x8(%rax)
    2b68:	48 8b 45 c8          	mov    -0x38(%rbp),%rax
    2b6c:	89 50 10             	mov    %edx,0x10(%rax)
    2b6f:	eb 10                	jmp    2b81 <operate+0x164d>
    2b71:	48 8b 45 c8          	mov    -0x38(%rbp),%rax
    2b75:	66 0f ef c0          	pxor   %xmm0,%xmm0
    2b79:	0f 11 00             	movups %xmm0,(%rax)
    2b7c:	66 0f d6 40 10       	movq   %xmm0,0x10(%rax)
    2b81:	48 8b 45 c8          	mov    -0x38(%rbp),%rax
    2b85:	48 8d 65 f0          	lea    -0x10(%rbp),%rsp
    2b89:	5b                   	pop    %rbx
    2b8a:	41 5c                	pop    %r12
    2b8c:	5d                   	pop    %rbp
    2b8d:	c3                   	ret

0000000000002b8e <stack_init>:
    2b8e:	55                   	push   %rbp
    2b8f:	48 89 e5             	mov    %rsp,%rbp
    2b92:	48 83 ec 20          	sub    $0x20,%rsp
    2b96:	48 89 7d e8          	mov    %rdi,-0x18(%rbp)
    2b9a:	48 c7 45 f8 10 00 00 	movq   $0x10,-0x8(%rbp)
    2ba1:	00 
    2ba2:	48 8b 45 e8          	mov    -0x18(%rbp),%rax
    2ba6:	48 c7 00 00 00 00 00 	movq   $0x0,(%rax)
    2bad:	48 8b 45 e8          	mov    -0x18(%rbp),%rax
    2bb1:	48 8b 55 f8          	mov    -0x8(%rbp),%rdx
    2bb5:	48 89 50 08          	mov    %rdx,0x8(%rax)
    2bb9:	48 8b 55 f8          	mov    -0x8(%rbp),%rdx
    2bbd:	48 89 d0             	mov    %rdx,%rax
    2bc0:	48 01 c0             	add    %rax,%rax
    2bc3:	48 01 d0             	add    %rdx,%rax
    2bc6:	48 c1 e0 03          	shl    $0x3,%rax
    2bca:	48 89 c7             	mov    %rax,%rdi
    2bcd:	e8 6e e5 ff ff       	call   1140 <malloc@plt>
    2bd2:	48 89 c2             	mov    %rax,%rdx
    2bd5:	48 8b 45 e8          	mov    -0x18(%rbp),%rax
    2bd9:	48 89 50 10          	mov    %rdx,0x10(%rax)
    2bdd:	48 8b 45 e8          	mov    -0x18(%rbp),%rax
    2be1:	48 8b 40 10          	mov    0x10(%rax),%rax
    2be5:	48 85 c0             	test   %rax,%rax
    2be8:	75 07                	jne    2bf1 <stack_init+0x63>
    2bea:	b8 ff ff ff ff       	mov    $0xffffffff,%eax
    2bef:	eb 05                	jmp    2bf6 <stack_init+0x68>
    2bf1:	b8 00 00 00 00       	mov    $0x0,%eax
    2bf6:	c9                   	leave
    2bf7:	c3                   	ret

0000000000002bf8 <stack_free>:
    2bf8:	55                   	push   %rbp
    2bf9:	48 89 e5             	mov    %rsp,%rbp
    2bfc:	48 83 ec 10          	sub    $0x10,%rsp
    2c00:	48 89 7d f8          	mov    %rdi,-0x8(%rbp)
    2c04:	48 8b 45 f8          	mov    -0x8(%rbp),%rax
    2c08:	48 8b 40 10          	mov    0x10(%rax),%rax
    2c0c:	48 89 c7             	mov    %rax,%rdi
    2c0f:	e8 1c e4 ff ff       	call   1030 <free@plt>
    2c14:	90                   	nop
    2c15:	c9                   	leave
    2c16:	c3                   	ret

0000000000002c17 <stack_push>:
    2c17:	55                   	push   %rbp
    2c18:	48 89 e5             	mov    %rsp,%rbp
    2c1b:	48 83 ec 20          	sub    $0x20,%rsp
    2c1f:	48 89 7d e8          	mov    %rdi,-0x18(%rbp)
    2c23:	48 8b 45 e8          	mov    -0x18(%rbp),%rax
    2c27:	48 8b 10             	mov    (%rax),%rdx
    2c2a:	48 8b 45 e8          	mov    -0x18(%rbp),%rax
    2c2e:	48 8b 40 08          	mov    0x8(%rax),%rax
    2c32:	48 39 c2             	cmp    %rax,%rdx
    2c35:	72 65                	jb     2c9c <stack_push+0x85>
    2c37:	48 8b 45 e8          	mov    -0x18(%rbp),%rax
    2c3b:	48 8b 40 08          	mov    0x8(%rax),%rax
    2c3f:	48 01 c0             	add    %rax,%rax
    2c42:	ba 01 00 00 00       	mov    $0x1,%edx
    2c47:	48 85 c0             	test   %rax,%rax
    2c4a:	48 0f 44 c2          	cmove  %rdx,%rax
    2c4e:	48 89 45 f0          	mov    %rax,-0x10(%rbp)
    2c52:	48 8b 55 f0          	mov    -0x10(%rbp),%rdx
    2c56:	48 89 d0             	mov    %rdx,%rax
    2c59:	48 01 c0             	add    %rax,%rax
    2c5c:	48 01 d0             	add    %rdx,%rax
    2c5f:	48 c1 e0 03          	shl    $0x3,%rax
    2c63:	48 89 c2             	mov    %rax,%rdx
    2c66:	48 8b 45 e8          	mov    -0x18(%rbp),%rax
    2c6a:	48 8b 40 10          	mov    0x10(%rax),%rax
    2c6e:	48 89 d6             	mov    %rdx,%rsi
    2c71:	48 89 c7             	mov    %rax,%rdi
    2c74:	e8 e7 e4 ff ff       	call   1160 <realloc@plt>
    2c79:	48 89 45 f8          	mov    %rax,-0x8(%rbp)
    2c7d:	48 83 7d f8 00       	cmpq   $0x0,-0x8(%rbp)
    2c82:	74 62                	je     2ce6 <stack_push+0xcf>
    2c84:	48 8b 45 e8          	mov    -0x18(%rbp),%rax
    2c88:	48 8b 55 f8          	mov    -0x8(%rbp),%rdx
    2c8c:	48 89 50 10          	mov    %rdx,0x10(%rax)
    2c90:	48 8b 45 e8          	mov    -0x18(%rbp),%rax
    2c94:	48 8b 55 f0          	mov    -0x10(%rbp),%rdx
    2c98:	48 89 50 08          	mov    %rdx,0x8(%rax)
    2c9c:	48 8b 45 e8          	mov    -0x18(%rbp),%rax
    2ca0:	48 8b 48 10          	mov    0x10(%rax),%rcx
    2ca4:	48 8b 45 e8          	mov    -0x18(%rbp),%rax
    2ca8:	48 8b 10             	mov    (%rax),%rdx
    2cab:	48 89 d0             	mov    %rdx,%rax
    2cae:	48 01 c0             	add    %rax,%rax
    2cb1:	48 01 d0             	add    %rdx,%rax
    2cb4:	48 c1 e0 03          	shl    $0x3,%rax
    2cb8:	48 01 c1             	add    %rax,%rcx
    2cbb:	48 8b 45 10          	mov    0x10(%rbp),%rax
    2cbf:	48 8b 55 18          	mov    0x18(%rbp),%rdx
    2cc3:	48 89 01             	mov    %rax,(%rcx)
    2cc6:	48 89 51 08          	mov    %rdx,0x8(%rcx)
    2cca:	48 8b 45 20          	mov    0x20(%rbp),%rax
    2cce:	48 89 41 10          	mov    %rax,0x10(%rcx)
    2cd2:	48 8b 45 e8          	mov    -0x18(%rbp),%rax
    2cd6:	48 8b 00             	mov    (%rax),%rax
    2cd9:	48 8d 50 01          	lea    0x1(%rax),%rdx
    2cdd:	48 8b 45 e8          	mov    -0x18(%rbp),%rax
    2ce1:	48 89 10             	mov    %rdx,(%rax)
    2ce4:	eb 01                	jmp    2ce7 <stack_push+0xd0>
    2ce6:	90                   	nop
    2ce7:	c9                   	leave
    2ce8:	c3                   	ret

0000000000002ce9 <stack_pop>:
    2ce9:	55                   	push   %rbp
    2cea:	48 89 e5             	mov    %rsp,%rbp
    2ced:	48 83 ec 10          	sub    $0x10,%rsp
    2cf1:	48 89 7d f8          	mov    %rdi,-0x8(%rbp)
    2cf5:	48 8b 45 f8          	mov    -0x8(%rbp),%rax
    2cf9:	48 8b 48 10          	mov    0x10(%rax),%rcx
    2cfd:	48 8b 45 f8          	mov    -0x8(%rbp),%rax
    2d01:	48 8b 10             	mov    (%rax),%rdx
    2d04:	48 89 d0             	mov    %rdx,%rax
    2d07:	48 01 c0             	add    %rax,%rax
    2d0a:	48 01 d0             	add    %rdx,%rax
    2d0d:	48 c1 e0 03          	shl    $0x3,%rax
    2d11:	48 83 e8 18          	sub    $0x18,%rax
    2d15:	48 01 c8             	add    %rcx,%rax
    2d18:	48 89 c7             	mov    %rax,%rdi
    2d1b:	e8 3a e6 ff ff       	call   135a <e_var_release>
    2d20:	48 8b 45 f8          	mov    -0x8(%rbp),%rax
    2d24:	48 8b 00             	mov    (%rax),%rax
    2d27:	48 8d 50 ff          	lea    -0x1(%rax),%rdx
    2d2b:	48 8b 45 f8          	mov    -0x8(%rbp),%rax
    2d2f:	48 89 10             	mov    %rdx,(%rax)
    2d32:	90                   	nop
    2d33:	c9                   	leave
    2d34:	c3                   	ret

0000000000002d35 <stack_top>:
    2d35:	55                   	push   %rbp
    2d36:	48 89 e5             	mov    %rsp,%rbp
    2d39:	48 89 7d f8          	mov    %rdi,-0x8(%rbp)
    2d3d:	48 8b 45 f8          	mov    -0x8(%rbp),%rax
    2d41:	48 8b 48 10          	mov    0x10(%rax),%rcx
    2d45:	48 8b 45 f8          	mov    -0x8(%rbp),%rax
    2d49:	48 8b 10             	mov    (%rax),%rdx
    2d4c:	48 89 d0             	mov    %rdx,%rax
    2d4f:	48 01 c0             	add    %rax,%rax
    2d52:	48 01 d0             	add    %rdx,%rax
    2d55:	48 c1 e0 03          	shl    $0x3,%rax
    2d59:	48 83 e8 18          	sub    $0x18,%rax
    2d5d:	48 01 c8             	add    %rcx,%rax
    2d60:	5d                   	pop    %rbp
    2d61:	c3                   	ret

0000000000002d62 <call>:
    2d62:	55                   	push   %rbp
    2d63:	48 89 e5             	mov    %rsp,%rbp
    2d66:	48 81 ec d0 00 00 00 	sub    $0xd0,%rsp
    2d6d:	48 89 bd 68 ff ff ff 	mov    %rdi,-0x98(%rbp)
    2d74:	48 89 b5 60 ff ff ff 	mov    %rsi,-0xa0(%rbp)
    2d7b:	48 89 95 58 ff ff ff 	mov    %rdx,-0xa8(%rbp)
    2d82:	89 8d 54 ff ff ff    	mov    %ecx,-0xac(%rbp)
    2d88:	44 89 85 50 ff ff ff 	mov    %r8d,-0xb0(%rbp)
    2d8f:	64 48 8b 04 25 28 00 	mov    %fs:0x28,%rax
    2d96:	00 00 
    2d98:	48 89 45 f8          	mov    %rax,-0x8(%rbp)
    2d9c:	31 c0                	xor    %eax,%eax
    2d9e:	66 0f ef c0          	pxor   %xmm0,%xmm0
    2da2:	0f 29 45 90          	movaps %xmm0,-0x70(%rbp)
    2da6:	66 0f d6 45 a0       	movq   %xmm0,-0x60(%rbp)
    2dab:	48 8d 05 56 82 00 00 	lea    0x8256(%rip),%rax        # b008 <_IO_stdin_used+0x8>
    2db2:	be 07 00 00 00       	mov    $0x7,%esi
    2db7:	48 89 c7             	mov    %rax,%rdi
    2dba:	e8 d4 e5 ff ff       	call   1393 <e_hash_fnv>
    2dbf:	39 85 54 ff ff ff    	cmp    %eax,-0xac(%rbp)
    2dc5:	0f 85 84 00 00 00    	jne    2e4f <call+0xed>
    2dcb:	8b 85 50 ff ff ff    	mov    -0xb0(%rbp),%eax
    2dd1:	83 e8 01             	sub    $0x1,%eax
    2dd4:	89 c0                	mov    %eax,%eax
    2dd6:	48 89 85 78 ff ff ff 	mov    %rax,-0x88(%rbp)
    2ddd:	eb 4d                	jmp    2e2c <call+0xca>
    2ddf:	48 8b 15 1a b3 00 00 	mov    0xb31a(%rip),%rdx        # e100 <stdout@GLIBC_2.2.5>
    2de6:	48 8b 85 58 ff ff ff 	mov    -0xa8(%rbp),%rax
    2ded:	48 8b 70 10          	mov    0x10(%rax),%rsi
    2df1:	48 8b 85 58 ff ff ff 	mov    -0xa8(%rbp),%rax
    2df8:	48 8b 08             	mov    (%rax),%rcx
    2dfb:	48 8b 85 78 ff ff ff 	mov    -0x88(%rbp),%rax
    2e02:	48 29 c1             	sub    %rax,%rcx
    2e05:	48 89 c8             	mov    %rcx,%rax
    2e08:	48 01 c0             	add    %rax,%rax
    2e0b:	48 01 c8             	add    %rcx,%rax
    2e0e:	48 c1 e0 03          	shl    $0x3,%rax
    2e12:	48 83 e8 18          	sub    $0x18,%rax
    2e16:	48 01 f0             	add    %rsi,%rax
    2e19:	48 89 d6             	mov    %rdx,%rsi
    2e1c:	48 89 c7             	mov    %rax,%rdi
    2e1f:	e8 13 72 00 00       	call   a037 <e_var_print>
    2e24:	48 83 ad 78 ff ff ff 	subq   $0x1,-0x88(%rbp)
    2e2b:	01 
    2e2c:	48 83 bd 78 ff ff ff 	cmpq   $0x0,-0x88(%rbp)
    2e33:	00 
    2e34:	79 a9                	jns    2ddf <call+0x7d>
    2e36:	48 8b 05 c3 b2 00 00 	mov    0xb2c3(%rip),%rax        # e100 <stdout@GLIBC_2.2.5>
    2e3d:	48 89 c6             	mov    %rax,%rsi
    2e40:	bf 0a 00 00 00       	mov    $0xa,%edi
    2e45:	e8 a6 e2 ff ff       	call   10f0 <fputc@plt>
    2e4a:	e9 3c 03 00 00       	jmp    318b <call+0x429>
    2e4f:	48 8d 05 ba 81 00 00 	lea    0x81ba(%rip),%rax        # b010 <_IO_stdin_used+0x10>
    2e56:	be 05 00 00 00       	mov    $0x5,%esi
    2e5b:	48 89 c7             	mov    %rax,%rdi
    2e5e:	e8 30 e5 ff ff       	call   1393 <e_hash_fnv>
    2e63:	39 85 54 ff ff ff    	cmp    %eax,-0xac(%rbp)
    2e69:	75 64                	jne    2ecf <call+0x16d>
    2e6b:	8b 85 50 ff ff ff    	mov    -0xb0(%rbp),%eax
    2e71:	83 e8 01             	sub    $0x1,%eax
    2e74:	89 c0                	mov    %eax,%eax
    2e76:	48 89 45 80          	mov    %rax,-0x80(%rbp)
    2e7a:	eb 47                	jmp    2ec3 <call+0x161>
    2e7c:	48 8b 15 7d b2 00 00 	mov    0xb27d(%rip),%rdx        # e100 <stdout@GLIBC_2.2.5>
    2e83:	48 8b 85 58 ff ff ff 	mov    -0xa8(%rbp),%rax
    2e8a:	48 8b 70 10          	mov    0x10(%rax),%rsi
    2e8e:	48 8b 85 58 ff ff ff 	mov    -0xa8(%rbp),%rax
    2e95:	48 8b 08             	mov    (%rax),%rcx
    2e98:	48 8b 45 80          	mov    -0x80(%rbp),%rax
    2e9c:	48 29 c1             	sub    %rax,%rcx
    2e9f:	48 89 c8             	mov    %rcx,%rax
    2ea2:	48 01 c0             	add    %rax,%rax
    2ea5:	48 01 c8             	add    %rcx,%rax
    2ea8:	48 c1 e0 03          	shl    $0x3,%rax
    2eac:	48 83 e8 18          	sub    $0x18,%rax
    2eb0:	48 01 f0             	add    %rsi,%rax
    2eb3:	48 89 d6             	mov    %rdx,%rsi
    2eb6:	48 89 c7             	mov    %rax,%rdi
    2eb9:	e8 79 71 00 00       	call   a037 <e_var_print>
    2ebe:	48 83 6d 80 01       	subq   $0x1,-0x80(%rbp)
    2ec3:	48 83 7d 80 00       	cmpq   $0x0,-0x80(%rbp)
    2ec8:	79 b2                	jns    2e7c <call+0x11a>
    2eca:	e9 bc 02 00 00       	jmp    318b <call+0x429>
    2ecf:	c7 85 70 ff ff ff 00 	movl   $0x0,-0x90(%rbp)
    2ed6:	00 00 00 
    2ed9:	e9 71 01 00 00       	jmp    304f <call+0x2ed>
    2ede:	48 8b 85 60 ff ff ff 	mov    -0xa0(%rbp),%rax
    2ee5:	48 8b 40 20          	mov    0x20(%rax),%rax
    2ee9:	8b 95 70 ff ff ff    	mov    -0x90(%rbp),%edx
    2eef:	48 63 d2             	movslq %edx,%rdx
    2ef2:	48 c1 e2 05          	shl    $0x5,%rdx
    2ef6:	48 01 d0             	add    %rdx,%rax
    2ef9:	8b 40 10             	mov    0x10(%rax),%eax
    2efc:	39 85 54 ff ff ff    	cmp    %eax,-0xac(%rbp)
    2f02:	0f 85 3f 01 00 00    	jne    3047 <call+0x2e5>
    2f08:	48 8b 85 60 ff ff ff 	mov    -0xa0(%rbp),%rax
    2f0f:	48 8b 40 20          	mov    0x20(%rax),%rax
    2f13:	8b 95 70 ff ff ff    	mov    -0x90(%rbp),%edx
    2f19:	48 63 d2             	movslq %edx,%rdx
    2f1c:	48 c1 e2 05          	shl    $0x5,%rdx
    2f20:	48 01 d0             	add    %rdx,%rax
    2f23:	48 8b 00             	mov    (%rax),%rax
    2f26:	48 89 45 b0          	mov    %rax,-0x50(%rbp)
    2f2a:	48 8b 85 58 ff ff ff 	mov    -0xa8(%rbp),%rax
    2f31:	48 8b 48 10          	mov    0x10(%rax),%rcx
    2f35:	48 8b 85 58 ff ff ff 	mov    -0xa8(%rbp),%rax
    2f3c:	48 8b 10             	mov    (%rax),%rdx
    2f3f:	48 8b 85 60 ff ff ff 	mov    -0xa0(%rbp),%rax
    2f46:	48 8b 40 20          	mov    0x20(%rax),%rax
    2f4a:	8b b5 70 ff ff ff    	mov    -0x90(%rbp),%esi
    2f50:	48 63 f6             	movslq %esi,%rsi
    2f53:	48 c1 e6 05          	shl    $0x5,%rsi
    2f57:	48 01 f0             	add    %rsi,%rax
    2f5a:	8b 40 18             	mov    0x18(%rax),%eax
    2f5d:	89 c0                	mov    %eax,%eax
    2f5f:	48 29 c2             	sub    %rax,%rdx
    2f62:	48 89 d0             	mov    %rdx,%rax
    2f65:	48 01 c0             	add    %rax,%rax
    2f68:	48 01 d0             	add    %rdx,%rax
    2f6b:	48 c1 e0 03          	shl    $0x3,%rax
    2f6f:	48 01 c8             	add    %rcx,%rax
    2f72:	48 89 45 b8          	mov    %rax,-0x48(%rbp)
    2f76:	48 8b 85 60 ff ff ff 	mov    -0xa0(%rbp),%rax
    2f7d:	48 8b 40 20          	mov    0x20(%rax),%rax
    2f81:	8b 95 70 ff ff ff    	mov    -0x90(%rbp),%edx
    2f87:	48 63 d2             	movslq %edx,%rdx
    2f8a:	48 c1 e2 05          	shl    $0x5,%rdx
    2f8e:	48 01 d0             	add    %rdx,%rax
    2f91:	48 8b 40 08          	mov    0x8(%rax),%rax
    2f95:	48 89 45 c0          	mov    %rax,-0x40(%rbp)
    2f99:	48 8b 85 60 ff ff ff 	mov    -0xa0(%rbp),%rax
    2fa0:	48 8b 40 18          	mov    0x18(%rax),%rax
    2fa4:	48 89 45 c8          	mov    %rax,-0x38(%rbp)
    2fa8:	48 8b 85 60 ff ff ff 	mov    -0xa0(%rbp),%rax
    2faf:	48 8b 40 20          	mov    0x20(%rax),%rax
    2fb3:	48 89 45 d0          	mov    %rax,-0x30(%rbp)
    2fb7:	48 8b 85 60 ff ff ff 	mov    -0xa0(%rbp),%rax
    2fbe:	48 8b 40 28          	mov    0x28(%rax),%rax
    2fc2:	48 89 45 d8          	mov    %rax,-0x28(%rbp)
    2fc6:	48 8b 85 60 ff ff ff 	mov    -0xa0(%rbp),%rax
    2fcd:	48 8b 40 20          	mov    0x20(%rax),%rax
    2fd1:	8b 95 70 ff ff ff    	mov    -0x90(%rbp),%edx
    2fd7:	48 63 d2             	movslq %edx,%rdx
    2fda:	48 c1 e2 05          	shl    $0x5,%rdx
    2fde:	48 01 d0             	add    %rdx,%rax
    2fe1:	8b 40 14             	mov    0x14(%rax),%eax
    2fe4:	89 45 e0             	mov    %eax,-0x20(%rbp)
    2fe7:	48 8b 85 60 ff ff ff 	mov    -0xa0(%rbp),%rax
    2fee:	48 8b 40 20          	mov    0x20(%rax),%rax
    2ff2:	8b 95 70 ff ff ff    	mov    -0x90(%rbp),%edx
    2ff8:	48 63 d2             	movslq %edx,%rdx
    2ffb:	48 c1 e2 05          	shl    $0x5,%rdx
    2fff:	48 01 d0             	add    %rdx,%rax
    3002:	8b 40 18             	mov    0x18(%rax),%eax
    3005:	89 45 e4             	mov    %eax,-0x1c(%rbp)
    3008:	48 8b 85 60 ff ff ff 	mov    -0xa0(%rbp),%rax
    300f:	8b 40 38             	mov    0x38(%rax),%eax
    3012:	89 45 e8             	mov    %eax,-0x18(%rbp)
    3015:	48 8b 85 60 ff ff ff 	mov    -0xa0(%rbp),%rax
    301c:	8b 40 3c             	mov    0x3c(%rax),%eax
    301f:	89 45 ec             	mov    %eax,-0x14(%rbp)
    3022:	48 8b 85 60 ff ff ff 	mov    -0xa0(%rbp),%rax
    3029:	8b 40 40             	mov    0x40(%rax),%eax
    302c:	89 45 f0             	mov    %eax,-0x10(%rbp)
    302f:	48 8d 45 90          	lea    -0x70(%rbp),%rax
    3033:	48 8d 55 b0          	lea    -0x50(%rbp),%rdx
    3037:	48 89 d6             	mov    %rdx,%rsi
    303a:	48 89 c7             	mov    %rax,%rdi
    303d:	e8 ae 01 00 00       	call   31f0 <e_exec>
    3042:	e9 44 01 00 00       	jmp    318b <call+0x429>
    3047:	90                   	nop
    3048:	83 85 70 ff ff ff 01 	addl   $0x1,-0x90(%rbp)
    304f:	48 8b 85 60 ff ff ff 	mov    -0xa0(%rbp),%rax
    3056:	8b 40 3c             	mov    0x3c(%rax),%eax
    3059:	8b 95 70 ff ff ff    	mov    -0x90(%rbp),%edx
    305f:	39 c2                	cmp    %eax,%edx
    3061:	0f 82 77 fe ff ff    	jb     2ede <call+0x17c>
    3067:	c7 85 74 ff ff ff 00 	movl   $0x0,-0x8c(%rbp)
    306e:	00 00 00 
    3071:	e9 d0 00 00 00       	jmp    3146 <call+0x3e4>
    3076:	48 8b 85 60 ff ff ff 	mov    -0xa0(%rbp),%rax
    307d:	48 8b 40 28          	mov    0x28(%rax),%rax
    3081:	8b 95 74 ff ff ff    	mov    -0x8c(%rbp),%edx
    3087:	48 c1 e2 04          	shl    $0x4,%rdx
    308b:	48 01 d0             	add    %rdx,%rax
    308e:	8b 00                	mov    (%rax),%eax
    3090:	39 85 54 ff ff ff    	cmp    %eax,-0xac(%rbp)
    3096:	0f 85 a2 00 00 00    	jne    313e <call+0x3dc>
    309c:	48 8b 85 60 ff ff ff 	mov    -0xa0(%rbp),%rax
    30a3:	48 8b 40 28          	mov    0x28(%rax),%rax
    30a7:	8b 95 74 ff ff ff    	mov    -0x8c(%rbp),%edx
    30ad:	48 c1 e2 04          	shl    $0x4,%rdx
    30b1:	48 01 d0             	add    %rdx,%rax
    30b4:	48 8b 40 08          	mov    0x8(%rax),%rax
    30b8:	48 85 c0             	test   %rax,%rax
    30bb:	0f 84 c9 00 00 00    	je     318a <call+0x428>
    30c1:	48 8b 85 60 ff ff ff 	mov    -0xa0(%rbp),%rax
    30c8:	48 8b 40 28          	mov    0x28(%rax),%rax
    30cc:	8b 95 74 ff ff ff    	mov    -0x8c(%rbp),%edx
    30d2:	48 c1 e2 04          	shl    $0x4,%rdx
    30d6:	48 01 d0             	add    %rdx,%rax
    30d9:	48 8b 48 08          	mov    0x8(%rax),%rcx
    30dd:	48 8b 85 58 ff ff ff 	mov    -0xa8(%rbp),%rax
    30e4:	48 8b 70 10          	mov    0x10(%rax),%rsi
    30e8:	48 8b 85 58 ff ff ff 	mov    -0xa8(%rbp),%rax
    30ef:	48 8b 10             	mov    (%rax),%rdx
    30f2:	8b 85 50 ff ff ff    	mov    -0xb0(%rbp),%eax
    30f8:	48 29 c2             	sub    %rax,%rdx
    30fb:	48 89 d0             	mov    %rdx,%rax
    30fe:	48 01 c0             	add    %rax,%rax
    3101:	48 01 d0             	add    %rdx,%rax
    3104:	48 c1 e0 03          	shl    $0x3,%rax
    3108:	48 8d 14 06          	lea    (%rsi,%rax,1),%rdx
    310c:	48 8d 85 30 ff ff ff 	lea    -0xd0(%rbp),%rax
    3113:	48 89 d6             	mov    %rdx,%rsi
    3116:	48 89 c7             	mov    %rax,%rdi
    3119:	ff d1                	call   *%rcx
    311b:	48 8b 85 30 ff ff ff 	mov    -0xd0(%rbp),%rax
    3122:	48 8b 95 38 ff ff ff 	mov    -0xc8(%rbp),%rdx
    3129:	48 89 45 90          	mov    %rax,-0x70(%rbp)
    312d:	48 89 55 98          	mov    %rdx,-0x68(%rbp)
    3131:	48 8b 85 40 ff ff ff 	mov    -0xc0(%rbp),%rax
    3138:	48 89 45 a0          	mov    %rax,-0x60(%rbp)
    313c:	eb 4c                	jmp    318a <call+0x428>
    313e:	90                   	nop
    313f:	83 85 74 ff ff ff 01 	addl   $0x1,-0x8c(%rbp)
    3146:	48 8b 85 60 ff ff ff 	mov    -0xa0(%rbp),%rax
    314d:	8b 40 40             	mov    0x40(%rax),%eax
    3150:	39 85 74 ff ff ff    	cmp    %eax,-0x8c(%rbp)
    3156:	0f 82 1a ff ff ff    	jb     3076 <call+0x314>
    315c:	48 8b 05 bd af 00 00 	mov    0xafbd(%rip),%rax        # e120 <stderr@GLIBC_2.2.5>
    3163:	8b 95 54 ff ff ff    	mov    -0xac(%rbp),%edx
    3169:	48 8d 0d a6 7e 00 00 	lea    0x7ea6(%rip),%rcx        # b016 <_IO_stdin_used+0x16>
    3170:	48 89 ce             	mov    %rcx,%rsi
    3173:	48 89 c7             	mov    %rax,%rdi
    3176:	b8 00 00 00 00       	mov    $0x0,%eax
    317b:	e8 90 df ff ff       	call   1110 <fprintf@plt>
    3180:	bf ff ff ff ff       	mov    $0xffffffff,%edi
    3185:	e8 16 e0 ff ff       	call   11a0 <exit@plt>
    318a:	90                   	nop
    318b:	48 c7 45 88 00 00 00 	movq   $0x0,-0x78(%rbp)
    3192:	00 
    3193:	eb 14                	jmp    31a9 <call+0x447>
    3195:	48 8b 85 58 ff ff ff 	mov    -0xa8(%rbp),%rax
    319c:	48 89 c7             	mov    %rax,%rdi
    319f:	e8 45 fb ff ff       	call   2ce9 <stack_pop>
    31a4:	48 83 45 88 01       	addq   $0x1,-0x78(%rbp)
    31a9:	8b 85 50 ff ff ff    	mov    -0xb0(%rbp),%eax
    31af:	48 39 45 88          	cmp    %rax,-0x78(%rbp)
    31b3:	72 e0                	jb     3195 <call+0x433>
    31b5:	48 8b 8d 68 ff ff ff 	mov    -0x98(%rbp),%rcx
    31bc:	48 8b 45 90          	mov    -0x70(%rbp),%rax
    31c0:	48 8b 55 98          	mov    -0x68(%rbp),%rdx
    31c4:	48 89 01             	mov    %rax,(%rcx)
    31c7:	48 89 51 08          	mov    %rdx,0x8(%rcx)
    31cb:	48 8b 45 a0          	mov    -0x60(%rbp),%rax
    31cf:	48 89 41 10          	mov    %rax,0x10(%rcx)
    31d3:	48 8b 45 f8          	mov    -0x8(%rbp),%rax
    31d7:	64 48 2b 04 25 28 00 	sub    %fs:0x28,%rax
    31de:	00 00 
    31e0:	74 05                	je     31e7 <call+0x485>
    31e2:	e8 a9 de ff ff       	call   1090 <__stack_chk_fail@plt>
    31e7:	48 8b 85 68 ff ff ff 	mov    -0x98(%rbp),%rax
    31ee:	c9                   	leave
    31ef:	c3                   	ret

00000000000031f0 <e_exec>:
    31f0:	55                   	push   %rbp
    31f1:	48 89 e5             	mov    %rsp,%rbp
    31f4:	53                   	push   %rbx
    31f5:	48 81 ec 58 01 00 00 	sub    $0x158,%rsp
    31fc:	48 89 bd a8 fe ff ff 	mov    %rdi,-0x158(%rbp)
    3203:	48 89 b5 a0 fe ff ff 	mov    %rsi,-0x160(%rbp)
    320a:	64 48 8b 04 25 28 00 	mov    %fs:0x28,%rax
    3211:	00 00 
    3213:	48 89 45 e8          	mov    %rax,-0x18(%rbp)
    3217:	31 c0                	xor    %eax,%eax
    3219:	48 8d 45 90          	lea    -0x70(%rbp),%rax
    321d:	48 89 c7             	mov    %rax,%rdi
    3220:	e8 69 f9 ff ff       	call   2b8e <stack_init>
    3225:	89 85 c0 fe ff ff    	mov    %eax,-0x140(%rbp)
    322b:	83 bd c0 fe ff ff 00 	cmpl   $0x0,-0x140(%rbp)
    3232:	74 30                	je     3264 <e_exec+0x74>
    3234:	e8 a0 e0 ff ff       	call   12d9 <e_refc_init>
    3239:	48 8b 95 a8 fe ff ff 	mov    -0x158(%rbp),%rdx
    3240:	c7 02 01 00 00 00    	movl   $0x1,(%rdx)
    3246:	48 8b 95 a8 fe ff ff 	mov    -0x158(%rbp),%rdx
    324d:	48 89 42 08          	mov    %rax,0x8(%rdx)
    3251:	48 8b 85 a8 fe ff ff 	mov    -0x158(%rbp),%rax
    3258:	c7 40 10 ff ff ff ff 	movl   $0xffffffff,0x10(%rax)
    325f:	e9 b1 10 00 00       	jmp    4315 <e_exec+0x1125>
    3264:	48 c7 85 e8 fe ff ff 	movq   $0x4,-0x118(%rbp)
    326b:	04 00 00 00 
    326f:	48 c7 85 f0 fe ff ff 	movq   $0x0,-0x110(%rbp)
    3276:	00 00 00 00 
    327a:	48 8b 85 e8 fe ff ff 	mov    -0x118(%rbp),%rax
    3281:	be 10 00 00 00       	mov    $0x10,%esi
    3286:	48 89 c7             	mov    %rax,%rdi
    3289:	e8 72 de ff ff       	call   1100 <calloc@plt>
    328e:	48 89 85 f8 fe ff ff 	mov    %rax,-0x108(%rbp)
    3295:	48 c7 85 00 ff ff ff 	movq   $0x0,-0x100(%rbp)
    329c:	00 00 00 00 
    32a0:	e9 73 01 00 00       	jmp    3418 <e_exec+0x228>
    32a5:	48 8b 85 f0 fe ff ff 	mov    -0x110(%rbp),%rax
    32ac:	48 3b 85 e8 fe ff ff 	cmp    -0x118(%rbp),%rax
    32b3:	0f 82 8a 00 00 00    	jb     3343 <e_exec+0x153>
    32b9:	48 8b 85 e8 fe ff ff 	mov    -0x118(%rbp),%rax
    32c0:	48 01 c0             	add    %rax,%rax
    32c3:	48 89 45 80          	mov    %rax,-0x80(%rbp)
    32c7:	48 8b 45 80          	mov    -0x80(%rbp),%rax
    32cb:	48 c1 e0 04          	shl    $0x4,%rax
    32cf:	48 89 c2             	mov    %rax,%rdx
    32d2:	48 8b 85 f8 fe ff ff 	mov    -0x108(%rbp),%rax
    32d9:	48 89 d6             	mov    %rdx,%rsi
    32dc:	48 89 c7             	mov    %rax,%rdi
    32df:	e8 7c de ff ff       	call   1160 <realloc@plt>
    32e4:	48 89 45 88          	mov    %rax,-0x78(%rbp)
    32e8:	48 83 7d 88 00       	cmpq   $0x0,-0x78(%rbp)
    32ed:	75 0a                	jne    32f9 <e_exec+0x109>
    32ef:	bf ff ff ff ff       	mov    $0xffffffff,%edi
    32f4:	e8 a7 de ff ff       	call   11a0 <exit@plt>
    32f9:	48 8b 45 80          	mov    -0x80(%rbp),%rax
    32fd:	48 2b 85 f0 fe ff ff 	sub    -0x110(%rbp),%rax
    3304:	48 c1 e0 04          	shl    $0x4,%rax
    3308:	48 89 c2             	mov    %rax,%rdx
    330b:	48 8b 85 f0 fe ff ff 	mov    -0x110(%rbp),%rax
    3312:	48 c1 e0 04          	shl    $0x4,%rax
    3316:	48 89 c1             	mov    %rax,%rcx
    3319:	48 8b 45 88          	mov    -0x78(%rbp),%rax
    331d:	48 01 c8             	add    %rcx,%rax
    3320:	be 00 00 00 00       	mov    $0x0,%esi
    3325:	48 89 c7             	mov    %rax,%rdi
    3328:	e8 b3 dd ff ff       	call   10e0 <memset@plt>
    332d:	48 8b 45 88          	mov    -0x78(%rbp),%rax
    3331:	48 89 85 f8 fe ff ff 	mov    %rax,-0x108(%rbp)
    3338:	48 8b 45 80          	mov    -0x80(%rbp),%rax
    333c:	48 89 85 e8 fe ff ff 	mov    %rax,-0x118(%rbp)
    3343:	48 8b 85 a0 fe ff ff 	mov    -0x160(%rbp),%rax
    334a:	48 8b 40 10          	mov    0x10(%rax),%rax
    334e:	48 8b 95 00 ff ff ff 	mov    -0x100(%rbp),%rdx
    3355:	48 c1 e2 02          	shl    $0x2,%rdx
    3359:	48 01 d0             	add    %rdx,%rax
    335c:	48 8b 95 f0 fe ff ff 	mov    -0x110(%rbp),%rdx
    3363:	48 89 d1             	mov    %rdx,%rcx
    3366:	48 c1 e1 04          	shl    $0x4,%rcx
    336a:	48 8b 95 f8 fe ff ff 	mov    -0x108(%rbp),%rdx
    3371:	48 01 ca             	add    %rcx,%rdx
    3374:	8b 00                	mov    (%rax),%eax
    3376:	89 42 08             	mov    %eax,0x8(%rdx)
    3379:	48 8b 85 f0 fe ff ff 	mov    -0x110(%rbp),%rax
    3380:	48 c1 e0 04          	shl    $0x4,%rax
    3384:	48 89 c2             	mov    %rax,%rdx
    3387:	48 8b 85 f8 fe ff ff 	mov    -0x108(%rbp),%rax
    338e:	48 01 c2             	add    %rax,%rdx
    3391:	48 8b 85 00 ff ff ff 	mov    -0x100(%rbp),%rax
    3398:	48 89 02             	mov    %rax,(%rdx)
    339b:	48 83 85 f0 fe ff ff 	addq   $0x1,-0x110(%rbp)
    33a2:	01 
    33a3:	48 8b 85 a0 fe ff ff 	mov    -0x160(%rbp),%rax
    33aa:	48 8b 48 08          	mov    0x8(%rax),%rcx
    33ae:	48 8b 95 00 ff ff ff 	mov    -0x100(%rbp),%rdx
    33b5:	48 89 d0             	mov    %rdx,%rax
    33b8:	48 01 c0             	add    %rax,%rax
    33bb:	48 01 d0             	add    %rdx,%rax
    33be:	48 c1 e0 03          	shl    $0x3,%rax
    33c2:	48 8d 14 01          	lea    (%rcx,%rax,1),%rdx
    33c6:	48 8d 45 d0          	lea    -0x30(%rbp),%rax
    33ca:	48 89 c6             	mov    %rax,%rsi
    33cd:	48 89 d7             	mov    %rdx,%rdi
    33d0:	e8 da 69 00 00       	call   9daf <e_var_shallow_cpy>
    33d5:	e8 ff de ff ff       	call   12d9 <e_refc_init>
    33da:	48 89 45 d8          	mov    %rax,-0x28(%rbp)
    33de:	48 8d 75 90          	lea    -0x70(%rbp),%rsi
    33e2:	48 83 ec 08          	sub    $0x8,%rsp
    33e6:	48 83 ec 18          	sub    $0x18,%rsp
    33ea:	48 89 e1             	mov    %rsp,%rcx
    33ed:	48 8b 45 d0          	mov    -0x30(%rbp),%rax
    33f1:	48 8b 55 d8          	mov    -0x28(%rbp),%rdx
    33f5:	48 89 01             	mov    %rax,(%rcx)
    33f8:	48 89 51 08          	mov    %rdx,0x8(%rcx)
    33fc:	48 8b 45 e0          	mov    -0x20(%rbp),%rax
    3400:	48 89 41 10          	mov    %rax,0x10(%rcx)
    3404:	48 89 f7             	mov    %rsi,%rdi
    3407:	e8 0b f8 ff ff       	call   2c17 <stack_push>
    340c:	48 83 c4 20          	add    $0x20,%rsp
    3410:	48 83 85 00 ff ff ff 	addq   $0x1,-0x100(%rbp)
    3417:	01 
    3418:	48 8b 85 a0 fe ff ff 	mov    -0x160(%rbp),%rax
    341f:	8b 40 34             	mov    0x34(%rax),%eax
    3422:	89 c0                	mov    %eax,%eax
    3424:	48 39 85 00 ff ff ff 	cmp    %rax,-0x100(%rbp)
    342b:	0f 82 74 fe ff ff    	jb     32a5 <e_exec+0xb5>
    3431:	48 8b 85 a0 fe ff ff 	mov    -0x160(%rbp),%rax
    3438:	48 8b 00             	mov    (%rax),%rax
    343b:	48 89 85 e0 fe ff ff 	mov    %rax,-0x120(%rbp)
    3442:	48 8b 85 a0 fe ff ff 	mov    -0x160(%rbp),%rax
    3449:	48 8b 10             	mov    (%rax),%rdx
    344c:	48 8b 85 a0 fe ff ff 	mov    -0x160(%rbp),%rax
    3453:	8b 40 30             	mov    0x30(%rax),%eax
    3456:	89 c0                	mov    %eax,%eax
    3458:	48 01 d0             	add    %rdx,%rax
    345b:	48 89 85 50 ff ff ff 	mov    %rax,-0xb0(%rbp)
    3462:	48 c7 85 08 ff ff ff 	movq   $0x0,-0xf8(%rbp)
    3469:	00 00 00 00 
    346d:	e9 09 0e 00 00       	jmp    427b <e_exec+0x108b>
    3472:	48 8b 85 e0 fe ff ff 	mov    -0x120(%rbp),%rax
    3479:	0f b6 00             	movzbl (%rax),%eax
    347c:	88 85 b5 fe ff ff    	mov    %al,-0x14b(%rbp)
    3482:	48 8b 85 e0 fe ff ff 	mov    -0x120(%rbp),%rax
    3489:	48 83 c0 01          	add    $0x1,%rax
    348d:	48 89 85 e0 fe ff ff 	mov    %rax,-0x120(%rbp)
    3494:	48 8b 85 e0 fe ff ff 	mov    -0x120(%rbp),%rax
    349b:	0f b6 00             	movzbl (%rax),%eax
    349e:	88 85 b6 fe ff ff    	mov    %al,-0x14a(%rbp)
    34a4:	48 8b 85 e0 fe ff ff 	mov    -0x120(%rbp),%rax
    34ab:	48 83 c0 01          	add    $0x1,%rax
    34af:	48 89 85 e0 fe ff ff 	mov    %rax,-0x120(%rbp)
    34b6:	0f b6 85 b5 fe ff ff 	movzbl -0x14b(%rbp),%eax
    34bd:	83 f8 25             	cmp    $0x25,%eax
    34c0:	0f 84 8d 0d 00 00    	je     4253 <e_exec+0x1063>
    34c6:	83 f8 25             	cmp    $0x25,%eax
    34c9:	0f 87 cb 0c 00 00    	ja     419a <e_exec+0xfaa>
    34cf:	83 f8 24             	cmp    $0x24,%eax
    34d2:	0f 84 db 0c 00 00    	je     41b3 <e_exec+0xfc3>
    34d8:	83 f8 24             	cmp    $0x24,%eax
    34db:	0f 87 b9 0c 00 00    	ja     419a <e_exec+0xfaa>
    34e1:	83 f8 23             	cmp    $0x23,%eax
    34e4:	0f 84 58 0c 00 00    	je     4142 <e_exec+0xf52>
    34ea:	83 f8 23             	cmp    $0x23,%eax
    34ed:	0f 87 a7 0c 00 00    	ja     419a <e_exec+0xfaa>
    34f3:	83 f8 22             	cmp    $0x22,%eax
    34f6:	0f 84 36 0c 00 00    	je     4132 <e_exec+0xf42>
    34fc:	83 f8 22             	cmp    $0x22,%eax
    34ff:	0f 87 95 0c 00 00    	ja     419a <e_exec+0xfaa>
    3505:	83 f8 21             	cmp    $0x21,%eax
    3508:	0f 84 0e 06 00 00    	je     3b1c <e_exec+0x92c>
    350e:	83 f8 21             	cmp    $0x21,%eax
    3511:	0f 87 83 0c 00 00    	ja     419a <e_exec+0xfaa>
    3517:	83 f8 20             	cmp    $0x20,%eax
    351a:	0f 84 87 05 00 00    	je     3aa7 <e_exec+0x8b7>
    3520:	83 f8 20             	cmp    $0x20,%eax
    3523:	0f 87 71 0c 00 00    	ja     419a <e_exec+0xfaa>
    3529:	83 f8 1d             	cmp    $0x1d,%eax
    352c:	0f 84 5f 06 00 00    	je     3b91 <e_exec+0x9a1>
    3532:	83 f8 1d             	cmp    $0x1d,%eax
    3535:	0f 87 5f 0c 00 00    	ja     419a <e_exec+0xfaa>
    353b:	83 f8 1c             	cmp    $0x1c,%eax
    353e:	0f 84 e8 00 00 00    	je     362c <e_exec+0x43c>
    3544:	83 f8 1c             	cmp    $0x1c,%eax
    3547:	0f 87 4d 0c 00 00    	ja     419a <e_exec+0xfaa>
    354d:	83 f8 1b             	cmp    $0x1b,%eax
    3550:	0f 84 65 06 00 00    	je     3bbb <e_exec+0x9cb>
    3556:	83 f8 1b             	cmp    $0x1b,%eax
    3559:	0f 87 3b 0c 00 00    	ja     419a <e_exec+0xfaa>
    355f:	83 f8 1a             	cmp    $0x1a,%eax
    3562:	0f 84 70 09 00 00    	je     3ed8 <e_exec+0xce8>
    3568:	83 f8 1a             	cmp    $0x1a,%eax
    356b:	0f 87 29 0c 00 00    	ja     419a <e_exec+0xfaa>
    3571:	83 f8 19             	cmp    $0x19,%eax
    3574:	0f 84 55 08 00 00    	je     3dcf <e_exec+0xbdf>
    357a:	83 f8 19             	cmp    $0x19,%eax
    357d:	0f 87 17 0c 00 00    	ja     419a <e_exec+0xfaa>
    3583:	83 f8 18             	cmp    $0x18,%eax
    3586:	0f 84 4b 01 00 00    	je     36d7 <e_exec+0x4e7>
    358c:	83 f8 18             	cmp    $0x18,%eax
    358f:	0f 87 05 0c 00 00    	ja     419a <e_exec+0xfaa>
    3595:	83 f8 17             	cmp    $0x17,%eax
    3598:	0f 84 4b 0a 00 00    	je     3fe9 <e_exec+0xdf9>
    359e:	83 f8 17             	cmp    $0x17,%eax
    35a1:	0f 87 f3 0b 00 00    	ja     419a <e_exec+0xfaa>
    35a7:	83 f8 16             	cmp    $0x16,%eax
    35aa:	0f 84 93 00 00 00    	je     3643 <e_exec+0x453>
    35b0:	83 f8 16             	cmp    $0x16,%eax
    35b3:	0f 87 e1 0b 00 00    	ja     419a <e_exec+0xfaa>
    35b9:	83 f8 15             	cmp    $0x15,%eax
    35bc:	0f 87 d8 0b 00 00    	ja     419a <e_exec+0xfaa>
    35c2:	83 f8 14             	cmp    $0x14,%eax
    35c5:	0f 83 a2 02 00 00    	jae    386d <e_exec+0x67d>
    35cb:	83 f8 13             	cmp    $0x13,%eax
    35ce:	0f 87 c6 0b 00 00    	ja     419a <e_exec+0xfaa>
    35d4:	83 f8 0e             	cmp    $0xe,%eax
    35d7:	0f 83 b3 01 00 00    	jae    3790 <e_exec+0x5a0>
    35dd:	83 f8 0d             	cmp    $0xd,%eax
    35e0:	0f 84 02 04 00 00    	je     39e8 <e_exec+0x7f8>
    35e6:	83 f8 0d             	cmp    $0xd,%eax
    35e9:	0f 87 ab 0b 00 00    	ja     419a <e_exec+0xfaa>
    35ef:	83 f8 0c             	cmp    $0xc,%eax
    35f2:	0f 87 a2 0b 00 00    	ja     419a <e_exec+0xfaa>
    35f8:	83 f8 0a             	cmp    $0xa,%eax
    35fb:	0f 83 8f 01 00 00    	jae    3790 <e_exec+0x5a0>
    3601:	83 f8 09             	cmp    $0x9,%eax
    3604:	0f 84 de 03 00 00    	je     39e8 <e_exec+0x7f8>
    360a:	83 f8 09             	cmp    $0x9,%eax
    360d:	0f 87 87 0b 00 00    	ja     419a <e_exec+0xfaa>
    3613:	85 c0                	test   %eax,%eax
    3615:	0f 84 56 0c 00 00    	je     4271 <e_exec+0x1081>
    361b:	83 e8 01             	sub    $0x1,%eax
    361e:	83 f8 07             	cmp    $0x7,%eax
    3621:	0f 87 73 0b 00 00    	ja     419a <e_exec+0xfaa>
    3627:	e9 64 01 00 00       	jmp    3790 <e_exec+0x5a0>
    362c:	48 8b 85 e0 fe ff ff 	mov    -0x120(%rbp),%rax
    3633:	48 83 c0 04          	add    $0x4,%rax
    3637:	48 89 85 e0 fe ff ff 	mov    %rax,-0x120(%rbp)
    363e:	e9 38 0c 00 00       	jmp    427b <e_exec+0x108b>
    3643:	48 8d 85 e0 fe ff ff 	lea    -0x120(%rbp),%rax
    364a:	48 89 c7             	mov    %rax,%rdi
    364d:	e8 9a dd ff ff       	call   13ec <e_read_u32>
    3652:	89 85 d8 fe ff ff    	mov    %eax,-0x128(%rbp)
    3658:	48 8d 85 e0 fe ff ff 	lea    -0x120(%rbp),%rax
    365f:	48 89 c7             	mov    %rax,%rdi
    3662:	e8 b0 dd ff ff       	call   1417 <e_read_u16>
    3667:	66 89 85 ba fe ff ff 	mov    %ax,-0x146(%rbp)
    366e:	0f b7 bd ba fe ff ff 	movzwl -0x146(%rbp),%edi
    3675:	48 8d 45 d0          	lea    -0x30(%rbp),%rax
    3679:	8b 8d d8 fe ff ff    	mov    -0x128(%rbp),%ecx
    367f:	48 8d 55 90          	lea    -0x70(%rbp),%rdx
    3683:	48 8b b5 a0 fe ff ff 	mov    -0x160(%rbp),%rsi
    368a:	41 89 f8             	mov    %edi,%r8d
    368d:	48 89 c7             	mov    %rax,%rdi
    3690:	e8 cd f6 ff ff       	call   2d62 <call>
    3695:	8b 45 d0             	mov    -0x30(%rbp),%eax
    3698:	85 c0                	test   %eax,%eax
    369a:	0f 84 d4 0b 00 00    	je     4274 <e_exec+0x1084>
    36a0:	48 8d 75 90          	lea    -0x70(%rbp),%rsi
    36a4:	48 83 ec 08          	sub    $0x8,%rsp
    36a8:	48 83 ec 18          	sub    $0x18,%rsp
    36ac:	48 89 e1             	mov    %rsp,%rcx
    36af:	48 8b 45 d0          	mov    -0x30(%rbp),%rax
    36b3:	48 8b 55 d8          	mov    -0x28(%rbp),%rdx
    36b7:	48 89 01             	mov    %rax,(%rcx)
    36ba:	48 89 51 08          	mov    %rdx,0x8(%rcx)
    36be:	48 8b 45 e0          	mov    -0x20(%rbp),%rax
    36c2:	48 89 41 10          	mov    %rax,0x10(%rcx)
    36c6:	48 89 f7             	mov    %rsi,%rdi
    36c9:	e8 49 f5 ff ff       	call   2c17 <stack_push>
    36ce:	48 83 c4 20          	add    $0x20,%rsp
    36d2:	e9 9d 0b 00 00       	jmp    4274 <e_exec+0x1084>
    36d7:	48 8d 85 e0 fe ff ff 	lea    -0x120(%rbp),%rax
    36de:	48 89 c7             	mov    %rax,%rdi
    36e1:	e8 31 dd ff ff       	call   1417 <e_read_u16>
    36e6:	66 89 85 b8 fe ff ff 	mov    %ax,-0x148(%rbp)
    36ed:	0f b7 95 b8 fe ff ff 	movzwl -0x148(%rbp),%edx
    36f4:	48 8b 85 a0 fe ff ff 	mov    -0x160(%rbp),%rax
    36fb:	8b 40 38             	mov    0x38(%rax),%eax
    36fe:	39 c2                	cmp    %eax,%edx
    3700:	72 25                	jb     3727 <e_exec+0x537>
    3702:	48 8d 15 6a 79 00 00 	lea    0x796a(%rip),%rdx        # b073 <__PRETTY_FUNCTION__.0>
    3709:	48 8d 35 1f 79 00 00 	lea    0x791f(%rip),%rsi        # b02f <_IO_stdin_used+0x2f>
    3710:	48 8d 05 1f 79 00 00 	lea    0x791f(%rip),%rax        # b036 <_IO_stdin_used+0x36>
    3717:	48 89 d1             	mov    %rdx,%rcx
    371a:	ba 1f 01 00 00       	mov    $0x11f,%edx
    371f:	48 89 c7             	mov    %rax,%rdi
    3722:	e8 89 d9 ff ff       	call   10b0 <__assert_fail@plt>
    3727:	48 8b 85 a0 fe ff ff 	mov    -0x160(%rbp),%rax
    372e:	48 8b 48 18          	mov    0x18(%rax),%rcx
    3732:	0f b7 95 b8 fe ff ff 	movzwl -0x148(%rbp),%edx
    3739:	48 89 d0             	mov    %rdx,%rax
    373c:	48 01 c0             	add    %rax,%rax
    373f:	48 01 d0             	add    %rdx,%rax
    3742:	48 c1 e0 03          	shl    $0x3,%rax
    3746:	48 8d 14 01          	lea    (%rcx,%rax,1),%rdx
    374a:	48 8d 45 d0          	lea    -0x30(%rbp),%rax
    374e:	48 89 c6             	mov    %rax,%rsi
    3751:	48 89 d7             	mov    %rdx,%rdi
    3754:	e8 aa 66 00 00       	call   9e03 <e_var_deep_cpy>
    3759:	48 8d 75 90          	lea    -0x70(%rbp),%rsi
    375d:	48 83 ec 08          	sub    $0x8,%rsp
    3761:	48 83 ec 18          	sub    $0x18,%rsp
    3765:	48 89 e1             	mov    %rsp,%rcx
    3768:	48 8b 45 d0          	mov    -0x30(%rbp),%rax
    376c:	48 8b 55 d8          	mov    -0x28(%rbp),%rdx
    3770:	48 89 01             	mov    %rax,(%rcx)
    3773:	48 89 51 08          	mov    %rdx,0x8(%rcx)
    3777:	48 8b 45 e0          	mov    -0x20(%rbp),%rax
    377b:	48 89 41 10          	mov    %rax,0x10(%rcx)
    377f:	48 89 f7             	mov    %rsi,%rdi
    3782:	e8 90 f4 ff ff       	call   2c17 <stack_push>
    3787:	48 83 c4 20          	add    $0x20,%rsp
    378b:	e9 eb 0a 00 00       	jmp    427b <e_exec+0x108b>
    3790:	44 0f b6 8d b5 fe ff 	movzbl -0x14b(%rbp),%r9d
    3797:	ff 
    3798:	48 8b 4d a0          	mov    -0x60(%rbp),%rcx
    379c:	48 8b 55 90          	mov    -0x70(%rbp),%rdx
    37a0:	48 89 d0             	mov    %rdx,%rax
    37a3:	48 01 c0             	add    %rax,%rax
    37a6:	48 01 d0             	add    %rdx,%rax
    37a9:	48 c1 e0 03          	shl    $0x3,%rax
    37ad:	48 83 e8 18          	sub    $0x18,%rax
    37b1:	48 8d 34 01          	lea    (%rcx,%rax,1),%rsi
    37b5:	48 8b 4d a0          	mov    -0x60(%rbp),%rcx
    37b9:	48 8b 55 90          	mov    -0x70(%rbp),%rdx
    37bd:	48 89 d0             	mov    %rdx,%rax
    37c0:	48 01 c0             	add    %rax,%rax
    37c3:	48 01 d0             	add    %rdx,%rax
    37c6:	48 c1 e0 03          	shl    $0x3,%rax
    37ca:	48 83 e8 30          	sub    $0x30,%rax
    37ce:	48 01 c1             	add    %rax,%rcx
    37d1:	4c 8d 45 d0          	lea    -0x30(%rbp),%r8
    37d5:	48 83 ec 18          	sub    $0x18,%rsp
    37d9:	48 89 e7             	mov    %rsp,%rdi
    37dc:	48 8b 06             	mov    (%rsi),%rax
    37df:	48 8b 56 08          	mov    0x8(%rsi),%rdx
    37e3:	48 89 07             	mov    %rax,(%rdi)
    37e6:	48 89 57 08          	mov    %rdx,0x8(%rdi)
    37ea:	48 8b 46 10          	mov    0x10(%rsi),%rax
    37ee:	48 89 47 10          	mov    %rax,0x10(%rdi)
    37f2:	48 83 ec 18          	sub    $0x18,%rsp
    37f6:	48 89 e6             	mov    %rsp,%rsi
    37f9:	48 8b 01             	mov    (%rcx),%rax
    37fc:	48 8b 51 08          	mov    0x8(%rcx),%rdx
    3800:	48 89 06             	mov    %rax,(%rsi)
    3803:	48 89 56 08          	mov    %rdx,0x8(%rsi)
    3807:	48 8b 41 10          	mov    0x10(%rcx),%rax
    380b:	48 89 46 10          	mov    %rax,0x10(%rsi)
    380f:	44 89 ce             	mov    %r9d,%esi
    3812:	4c 89 c7             	mov    %r8,%rdi
    3815:	e8 1a dd ff ff       	call   1534 <operate>
    381a:	48 83 c4 30          	add    $0x30,%rsp
    381e:	48 8d 45 90          	lea    -0x70(%rbp),%rax
    3822:	48 89 c7             	mov    %rax,%rdi
    3825:	e8 bf f4 ff ff       	call   2ce9 <stack_pop>
    382a:	48 8d 45 90          	lea    -0x70(%rbp),%rax
    382e:	48 89 c7             	mov    %rax,%rdi
    3831:	e8 b3 f4 ff ff       	call   2ce9 <stack_pop>
    3836:	48 8d 75 90          	lea    -0x70(%rbp),%rsi
    383a:	48 83 ec 08          	sub    $0x8,%rsp
    383e:	48 83 ec 18          	sub    $0x18,%rsp
    3842:	48 89 e1             	mov    %rsp,%rcx
    3845:	48 8b 45 d0          	mov    -0x30(%rbp),%rax
    3849:	48 8b 55 d8          	mov    -0x28(%rbp),%rdx
    384d:	48 89 01             	mov    %rax,(%rcx)
    3850:	48 89 51 08          	mov    %rdx,0x8(%rcx)
    3854:	48 8b 45 e0          	mov    -0x20(%rbp),%rax
    3858:	48 89 41 10          	mov    %rax,0x10(%rcx)
    385c:	48 89 f7             	mov    %rsi,%rdi
    385f:	e8 b3 f3 ff ff       	call   2c17 <stack_push>
    3864:	48 83 c4 20          	add    $0x20,%rsp
    3868:	e9 0e 0a 00 00       	jmp    427b <e_exec+0x108b>
    386d:	48 c7 85 10 ff ff ff 	movq   $0x0,-0xf0(%rbp)
    3874:	00 00 00 00 
    3878:	48 8d 85 e0 fe ff ff 	lea    -0x120(%rbp),%rax
    387f:	48 89 c7             	mov    %rax,%rdi
    3882:	e8 65 db ff ff       	call   13ec <e_read_u32>
    3887:	89 85 dc fe ff ff    	mov    %eax,-0x124(%rbp)
    388d:	48 c7 85 18 ff ff ff 	movq   $0x0,-0xe8(%rbp)
    3894:	00 00 00 00 
    3898:	eb 7c                	jmp    3916 <e_exec+0x726>
    389a:	48 8b 85 f0 fe ff ff 	mov    -0x110(%rbp),%rax
    38a1:	48 2b 85 18 ff ff ff 	sub    -0xe8(%rbp),%rax
    38a8:	48 83 e8 01          	sub    $0x1,%rax
    38ac:	48 89 85 78 ff ff ff 	mov    %rax,-0x88(%rbp)
    38b3:	48 8b 85 78 ff ff ff 	mov    -0x88(%rbp),%rax
    38ba:	48 c1 e0 04          	shl    $0x4,%rax
    38be:	48 89 c2             	mov    %rax,%rdx
    38c1:	48 8b 85 f8 fe ff ff 	mov    -0x108(%rbp),%rax
    38c8:	48 01 d0             	add    %rdx,%rax
    38cb:	8b 40 08             	mov    0x8(%rax),%eax
    38ce:	39 85 dc fe ff ff    	cmp    %eax,-0x124(%rbp)
    38d4:	75 38                	jne    390e <e_exec+0x71e>
    38d6:	48 8b 4d a0          	mov    -0x60(%rbp),%rcx
    38da:	48 8b 85 78 ff ff ff 	mov    -0x88(%rbp),%rax
    38e1:	48 c1 e0 04          	shl    $0x4,%rax
    38e5:	48 89 c2             	mov    %rax,%rdx
    38e8:	48 8b 85 f8 fe ff ff 	mov    -0x108(%rbp),%rax
    38ef:	48 01 d0             	add    %rdx,%rax
    38f2:	48 8b 10             	mov    (%rax),%rdx
    38f5:	48 89 d0             	mov    %rdx,%rax
    38f8:	48 01 c0             	add    %rax,%rax
    38fb:	48 01 d0             	add    %rdx,%rax
    38fe:	48 c1 e0 03          	shl    $0x3,%rax
    3902:	48 01 c8             	add    %rcx,%rax
    3905:	48 89 85 10 ff ff ff 	mov    %rax,-0xf0(%rbp)
    390c:	eb 1c                	jmp    392a <e_exec+0x73a>
    390e:	48 83 85 18 ff ff ff 	addq   $0x1,-0xe8(%rbp)
    3915:	01 
    3916:	48 8b 85 18 ff ff ff 	mov    -0xe8(%rbp),%rax
    391d:	48 3b 85 f0 fe ff ff 	cmp    -0x110(%rbp),%rax
    3924:	0f 82 70 ff ff ff    	jb     389a <e_exec+0x6aa>
    392a:	48 83 bd 10 ff ff ff 	cmpq   $0x0,-0xf0(%rbp)
    3931:	00 
    3932:	75 0a                	jne    393e <e_exec+0x74e>
    3934:	bf ff ff ff ff       	mov    $0xffffffff,%edi
    3939:	e8 62 d8 ff ff       	call   11a0 <exit@plt>
    393e:	48 8b 85 10 ff ff ff 	mov    -0xf0(%rbp),%rax
    3945:	8b 00                	mov    (%rax),%eax
    3947:	83 f8 01             	cmp    $0x1,%eax
    394a:	75 41                	jne    398d <e_exec+0x79d>
    394c:	80 bd b5 fe ff ff 14 	cmpb   $0x14,-0x14b(%rbp)
    3953:	75 1c                	jne    3971 <e_exec+0x781>
    3955:	48 8b 85 10 ff ff ff 	mov    -0xf0(%rbp),%rax
    395c:	8b 40 10             	mov    0x10(%rax),%eax
    395f:	8d 50 01             	lea    0x1(%rax),%edx
    3962:	48 8b 85 10 ff ff ff 	mov    -0xf0(%rbp),%rax
    3969:	89 50 10             	mov    %edx,0x10(%rax)
    396c:	e9 0a 09 00 00       	jmp    427b <e_exec+0x108b>
    3971:	48 8b 85 10 ff ff ff 	mov    -0xf0(%rbp),%rax
    3978:	8b 40 10             	mov    0x10(%rax),%eax
    397b:	8d 50 ff             	lea    -0x1(%rax),%edx
    397e:	48 8b 85 10 ff ff ff 	mov    -0xf0(%rbp),%rax
    3985:	89 50 10             	mov    %edx,0x10(%rax)
    3988:	e9 ee 08 00 00       	jmp    427b <e_exec+0x108b>
    398d:	80 bd b5 fe ff ff 14 	cmpb   $0x14,-0x14b(%rbp)
    3994:	75 29                	jne    39bf <e_exec+0x7cf>
    3996:	48 8b 85 10 ff ff ff 	mov    -0xf0(%rbp),%rax
    399d:	f2 0f 10 48 10       	movsd  0x10(%rax),%xmm1
    39a2:	f2 0f 10 05 d6 76 00 	movsd  0x76d6(%rip),%xmm0        # b080 <__PRETTY_FUNCTION__.0+0xd>
    39a9:	00 
    39aa:	f2 0f 58 c1          	addsd  %xmm1,%xmm0
    39ae:	48 8b 85 10 ff ff ff 	mov    -0xf0(%rbp),%rax
    39b5:	f2 0f 11 40 10       	movsd  %xmm0,0x10(%rax)
    39ba:	e9 bc 08 00 00       	jmp    427b <e_exec+0x108b>
    39bf:	48 8b 85 10 ff ff ff 	mov    -0xf0(%rbp),%rax
    39c6:	f2 0f 10 40 10       	movsd  0x10(%rax),%xmm0
    39cb:	f2 0f 10 0d ad 76 00 	movsd  0x76ad(%rip),%xmm1        # b080 <__PRETTY_FUNCTION__.0+0xd>
    39d2:	00 
    39d3:	f2 0f 5c c1          	subsd  %xmm1,%xmm0
    39d7:	48 8b 85 10 ff ff ff 	mov    -0xf0(%rbp),%rax
    39de:	f2 0f 11 40 10       	movsd  %xmm0,0x10(%rax)
    39e3:	e9 93 08 00 00       	jmp    427b <e_exec+0x108b>
    39e8:	44 0f b6 85 b5 fe ff 	movzbl -0x14b(%rbp),%r8d
    39ef:	ff 
    39f0:	48 8b 4d a0          	mov    -0x60(%rbp),%rcx
    39f4:	48 8b 55 90          	mov    -0x70(%rbp),%rdx
    39f8:	48 89 d0             	mov    %rdx,%rax
    39fb:	48 01 c0             	add    %rax,%rax
    39fe:	48 01 d0             	add    %rdx,%rax
    3a01:	48 c1 e0 03          	shl    $0x3,%rax
    3a05:	48 83 e8 18          	sub    $0x18,%rax
    3a09:	48 01 c1             	add    %rax,%rcx
    3a0c:	66 0f ef c0          	pxor   %xmm0,%xmm0
    3a10:	0f 29 45 d0          	movaps %xmm0,-0x30(%rbp)
    3a14:	66 0f d6 45 e0       	movq   %xmm0,-0x20(%rbp)
    3a19:	48 8d 7d b0          	lea    -0x50(%rbp),%rdi
    3a1d:	48 83 ec 18          	sub    $0x18,%rsp
    3a21:	48 89 e6             	mov    %rsp,%rsi
    3a24:	48 8b 01             	mov    (%rcx),%rax
    3a27:	48 8b 51 08          	mov    0x8(%rcx),%rdx
    3a2b:	48 89 06             	mov    %rax,(%rsi)
    3a2e:	48 89 56 08          	mov    %rdx,0x8(%rsi)
    3a32:	48 8b 41 10          	mov    0x10(%rcx),%rax
    3a36:	48 89 46 10          	mov    %rax,0x10(%rsi)
    3a3a:	48 83 ec 18          	sub    $0x18,%rsp
    3a3e:	48 89 e1             	mov    %rsp,%rcx
    3a41:	48 8b 45 d0          	mov    -0x30(%rbp),%rax
    3a45:	48 8b 55 d8          	mov    -0x28(%rbp),%rdx
    3a49:	48 89 01             	mov    %rax,(%rcx)
    3a4c:	48 89 51 08          	mov    %rdx,0x8(%rcx)
    3a50:	48 8b 45 e0          	mov    -0x20(%rbp),%rax
    3a54:	48 89 41 10          	mov    %rax,0x10(%rcx)
    3a58:	44 89 c6             	mov    %r8d,%esi
    3a5b:	e8 d4 da ff ff       	call   1534 <operate>
    3a60:	48 83 c4 30          	add    $0x30,%rsp
    3a64:	48 8d 45 90          	lea    -0x70(%rbp),%rax
    3a68:	48 89 c7             	mov    %rax,%rdi
    3a6b:	e8 79 f2 ff ff       	call   2ce9 <stack_pop>
    3a70:	48 8d 75 90          	lea    -0x70(%rbp),%rsi
    3a74:	48 83 ec 08          	sub    $0x8,%rsp
    3a78:	48 83 ec 18          	sub    $0x18,%rsp
    3a7c:	48 89 e1             	mov    %rsp,%rcx
    3a7f:	48 8b 45 b0          	mov    -0x50(%rbp),%rax
    3a83:	48 8b 55 b8          	mov    -0x48(%rbp),%rdx
    3a87:	48 89 01             	mov    %rax,(%rcx)
    3a8a:	48 89 51 08          	mov    %rdx,0x8(%rcx)
    3a8e:	48 8b 45 c0          	mov    -0x40(%rbp),%rax
    3a92:	48 89 41 10          	mov    %rax,0x10(%rcx)
    3a96:	48 89 f7             	mov    %rsi,%rdi
    3a99:	e8 79 f1 ff ff       	call   2c17 <stack_push>
    3a9e:	48 83 c4 20          	add    $0x20,%rsp
    3aa2:	e9 d4 07 00 00       	jmp    427b <e_exec+0x108b>
    3aa7:	48 8d 85 e0 fe ff ff 	lea    -0x120(%rbp),%rax
    3aae:	48 89 c7             	mov    %rax,%rdi
    3ab1:	e8 36 d9 ff ff       	call   13ec <e_read_u32>
    3ab6:	89 85 c8 fe ff ff    	mov    %eax,-0x138(%rbp)
    3abc:	48 8b 4d a0          	mov    -0x60(%rbp),%rcx
    3ac0:	48 8b 55 90          	mov    -0x70(%rbp),%rdx
    3ac4:	48 89 d0             	mov    %rdx,%rax
    3ac7:	48 01 c0             	add    %rax,%rax
    3aca:	48 01 d0             	add    %rdx,%rax
    3acd:	48 c1 e0 03          	shl    $0x3,%rax
    3ad1:	48 83 e8 18          	sub    $0x18,%rax
    3ad5:	48 01 c8             	add    %rcx,%rax
    3ad8:	8b 40 10             	mov    0x10(%rax),%eax
    3adb:	85 c0                	test   %eax,%eax
    3add:	75 1a                	jne    3af9 <e_exec+0x909>
    3adf:	48 8b 85 a0 fe ff ff 	mov    -0x160(%rbp),%rax
    3ae6:	48 8b 10             	mov    (%rax),%rdx
    3ae9:	8b 85 c8 fe ff ff    	mov    -0x138(%rbp),%eax
    3aef:	48 01 d0             	add    %rdx,%rax
    3af2:	48 89 85 e0 fe ff ff 	mov    %rax,-0x120(%rbp)
    3af9:	0f b6 85 b6 fe ff ff 	movzbl -0x14a(%rbp),%eax
    3b00:	83 e0 20             	and    $0x20,%eax
    3b03:	85 c0                	test   %eax,%eax
    3b05:	0f 84 6c 07 00 00    	je     4277 <e_exec+0x1087>
    3b0b:	48 8d 45 90          	lea    -0x70(%rbp),%rax
    3b0f:	48 89 c7             	mov    %rax,%rdi
    3b12:	e8 d2 f1 ff ff       	call   2ce9 <stack_pop>
    3b17:	e9 5b 07 00 00       	jmp    4277 <e_exec+0x1087>
    3b1c:	48 8d 85 e0 fe ff ff 	lea    -0x120(%rbp),%rax
    3b23:	48 89 c7             	mov    %rax,%rdi
    3b26:	e8 c1 d8 ff ff       	call   13ec <e_read_u32>
    3b2b:	89 85 c4 fe ff ff    	mov    %eax,-0x13c(%rbp)
    3b31:	48 8b 4d a0          	mov    -0x60(%rbp),%rcx
    3b35:	48 8b 55 90          	mov    -0x70(%rbp),%rdx
    3b39:	48 89 d0             	mov    %rdx,%rax
    3b3c:	48 01 c0             	add    %rax,%rax
    3b3f:	48 01 d0             	add    %rdx,%rax
    3b42:	48 c1 e0 03          	shl    $0x3,%rax
    3b46:	48 83 e8 18          	sub    $0x18,%rax
    3b4a:	48 01 c8             	add    %rcx,%rax
    3b4d:	8b 40 10             	mov    0x10(%rax),%eax
    3b50:	85 c0                	test   %eax,%eax
    3b52:	74 1a                	je     3b6e <e_exec+0x97e>
    3b54:	48 8b 85 a0 fe ff ff 	mov    -0x160(%rbp),%rax
    3b5b:	48 8b 10             	mov    (%rax),%rdx
    3b5e:	8b 85 c4 fe ff ff    	mov    -0x13c(%rbp),%eax
    3b64:	48 01 d0             	add    %rdx,%rax
    3b67:	48 89 85 e0 fe ff ff 	mov    %rax,-0x120(%rbp)
    3b6e:	0f b6 85 b6 fe ff ff 	movzbl -0x14a(%rbp),%eax
    3b75:	83 e0 20             	and    $0x20,%eax
    3b78:	85 c0                	test   %eax,%eax
    3b7a:	0f 84 fa 06 00 00    	je     427a <e_exec+0x108a>
    3b80:	48 8d 45 90          	lea    -0x70(%rbp),%rax
    3b84:	48 89 c7             	mov    %rax,%rdi
    3b87:	e8 5d f1 ff ff       	call   2ce9 <stack_pop>
    3b8c:	e9 e9 06 00 00       	jmp    427a <e_exec+0x108a>
    3b91:	48 8b 85 a0 fe ff ff 	mov    -0x160(%rbp),%rax
    3b98:	48 8b 18             	mov    (%rax),%rbx
    3b9b:	48 8d 85 e0 fe ff ff 	lea    -0x120(%rbp),%rax
    3ba2:	48 89 c7             	mov    %rax,%rdi
    3ba5:	e8 42 d8 ff ff       	call   13ec <e_read_u32>
    3baa:	89 c0                	mov    %eax,%eax
    3bac:	48 01 d8             	add    %rbx,%rax
    3baf:	48 89 85 e0 fe ff ff 	mov    %rax,-0x120(%rbp)
    3bb6:	e9 c0 06 00 00       	jmp    427b <e_exec+0x108b>
    3bbb:	48 8b 85 f0 fe ff ff 	mov    -0x110(%rbp),%rax
    3bc2:	48 3b 85 e8 fe ff ff 	cmp    -0x118(%rbp),%rax
    3bc9:	0f 82 a2 00 00 00    	jb     3c71 <e_exec+0xa81>
    3bcf:	48 8b 85 e8 fe ff ff 	mov    -0x118(%rbp),%rax
    3bd6:	48 01 c0             	add    %rax,%rax
    3bd9:	48 89 85 58 ff ff ff 	mov    %rax,-0xa8(%rbp)
    3be0:	48 8b 85 58 ff ff ff 	mov    -0xa8(%rbp),%rax
    3be7:	48 c1 e0 04          	shl    $0x4,%rax
    3beb:	48 89 c2             	mov    %rax,%rdx
    3bee:	48 8b 85 f8 fe ff ff 	mov    -0x108(%rbp),%rax
    3bf5:	48 89 d6             	mov    %rdx,%rsi
    3bf8:	48 89 c7             	mov    %rax,%rdi
    3bfb:	e8 60 d5 ff ff       	call   1160 <realloc@plt>
    3c00:	48 89 85 60 ff ff ff 	mov    %rax,-0xa0(%rbp)
    3c07:	48 83 bd 60 ff ff ff 	cmpq   $0x0,-0xa0(%rbp)
    3c0e:	00 
    3c0f:	75 0a                	jne    3c1b <e_exec+0xa2b>
    3c11:	bf ff ff ff ff       	mov    $0xffffffff,%edi
    3c16:	e8 85 d5 ff ff       	call   11a0 <exit@plt>
    3c1b:	48 8b 85 58 ff ff ff 	mov    -0xa8(%rbp),%rax
    3c22:	48 2b 85 f0 fe ff ff 	sub    -0x110(%rbp),%rax
    3c29:	48 c1 e0 04          	shl    $0x4,%rax
    3c2d:	48 89 c2             	mov    %rax,%rdx
    3c30:	48 8b 85 f0 fe ff ff 	mov    -0x110(%rbp),%rax
    3c37:	48 c1 e0 04          	shl    $0x4,%rax
    3c3b:	48 89 c1             	mov    %rax,%rcx
    3c3e:	48 8b 85 60 ff ff ff 	mov    -0xa0(%rbp),%rax
    3c45:	48 01 c8             	add    %rcx,%rax
    3c48:	be 00 00 00 00       	mov    $0x0,%esi
    3c4d:	48 89 c7             	mov    %rax,%rdi
    3c50:	e8 8b d4 ff ff       	call   10e0 <memset@plt>
    3c55:	48 8b 85 60 ff ff ff 	mov    -0xa0(%rbp),%rax
    3c5c:	48 89 85 f8 fe ff ff 	mov    %rax,-0x108(%rbp)
    3c63:	48 8b 85 58 ff ff ff 	mov    -0xa8(%rbp),%rax
    3c6a:	48 89 85 e8 fe ff ff 	mov    %rax,-0x118(%rbp)
    3c71:	48 8d 85 e0 fe ff ff 	lea    -0x120(%rbp),%rax
    3c78:	48 89 c7             	mov    %rax,%rdi
    3c7b:	e8 6c d7 ff ff       	call   13ec <e_read_u32>
    3c80:	89 85 cc fe ff ff    	mov    %eax,-0x134(%rbp)
    3c86:	48 8b 85 f0 fe ff ff 	mov    -0x110(%rbp),%rax
    3c8d:	48 c1 e0 04          	shl    $0x4,%rax
    3c91:	48 89 c2             	mov    %rax,%rdx
    3c94:	48 8b 85 f8 fe ff ff 	mov    -0x108(%rbp),%rax
    3c9b:	48 01 c2             	add    %rax,%rdx
    3c9e:	48 8b 45 90          	mov    -0x70(%rbp),%rax
    3ca2:	48 89 02             	mov    %rax,(%rdx)
    3ca5:	48 8b 85 f0 fe ff ff 	mov    -0x110(%rbp),%rax
    3cac:	48 c1 e0 04          	shl    $0x4,%rax
    3cb0:	48 89 c2             	mov    %rax,%rdx
    3cb3:	48 8b 85 f8 fe ff ff 	mov    -0x108(%rbp),%rax
    3cba:	48 01 c2             	add    %rax,%rdx
    3cbd:	8b 85 cc fe ff ff    	mov    -0x134(%rbp),%eax
    3cc3:	89 42 08             	mov    %eax,0x8(%rdx)
    3cc6:	48 83 85 f0 fe ff ff 	addq   $0x1,-0x110(%rbp)
    3ccd:	01 
    3cce:	0f b6 85 b6 fe ff ff 	movzbl -0x14a(%rbp),%eax
    3cd5:	83 e0 01             	and    $0x1,%eax
    3cd8:	85 c0                	test   %eax,%eax
    3cda:	0f 84 a2 00 00 00    	je     3d82 <e_exec+0xb92>
    3ce0:	48 8b 4d a0          	mov    -0x60(%rbp),%rcx
    3ce4:	48 8b 55 90          	mov    -0x70(%rbp),%rdx
    3ce8:	48 89 d0             	mov    %rdx,%rax
    3ceb:	48 01 c0             	add    %rax,%rax
    3cee:	48 01 d0             	add    %rdx,%rax
    3cf1:	48 c1 e0 03          	shl    $0x3,%rax
    3cf5:	48 83 e8 18          	sub    $0x18,%rax
    3cf9:	48 01 c1             	add    %rax,%rcx
    3cfc:	48 8b 01             	mov    (%rcx),%rax
    3cff:	48 8b 51 08          	mov    0x8(%rcx),%rdx
    3d03:	48 89 45 d0          	mov    %rax,-0x30(%rbp)
    3d07:	48 89 55 d8          	mov    %rdx,-0x28(%rbp)
    3d0b:	48 8b 41 10          	mov    0x10(%rcx),%rax
    3d0f:	48 89 45 e0          	mov    %rax,-0x20(%rbp)
    3d13:	48 8b 4d a0          	mov    -0x60(%rbp),%rcx
    3d17:	48 8b 55 90          	mov    -0x70(%rbp),%rdx
    3d1b:	48 89 d0             	mov    %rdx,%rax
    3d1e:	48 01 c0             	add    %rax,%rax
    3d21:	48 01 d0             	add    %rdx,%rax
    3d24:	48 c1 e0 03          	shl    $0x3,%rax
    3d28:	48 83 e8 18          	sub    $0x18,%rax
    3d2c:	48 8d 14 01          	lea    (%rcx,%rax,1),%rdx
    3d30:	48 8d 45 d0          	lea    -0x30(%rbp),%rax
    3d34:	48 89 c6             	mov    %rax,%rsi
    3d37:	48 89 d7             	mov    %rdx,%rdi
    3d3a:	e8 70 60 00 00       	call   9daf <e_var_shallow_cpy>
    3d3f:	48 8d 45 d0          	lea    -0x30(%rbp),%rax
    3d43:	48 89 c7             	mov    %rax,%rdi
    3d46:	e8 f1 d5 ff ff       	call   133c <e_var_acquire>
    3d4b:	48 8d 75 90          	lea    -0x70(%rbp),%rsi
    3d4f:	48 83 ec 08          	sub    $0x8,%rsp
    3d53:	48 83 ec 18          	sub    $0x18,%rsp
    3d57:	48 89 e1             	mov    %rsp,%rcx
    3d5a:	48 8b 45 d0          	mov    -0x30(%rbp),%rax
    3d5e:	48 8b 55 d8          	mov    -0x28(%rbp),%rdx
    3d62:	48 89 01             	mov    %rax,(%rcx)
    3d65:	48 89 51 08          	mov    %rdx,0x8(%rcx)
    3d69:	48 8b 45 e0          	mov    -0x20(%rbp),%rax
    3d6d:	48 89 41 10          	mov    %rax,0x10(%rcx)
    3d71:	48 89 f7             	mov    %rsi,%rdi
    3d74:	e8 9e ee ff ff       	call   2c17 <stack_push>
    3d79:	48 83 c4 20          	add    $0x20,%rsp
    3d7d:	e9 f9 04 00 00       	jmp    427b <e_exec+0x108b>
    3d82:	66 0f ef c0          	pxor   %xmm0,%xmm0
    3d86:	0f 29 45 d0          	movaps %xmm0,-0x30(%rbp)
    3d8a:	66 0f d6 45 e0       	movq   %xmm0,-0x20(%rbp)
    3d8f:	e8 45 d5 ff ff       	call   12d9 <e_refc_init>
    3d94:	48 89 45 d8          	mov    %rax,-0x28(%rbp)
    3d98:	48 8d 75 90          	lea    -0x70(%rbp),%rsi
    3d9c:	48 83 ec 08          	sub    $0x8,%rsp
    3da0:	48 83 ec 18          	sub    $0x18,%rsp
    3da4:	48 89 e1             	mov    %rsp,%rcx
    3da7:	48 8b 45 d0          	mov    -0x30(%rbp),%rax
    3dab:	48 8b 55 d8          	mov    -0x28(%rbp),%rdx
    3daf:	48 89 01             	mov    %rax,(%rcx)
    3db2:	48 89 51 08          	mov    %rdx,0x8(%rcx)
    3db6:	48 8b 45 e0          	mov    -0x20(%rbp),%rax
    3dba:	48 89 41 10          	mov    %rax,0x10(%rcx)
    3dbe:	48 89 f7             	mov    %rsi,%rdi
    3dc1:	e8 51 ee ff ff       	call   2c17 <stack_push>
    3dc6:	48 83 c4 20          	add    $0x20,%rsp
    3dca:	e9 ac 04 00 00       	jmp    427b <e_exec+0x108b>
    3dcf:	48 8d 85 e0 fe ff ff 	lea    -0x120(%rbp),%rax
    3dd6:	48 89 c7             	mov    %rax,%rdi
    3dd9:	e8 0e d6 ff ff       	call   13ec <e_read_u32>
    3dde:	89 85 d4 fe ff ff    	mov    %eax,-0x12c(%rbp)
    3de4:	48 c7 85 20 ff ff ff 	movq   $0x0,-0xe0(%rbp)
    3deb:	00 00 00 00 
    3def:	e9 cb 00 00 00       	jmp    3ebf <e_exec+0xccf>
    3df4:	48 8b 85 f0 fe ff ff 	mov    -0x110(%rbp),%rax
    3dfb:	48 2b 85 20 ff ff ff 	sub    -0xe0(%rbp),%rax
    3e02:	48 83 e8 01          	sub    $0x1,%rax
    3e06:	48 89 85 70 ff ff ff 	mov    %rax,-0x90(%rbp)
    3e0d:	48 8b 85 70 ff ff ff 	mov    -0x90(%rbp),%rax
    3e14:	48 c1 e0 04          	shl    $0x4,%rax
    3e18:	48 89 c2             	mov    %rax,%rdx
    3e1b:	48 8b 85 f8 fe ff ff 	mov    -0x108(%rbp),%rax
    3e22:	48 01 d0             	add    %rdx,%rax
    3e25:	8b 40 08             	mov    0x8(%rax),%eax
    3e28:	39 85 d4 fe ff ff    	cmp    %eax,-0x12c(%rbp)
    3e2e:	0f 85 83 00 00 00    	jne    3eb7 <e_exec+0xcc7>
    3e34:	48 8b 4d a0          	mov    -0x60(%rbp),%rcx
    3e38:	48 8b 85 70 ff ff ff 	mov    -0x90(%rbp),%rax
    3e3f:	48 c1 e0 04          	shl    $0x4,%rax
    3e43:	48 89 c2             	mov    %rax,%rdx
    3e46:	48 8b 85 f8 fe ff ff 	mov    -0x108(%rbp),%rax
    3e4d:	48 01 d0             	add    %rdx,%rax
    3e50:	48 8b 10             	mov    (%rax),%rdx
    3e53:	48 89 d0             	mov    %rdx,%rax
    3e56:	48 01 c0             	add    %rax,%rax
    3e59:	48 01 d0             	add    %rdx,%rax
    3e5c:	48 c1 e0 03          	shl    $0x3,%rax
    3e60:	48 8d 14 01          	lea    (%rcx,%rax,1),%rdx
    3e64:	48 8d 45 d0          	lea    -0x30(%rbp),%rax
    3e68:	48 89 c6             	mov    %rax,%rsi
    3e6b:	48 89 d7             	mov    %rdx,%rdi
    3e6e:	e8 3c 5f 00 00       	call   9daf <e_var_shallow_cpy>
    3e73:	48 8d 45 d0          	lea    -0x30(%rbp),%rax
    3e77:	48 89 c7             	mov    %rax,%rdi
    3e7a:	e8 bd d4 ff ff       	call   133c <e_var_acquire>
    3e7f:	48 8d 75 90          	lea    -0x70(%rbp),%rsi
    3e83:	48 83 ec 08          	sub    $0x8,%rsp
    3e87:	48 83 ec 18          	sub    $0x18,%rsp
    3e8b:	48 89 e1             	mov    %rsp,%rcx
    3e8e:	48 8b 45 d0          	mov    -0x30(%rbp),%rax
    3e92:	48 8b 55 d8          	mov    -0x28(%rbp),%rdx
    3e96:	48 89 01             	mov    %rax,(%rcx)
    3e99:	48 89 51 08          	mov    %rdx,0x8(%rcx)
    3e9d:	48 8b 45 e0          	mov    -0x20(%rbp),%rax
    3ea1:	48 89 41 10          	mov    %rax,0x10(%rcx)
    3ea5:	48 89 f7             	mov    %rsi,%rdi
    3ea8:	e8 6a ed ff ff       	call   2c17 <stack_push>
    3ead:	48 83 c4 20          	add    $0x20,%rsp
    3eb1:	90                   	nop
    3eb2:	e9 c4 03 00 00       	jmp    427b <e_exec+0x108b>
    3eb7:	48 83 85 20 ff ff ff 	addq   $0x1,-0xe0(%rbp)
    3ebe:	01 
    3ebf:	48 8b 85 20 ff ff ff 	mov    -0xe0(%rbp),%rax
    3ec6:	48 3b 85 f0 fe ff ff 	cmp    -0x110(%rbp),%rax
    3ecd:	0f 82 21 ff ff ff    	jb     3df4 <e_exec+0xc04>
    3ed3:	e9 a3 03 00 00       	jmp    427b <e_exec+0x108b>
    3ed8:	48 8d 85 e0 fe ff ff 	lea    -0x120(%rbp),%rax
    3edf:	48 89 c7             	mov    %rax,%rdi
    3ee2:	e8 05 d5 ff ff       	call   13ec <e_read_u32>
    3ee7:	89 85 d0 fe ff ff    	mov    %eax,-0x130(%rbp)
    3eed:	c7 85 bc fe ff ff 00 	movl   $0x0,-0x144(%rbp)
    3ef4:	00 00 00 
    3ef7:	e9 ce 00 00 00       	jmp    3fca <e_exec+0xdda>
    3efc:	8b 85 bc fe ff ff    	mov    -0x144(%rbp),%eax
    3f02:	48 98                	cltq
    3f04:	48 c1 e0 04          	shl    $0x4,%rax
    3f08:	48 89 c2             	mov    %rax,%rdx
    3f0b:	48 8b 85 f8 fe ff ff 	mov    -0x108(%rbp),%rax
    3f12:	48 01 d0             	add    %rdx,%rax
    3f15:	8b 40 08             	mov    0x8(%rax),%eax
    3f18:	39 85 d0 fe ff ff    	cmp    %eax,-0x130(%rbp)
    3f1e:	0f 85 9f 00 00 00    	jne    3fc3 <e_exec+0xdd3>
    3f24:	48 8b 4d a0          	mov    -0x60(%rbp),%rcx
    3f28:	8b 85 bc fe ff ff    	mov    -0x144(%rbp),%eax
    3f2e:	48 98                	cltq
    3f30:	48 c1 e0 04          	shl    $0x4,%rax
    3f34:	48 89 c2             	mov    %rax,%rdx
    3f37:	48 8b 85 f8 fe ff ff 	mov    -0x108(%rbp),%rax
    3f3e:	48 01 d0             	add    %rdx,%rax
    3f41:	48 8b 10             	mov    (%rax),%rdx
    3f44:	48 89 d0             	mov    %rdx,%rax
    3f47:	48 01 c0             	add    %rax,%rax
    3f4a:	48 01 d0             	add    %rdx,%rax
    3f4d:	48 c1 e0 03          	shl    $0x3,%rax
    3f51:	48 01 c8             	add    %rcx,%rax
    3f54:	48 89 85 68 ff ff ff 	mov    %rax,-0x98(%rbp)
    3f5b:	48 8b 85 68 ff ff ff 	mov    -0x98(%rbp),%rax
    3f62:	48 89 c7             	mov    %rax,%rdi
    3f65:	e8 f0 d3 ff ff       	call   135a <e_var_release>
    3f6a:	48 8d 45 90          	lea    -0x70(%rbp),%rax
    3f6e:	48 89 c7             	mov    %rax,%rdi
    3f71:	e8 bf ed ff ff       	call   2d35 <stack_top>
    3f76:	48 89 c1             	mov    %rax,%rcx
    3f79:	48 8b b5 68 ff ff ff 	mov    -0x98(%rbp),%rsi
    3f80:	48 8b 01             	mov    (%rcx),%rax
    3f83:	48 8b 51 08          	mov    0x8(%rcx),%rdx
    3f87:	48 89 06             	mov    %rax,(%rsi)
    3f8a:	48 89 56 08          	mov    %rdx,0x8(%rsi)
    3f8e:	48 8b 41 10          	mov    0x10(%rcx),%rax
    3f92:	48 89 46 10          	mov    %rax,0x10(%rsi)
    3f96:	0f b6 85 b6 fe ff ff 	movzbl -0x14a(%rbp),%eax
    3f9d:	83 e0 20             	and    $0x20,%eax
    3fa0:	85 c0                	test   %eax,%eax
    3fa2:	74 0e                	je     3fb2 <e_exec+0xdc2>
    3fa4:	48 8b 45 90          	mov    -0x70(%rbp),%rax
    3fa8:	48 83 e8 01          	sub    $0x1,%rax
    3fac:	48 89 45 90          	mov    %rax,-0x70(%rbp)
    3fb0:	eb 32                	jmp    3fe4 <e_exec+0xdf4>
    3fb2:	48 8b 85 68 ff ff ff 	mov    -0x98(%rbp),%rax
    3fb9:	48 89 c7             	mov    %rax,%rdi
    3fbc:	e8 7b d3 ff ff       	call   133c <e_var_acquire>
    3fc1:	eb 21                	jmp    3fe4 <e_exec+0xdf4>
    3fc3:	83 85 bc fe ff ff 01 	addl   $0x1,-0x144(%rbp)
    3fca:	8b 85 bc fe ff ff    	mov    -0x144(%rbp),%eax
    3fd0:	48 98                	cltq
    3fd2:	48 3b 85 f0 fe ff ff 	cmp    -0x110(%rbp),%rax
    3fd9:	0f 82 1d ff ff ff    	jb     3efc <e_exec+0xd0c>
    3fdf:	e9 97 02 00 00       	jmp    427b <e_exec+0x108b>
    3fe4:	e9 92 02 00 00       	jmp    427b <e_exec+0x108b>
    3fe9:	48 8d 85 e0 fe ff ff 	lea    -0x120(%rbp),%rax
    3ff0:	48 89 c7             	mov    %rax,%rdi
    3ff3:	e8 4d d4 ff ff       	call   1445 <e_read_u8>
    3ff8:	88 85 b7 fe ff ff    	mov    %al,-0x149(%rbp)
    3ffe:	80 bd b7 fe ff ff 00 	cmpb   $0x0,-0x149(%rbp)
    4005:	0f 84 af 00 00 00    	je     40ba <e_exec+0xeca>
    400b:	48 8b 4d a0          	mov    -0x60(%rbp),%rcx
    400f:	48 8b 55 90          	mov    -0x70(%rbp),%rdx
    4013:	48 89 d0             	mov    %rdx,%rax
    4016:	48 01 c0             	add    %rax,%rax
    4019:	48 01 d0             	add    %rdx,%rax
    401c:	48 c1 e0 03          	shl    $0x3,%rax
    4020:	48 83 e8 18          	sub    $0x18,%rax
    4024:	48 8d 14 01          	lea    (%rcx,%rax,1),%rdx
    4028:	48 8d 45 d0          	lea    -0x30(%rbp),%rax
    402c:	48 89 c6             	mov    %rax,%rsi
    402f:	48 89 d7             	mov    %rdx,%rdi
    4032:	e8 cc 5d 00 00       	call   9e03 <e_var_deep_cpy>
    4037:	48 c7 85 28 ff ff ff 	movq   $0x0,-0xd8(%rbp)
    403e:	00 00 00 00 
    4042:	eb 2b                	jmp    406f <e_exec+0xe7f>
    4044:	48 8b 4d a0          	mov    -0x60(%rbp),%rcx
    4048:	48 8b 95 28 ff ff ff 	mov    -0xd8(%rbp),%rdx
    404f:	48 89 d0             	mov    %rdx,%rax
    4052:	48 01 c0             	add    %rax,%rax
    4055:	48 01 d0             	add    %rdx,%rax
    4058:	48 c1 e0 03          	shl    $0x3,%rax
    405c:	48 01 c8             	add    %rcx,%rax
    405f:	48 89 c7             	mov    %rax,%rdi
    4062:	e8 f3 d2 ff ff       	call   135a <e_var_release>
    4067:	48 83 85 28 ff ff ff 	addq   $0x1,-0xd8(%rbp)
    406e:	01 
    406f:	48 8b 45 90          	mov    -0x70(%rbp),%rax
    4073:	48 39 85 28 ff ff ff 	cmp    %rax,-0xd8(%rbp)
    407a:	72 c8                	jb     4044 <e_exec+0xe54>
    407c:	48 8d 45 90          	lea    -0x70(%rbp),%rax
    4080:	48 89 c7             	mov    %rax,%rdi
    4083:	e8 70 eb ff ff       	call   2bf8 <stack_free>
    4088:	48 8b 85 f8 fe ff ff 	mov    -0x108(%rbp),%rax
    408f:	48 89 c7             	mov    %rax,%rdi
    4092:	e8 99 cf ff ff       	call   1030 <free@plt>
    4097:	48 8b 8d a8 fe ff ff 	mov    -0x158(%rbp),%rcx
    409e:	48 8b 45 d0          	mov    -0x30(%rbp),%rax
    40a2:	48 8b 55 d8          	mov    -0x28(%rbp),%rdx
    40a6:	48 89 01             	mov    %rax,(%rcx)
    40a9:	48 89 51 08          	mov    %rdx,0x8(%rcx)
    40ad:	48 8b 45 e0          	mov    -0x20(%rbp),%rax
    40b1:	48 89 41 10          	mov    %rax,0x10(%rcx)
    40b5:	e9 5b 02 00 00       	jmp    4315 <e_exec+0x1125>
    40ba:	48 c7 85 30 ff ff ff 	movq   $0x0,-0xd0(%rbp)
    40c1:	00 00 00 00 
    40c5:	eb 2b                	jmp    40f2 <e_exec+0xf02>
    40c7:	48 8b 4d a0          	mov    -0x60(%rbp),%rcx
    40cb:	48 8b 95 30 ff ff ff 	mov    -0xd0(%rbp),%rdx
    40d2:	48 89 d0             	mov    %rdx,%rax
    40d5:	48 01 c0             	add    %rax,%rax
    40d8:	48 01 d0             	add    %rdx,%rax
    40db:	48 c1 e0 03          	shl    $0x3,%rax
    40df:	48 01 c8             	add    %rcx,%rax
    40e2:	48 89 c7             	mov    %rax,%rdi
    40e5:	e8 70 d2 ff ff       	call   135a <e_var_release>
    40ea:	48 83 85 30 ff ff ff 	addq   $0x1,-0xd0(%rbp)
    40f1:	01 
    40f2:	48 8b 45 90          	mov    -0x70(%rbp),%rax
    40f6:	48 39 85 30 ff ff ff 	cmp    %rax,-0xd0(%rbp)
    40fd:	72 c8                	jb     40c7 <e_exec+0xed7>
    40ff:	48 8d 45 90          	lea    -0x70(%rbp),%rax
    4103:	48 89 c7             	mov    %rax,%rdi
    4106:	e8 ed ea ff ff       	call   2bf8 <stack_free>
    410b:	48 8b 85 f8 fe ff ff 	mov    -0x108(%rbp),%rax
    4112:	48 89 c7             	mov    %rax,%rdi
    4115:	e8 16 cf ff ff       	call   1030 <free@plt>
    411a:	48 8b 85 a8 fe ff ff 	mov    -0x158(%rbp),%rax
    4121:	66 0f ef c0          	pxor   %xmm0,%xmm0
    4125:	0f 11 00             	movups %xmm0,(%rax)
    4128:	66 0f d6 40 10       	movq   %xmm0,0x10(%rax)
    412d:	e9 e3 01 00 00       	jmp    4315 <e_exec+0x1125>
    4132:	48 8b 45 90          	mov    -0x70(%rbp),%rax
    4136:	48 89 85 08 ff ff ff 	mov    %rax,-0xf8(%rbp)
    413d:	e9 39 01 00 00       	jmp    427b <e_exec+0x108b>
    4142:	48 8b 85 08 ff ff ff 	mov    -0xf8(%rbp),%rax
    4149:	48 89 85 38 ff ff ff 	mov    %rax,-0xc8(%rbp)
    4150:	eb 2b                	jmp    417d <e_exec+0xf8d>
    4152:	48 8b 4d a0          	mov    -0x60(%rbp),%rcx
    4156:	48 8b 95 38 ff ff ff 	mov    -0xc8(%rbp),%rdx
    415d:	48 89 d0             	mov    %rdx,%rax
    4160:	48 01 c0             	add    %rax,%rax
    4163:	48 01 d0             	add    %rdx,%rax
    4166:	48 c1 e0 03          	shl    $0x3,%rax
    416a:	48 01 c8             	add    %rcx,%rax
    416d:	48 89 c7             	mov    %rax,%rdi
    4170:	e8 e5 d1 ff ff       	call   135a <e_var_release>
    4175:	48 83 85 38 ff ff ff 	addq   $0x1,-0xc8(%rbp)
    417c:	01 
    417d:	48 8b 45 90          	mov    -0x70(%rbp),%rax
    4181:	48 39 85 38 ff ff ff 	cmp    %rax,-0xc8(%rbp)
    4188:	72 c8                	jb     4152 <e_exec+0xf62>
    418a:	48 8b 85 08 ff ff ff 	mov    -0xf8(%rbp),%rax
    4191:	48 89 45 90          	mov    %rax,-0x70(%rbp)
    4195:	e9 e1 00 00 00       	jmp    427b <e_exec+0x108b>
    419a:	48 8d 05 aa 6e 00 00 	lea    0x6eaa(%rip),%rax        # b04b <_IO_stdin_used+0x4b>
    41a1:	48 89 c7             	mov    %rax,%rdi
    41a4:	e8 a7 ce ff ff       	call   1050 <puts@plt>
    41a9:	bf ff ff ff ff       	mov    $0xffffffff,%edi
    41ae:	e8 ed cf ff ff       	call   11a0 <exit@plt>
    41b3:	48 c7 85 40 ff ff ff 	movq   $0x0,-0xc0(%rbp)
    41ba:	00 00 00 00 
    41be:	eb 2b                	jmp    41eb <e_exec+0xffb>
    41c0:	48 8b 4d a0          	mov    -0x60(%rbp),%rcx
    41c4:	48 8b 95 40 ff ff ff 	mov    -0xc0(%rbp),%rdx
    41cb:	48 89 d0             	mov    %rdx,%rax
    41ce:	48 01 c0             	add    %rax,%rax
    41d1:	48 01 d0             	add    %rdx,%rax
    41d4:	48 c1 e0 03          	shl    $0x3,%rax
    41d8:	48 01 c8             	add    %rcx,%rax
    41db:	48 89 c7             	mov    %rax,%rdi
    41de:	e8 77 d1 ff ff       	call   135a <e_var_release>
    41e3:	48 83 85 40 ff ff ff 	addq   $0x1,-0xc0(%rbp)
    41ea:	01 
    41eb:	48 8b 45 90          	mov    -0x70(%rbp),%rax
    41ef:	48 39 85 40 ff ff ff 	cmp    %rax,-0xc0(%rbp)
    41f6:	72 c8                	jb     41c0 <e_exec+0xfd0>
    41f8:	48 8d 45 90          	lea    -0x70(%rbp),%rax
    41fc:	48 89 c7             	mov    %rax,%rdi
    41ff:	e8 f4 e9 ff ff       	call   2bf8 <stack_free>
    4204:	48 8b 85 f8 fe ff ff 	mov    -0x108(%rbp),%rax
    420b:	48 89 c7             	mov    %rax,%rdi
    420e:	e8 1d ce ff ff       	call   1030 <free@plt>
    4213:	e8 c1 d0 ff ff       	call   12d9 <e_refc_init>
    4218:	48 89 c3             	mov    %rax,%rbx
    421b:	48 8d 85 e0 fe ff ff 	lea    -0x120(%rbp),%rax
    4222:	48 89 c7             	mov    %rax,%rdi
    4225:	e8 c2 d1 ff ff       	call   13ec <e_read_u32>
    422a:	89 c2                	mov    %eax,%edx
    422c:	48 8b 85 a8 fe ff ff 	mov    -0x158(%rbp),%rax
    4233:	c7 00 01 00 00 00    	movl   $0x1,(%rax)
    4239:	48 8b 85 a8 fe ff ff 	mov    -0x158(%rbp),%rax
    4240:	48 89 58 08          	mov    %rbx,0x8(%rax)
    4244:	48 8b 85 a8 fe ff ff 	mov    -0x158(%rbp),%rax
    424b:	89 50 10             	mov    %edx,0x10(%rax)
    424e:	e9 c2 00 00 00       	jmp    4315 <e_exec+0x1125>
    4253:	48 8d 05 05 6e 00 00 	lea    0x6e05(%rip),%rax        # b05f <_IO_stdin_used+0x5f>
    425a:	48 89 c7             	mov    %rax,%rdi
    425d:	b8 00 00 00 00       	mov    $0x0,%eax
    4262:	e8 39 ce ff ff       	call   10a0 <printf@plt>
    4267:	bf ff ff ff ff       	mov    $0xffffffff,%edi
    426c:	e8 2f cf ff ff       	call   11a0 <exit@plt>
    4271:	90                   	nop
    4272:	eb 07                	jmp    427b <e_exec+0x108b>
    4274:	90                   	nop
    4275:	eb 04                	jmp    427b <e_exec+0x108b>
    4277:	90                   	nop
    4278:	eb 01                	jmp    427b <e_exec+0x108b>
    427a:	90                   	nop
    427b:	48 8b 85 e0 fe ff ff 	mov    -0x120(%rbp),%rax
    4282:	48 3b 85 50 ff ff ff 	cmp    -0xb0(%rbp),%rax
    4289:	0f 82 e3 f1 ff ff    	jb     3472 <e_exec+0x282>
    428f:	48 c7 85 48 ff ff ff 	movq   $0x0,-0xb8(%rbp)
    4296:	00 00 00 00 
    429a:	eb 2b                	jmp    42c7 <e_exec+0x10d7>
    429c:	48 8b 4d a0          	mov    -0x60(%rbp),%rcx
    42a0:	48 8b 95 48 ff ff ff 	mov    -0xb8(%rbp),%rdx
    42a7:	48 89 d0             	mov    %rdx,%rax
    42aa:	48 01 c0             	add    %rax,%rax
    42ad:	48 01 d0             	add    %rdx,%rax
    42b0:	48 c1 e0 03          	shl    $0x3,%rax
    42b4:	48 01 c8             	add    %rcx,%rax
    42b7:	48 89 c7             	mov    %rax,%rdi
    42ba:	e8 9b d0 ff ff       	call   135a <e_var_release>
    42bf:	48 83 85 48 ff ff ff 	addq   $0x1,-0xb8(%rbp)
    42c6:	01 
    42c7:	48 8b 45 90          	mov    -0x70(%rbp),%rax
    42cb:	48 39 85 48 ff ff ff 	cmp    %rax,-0xb8(%rbp)
    42d2:	72 c8                	jb     429c <e_exec+0x10ac>
    42d4:	48 8b 85 f8 fe ff ff 	mov    -0x108(%rbp),%rax
    42db:	48 89 c7             	mov    %rax,%rdi
    42de:	e8 4d cd ff ff       	call   1030 <free@plt>
    42e3:	48 8d 45 90          	lea    -0x70(%rbp),%rax
    42e7:	48 89 c7             	mov    %rax,%rdi
    42ea:	e8 09 e9 ff ff       	call   2bf8 <stack_free>
    42ef:	e8 e5 cf ff ff       	call   12d9 <e_refc_init>
    42f4:	48 89 c2             	mov    %rax,%rdx
    42f7:	48 8b 85 a8 fe ff ff 	mov    -0x158(%rbp),%rax
    42fe:	66 0f ef c0          	pxor   %xmm0,%xmm0
    4302:	0f 11 00             	movups %xmm0,(%rax)
    4305:	66 0f d6 40 10       	movq   %xmm0,0x10(%rax)
    430a:	48 8b 85 a8 fe ff ff 	mov    -0x158(%rbp),%rax
    4311:	48 89 50 08          	mov    %rdx,0x8(%rax)
    4315:	48 8b 45 e8          	mov    -0x18(%rbp),%rax
    4319:	64 48 2b 04 25 28 00 	sub    %fs:0x28,%rax
    4320:	00 00 
    4322:	74 05                	je     4329 <e_exec+0x1139>
    4324:	e8 67 cd ff ff       	call   1090 <__stack_chk_fail@plt>
    4329:	48 8b 85 a8 fe ff ff 	mov    -0x158(%rbp),%rax
    4330:	48 8b 5d f8          	mov    -0x8(%rbp),%rbx
    4334:	c9                   	leave
    4335:	c3                   	ret

0000000000004336 <e_refc_init>:
    4336:	55                   	push   %rbp
    4337:	48 89 e5             	mov    %rsp,%rbp
    433a:	48 83 ec 10          	sub    $0x10,%rsp
    433e:	bf 04 00 00 00       	mov    $0x4,%edi
    4343:	e8 f8 cd ff ff       	call   1140 <malloc@plt>
    4348:	48 89 45 f8          	mov    %rax,-0x8(%rbp)
    434c:	48 8b 45 f8          	mov    -0x8(%rbp),%rax
    4350:	c7 00 01 00 00 00    	movl   $0x1,(%rax)
    4356:	48 8b 45 f8          	mov    -0x8(%rbp),%rax
    435a:	c9                   	leave
    435b:	c3                   	ret

000000000000435c <e_refc_release>:
    435c:	55                   	push   %rbp
    435d:	48 89 e5             	mov    %rsp,%rbp
    4360:	48 89 7d f8          	mov    %rdi,-0x8(%rbp)
    4364:	48 8b 45 f8          	mov    -0x8(%rbp),%rax
    4368:	8b 00                	mov    (%rax),%eax
    436a:	85 c0                	test   %eax,%eax
    436c:	7e 0f                	jle    437d <e_refc_release+0x21>
    436e:	48 8b 45 f8          	mov    -0x8(%rbp),%rax
    4372:	8b 00                	mov    (%rax),%eax
    4374:	8d 50 ff             	lea    -0x1(%rax),%edx
    4377:	48 8b 45 f8          	mov    -0x8(%rbp),%rax
    437b:	89 10                	mov    %edx,(%rax)
    437d:	90                   	nop
    437e:	5d                   	pop    %rbp
    437f:	c3                   	ret

0000000000004380 <e_var_release>:
    4380:	55                   	push   %rbp
    4381:	48 89 e5             	mov    %rsp,%rbp
    4384:	48 83 ec 10          	sub    $0x10,%rsp
    4388:	48 89 7d f8          	mov    %rdi,-0x8(%rbp)
    438c:	48 8b 45 f8          	mov    -0x8(%rbp),%rax
    4390:	48 8b 40 08          	mov    0x8(%rax),%rax
    4394:	48 89 c7             	mov    %rax,%rdi
    4397:	e8 c0 ff ff ff       	call   435c <e_refc_release>
    439c:	48 8b 45 f8          	mov    -0x8(%rbp),%rax
    43a0:	48 8b 40 08          	mov    0x8(%rax),%rax
    43a4:	8b 00                	mov    (%rax),%eax
    43a6:	85 c0                	test   %eax,%eax
    43a8:	7f 0c                	jg     43b6 <e_var_release+0x36>
    43aa:	48 8b 45 f8          	mov    -0x8(%rbp),%rax
    43ae:	48 89 c7             	mov    %rax,%rdi
    43b1:	e8 fe 5a 00 00       	call   9eb4 <e_var_free>
    43b6:	90                   	nop
    43b7:	c9                   	leave
    43b8:	c3                   	ret

00000000000043b9 <e_hash_fnv>:
    43b9:	55                   	push   %rbp
    43ba:	48 89 e5             	mov    %rsp,%rbp
    43bd:	48 89 7d d8          	mov    %rdi,-0x28(%rbp)
    43c1:	48 89 75 d0          	mov    %rsi,-0x30(%rbp)
    43c5:	48 8b 45 d8          	mov    -0x28(%rbp),%rax
    43c9:	48 89 45 f8          	mov    %rax,-0x8(%rbp)
    43cd:	c7 45 ec c5 9d 1c 81 	movl   $0x811c9dc5,-0x14(%rbp)
    43d4:	48 c7 45 f0 00 00 00 	movq   $0x0,-0x10(%rbp)
    43db:	00 
    43dc:	eb 25                	jmp    4403 <e_hash_fnv+0x4a>
    43de:	48 8b 55 f8          	mov    -0x8(%rbp),%rdx
    43e2:	48 8b 45 f0          	mov    -0x10(%rbp),%rax
    43e6:	48 01 d0             	add    %rdx,%rax
    43e9:	0f b6 00             	movzbl (%rax),%eax
    43ec:	0f b6 c0             	movzbl %al,%eax
    43ef:	31 45 ec             	xor    %eax,-0x14(%rbp)
    43f2:	8b 45 ec             	mov    -0x14(%rbp),%eax
    43f5:	69 c0 93 01 00 01    	imul   $0x1000193,%eax,%eax
    43fb:	89 45 ec             	mov    %eax,-0x14(%rbp)
    43fe:	48 83 45 f0 01       	addq   $0x1,-0x10(%rbp)
    4403:	48 8b 45 f0          	mov    -0x10(%rbp),%rax
    4407:	48 3b 45 d0          	cmp    -0x30(%rbp),%rax
    440b:	72 d1                	jb     43de <e_hash_fnv+0x25>
    440d:	8b 45 ec             	mov    -0x14(%rbp),%eax
    4410:	5d                   	pop    %rbp
    4411:	c3                   	ret

0000000000004412 <e_file_load>:
    4412:	55                   	push   %rbp
    4413:	48 89 e5             	mov    %rsp,%rbp
    4416:	53                   	push   %rbx
    4417:	48 81 ec 98 00 00 00 	sub    $0x98,%rsp
    441e:	48 89 7d 98          	mov    %rdi,-0x68(%rbp)
    4422:	48 89 75 90          	mov    %rsi,-0x70(%rbp)
    4426:	48 89 55 88          	mov    %rdx,-0x78(%rbp)
    442a:	48 89 4d 80          	mov    %rcx,-0x80(%rbp)
    442e:	4c 89 85 78 ff ff ff 	mov    %r8,-0x88(%rbp)
    4435:	4c 89 8d 70 ff ff ff 	mov    %r9,-0x90(%rbp)
    443c:	48 8b 45 10          	mov    0x10(%rbp),%rax
    4440:	48 89 85 68 ff ff ff 	mov    %rax,-0x98(%rbp)
    4447:	64 48 8b 04 25 28 00 	mov    %fs:0x28,%rax
    444e:	00 00 
    4450:	48 89 45 e8          	mov    %rax,-0x18(%rbp)
    4454:	31 c0                	xor    %eax,%eax
    4456:	48 8b 55 98          	mov    -0x68(%rbp),%rdx
    445a:	48 8b 45 80          	mov    -0x80(%rbp),%rax
    445e:	48 89 d1             	mov    %rdx,%rcx
    4461:	ba 01 00 00 00       	mov    $0x1,%edx
    4466:	be 04 00 00 00       	mov    $0x4,%esi
    446b:	48 89 c7             	mov    %rax,%rdi
    446e:	e8 ed cb ff ff       	call   1060 <fread@plt>
    4473:	48 8b 45 80          	mov    -0x80(%rbp),%rax
    4477:	8b 00                	mov    (%rax),%eax
    4479:	89 c2                	mov    %eax,%edx
    447b:	48 89 d0             	mov    %rdx,%rax
    447e:	48 01 c0             	add    %rax,%rax
    4481:	48 01 d0             	add    %rdx,%rax
    4484:	48 c1 e0 03          	shl    $0x3,%rax
    4488:	48 89 c7             	mov    %rax,%rdi
    448b:	e8 b0 cc ff ff       	call   1140 <malloc@plt>
    4490:	48 89 45 b0          	mov    %rax,-0x50(%rbp)
    4494:	48 8b 85 78 ff ff ff 	mov    -0x88(%rbp),%rax
    449b:	48 8b 55 b0          	mov    -0x50(%rbp),%rdx
    449f:	48 89 10             	mov    %rdx,(%rax)
    44a2:	c7 45 a8 00 00 00 00 	movl   $0x0,-0x58(%rbp)
    44a9:	e9 5a 01 00 00       	jmp    4608 <e_file_load+0x1f6>
    44ae:	8b 45 a8             	mov    -0x58(%rbp),%eax
    44b1:	48 63 d0             	movslq %eax,%rdx
    44b4:	48 89 d0             	mov    %rdx,%rax
    44b7:	48 01 c0             	add    %rax,%rax
    44ba:	48 01 d0             	add    %rdx,%rax
    44bd:	48 c1 e0 03          	shl    $0x3,%rax
    44c1:	48 89 c2             	mov    %rax,%rdx
    44c4:	48 8b 45 b0          	mov    -0x50(%rbp),%rax
    44c8:	48 01 d0             	add    %rdx,%rax
    44cb:	48 89 c7             	mov    %rax,%rdi
    44ce:	48 8b 45 98          	mov    -0x68(%rbp),%rax
    44d2:	48 89 c1             	mov    %rax,%rcx
    44d5:	ba 01 00 00 00       	mov    $0x1,%edx
    44da:	be 04 00 00 00       	mov    $0x4,%esi
    44df:	e8 7c cb ff ff       	call   1060 <fread@plt>
    44e4:	8b 45 a8             	mov    -0x58(%rbp),%eax
    44e7:	48 63 d0             	movslq %eax,%rdx
    44ea:	48 89 d0             	mov    %rdx,%rax
    44ed:	48 01 c0             	add    %rax,%rax
    44f0:	48 01 d0             	add    %rdx,%rax
    44f3:	48 c1 e0 03          	shl    $0x3,%rax
    44f7:	48 89 c2             	mov    %rax,%rdx
    44fa:	48 8b 45 b0          	mov    -0x50(%rbp),%rax
    44fe:	48 01 d0             	add    %rdx,%rax
    4501:	48 89 45 b8          	mov    %rax,-0x48(%rbp)
    4505:	e8 2c fe ff ff       	call   4336 <e_refc_init>
    450a:	48 8b 55 b8          	mov    -0x48(%rbp),%rdx
    450e:	48 89 42 08          	mov    %rax,0x8(%rdx)
    4512:	8b 45 a8             	mov    -0x58(%rbp),%eax
    4515:	48 63 d0             	movslq %eax,%rdx
    4518:	48 89 d0             	mov    %rdx,%rax
    451b:	48 01 c0             	add    %rax,%rax
    451e:	48 01 d0             	add    %rdx,%rax
    4521:	48 c1 e0 03          	shl    $0x3,%rax
    4525:	48 89 c2             	mov    %rax,%rdx
    4528:	48 8b 45 b0          	mov    -0x50(%rbp),%rax
    452c:	48 01 d0             	add    %rdx,%rax
    452f:	8b 00                	mov    (%rax),%eax
    4531:	83 f8 05             	cmp    $0x5,%eax
    4534:	0f 85 93 00 00 00    	jne    45cd <e_file_load+0x1bb>
    453a:	c7 45 c0 00 00 00 00 	movl   $0x0,-0x40(%rbp)
    4541:	48 8b 55 98          	mov    -0x68(%rbp),%rdx
    4545:	48 8d 45 c0          	lea    -0x40(%rbp),%rax
    4549:	48 89 d1             	mov    %rdx,%rcx
    454c:	ba 01 00 00 00       	mov    $0x1,%edx
    4551:	be 04 00 00 00       	mov    $0x4,%esi
    4556:	48 89 c7             	mov    %rax,%rdi
    4559:	e8 02 cb ff ff       	call   1060 <fread@plt>
    455e:	bf 08 00 00 00       	mov    $0x8,%edi
    4563:	e8 d8 cb ff ff       	call   1140 <malloc@plt>
    4568:	48 89 c2             	mov    %rax,%rdx
    456b:	48 8b 45 b8          	mov    -0x48(%rbp),%rax
    456f:	48 89 50 10          	mov    %rdx,0x10(%rax)
    4573:	8b 45 c0             	mov    -0x40(%rbp),%eax
    4576:	83 c0 01             	add    $0x1,%eax
    4579:	89 c2                	mov    %eax,%edx
    457b:	48 8b 45 b8          	mov    -0x48(%rbp),%rax
    457f:	48 8b 58 10          	mov    0x10(%rax),%rbx
    4583:	48 89 d7             	mov    %rdx,%rdi
    4586:	e8 b5 cb ff ff       	call   1140 <malloc@plt>
    458b:	48 89 03             	mov    %rax,(%rbx)
    458e:	8b 45 c0             	mov    -0x40(%rbp),%eax
    4591:	89 c6                	mov    %eax,%esi
    4593:	48 8b 45 b8          	mov    -0x48(%rbp),%rax
    4597:	48 8b 40 10          	mov    0x10(%rax),%rax
    459b:	48 8b 00             	mov    (%rax),%rax
    459e:	48 8b 55 98          	mov    -0x68(%rbp),%rdx
    45a2:	48 89 d1             	mov    %rdx,%rcx
    45a5:	48 89 f2             	mov    %rsi,%rdx
    45a8:	be 01 00 00 00       	mov    $0x1,%esi
    45ad:	48 89 c7             	mov    %rax,%rdi
    45b0:	e8 ab ca ff ff       	call   1060 <fread@plt>
    45b5:	48 8b 45 b8          	mov    -0x48(%rbp),%rax
    45b9:	48 8b 40 10          	mov    0x10(%rax),%rax
    45bd:	48 8b 00             	mov    (%rax),%rax
    45c0:	8b 55 c0             	mov    -0x40(%rbp),%edx
    45c3:	89 d2                	mov    %edx,%edx
    45c5:	48 01 d0             	add    %rdx,%rax
    45c8:	c6 00 00             	movb   $0x0,(%rax)
    45cb:	eb 37                	jmp    4604 <e_file_load+0x1f2>
    45cd:	8b 45 a8             	mov    -0x58(%rbp),%eax
    45d0:	48 63 d0             	movslq %eax,%rdx
    45d3:	48 89 d0             	mov    %rdx,%rax
    45d6:	48 01 c0             	add    %rax,%rax
    45d9:	48 01 d0             	add    %rdx,%rax
    45dc:	48 c1 e0 03          	shl    $0x3,%rax
    45e0:	48 89 c2             	mov    %rax,%rdx
    45e3:	48 8b 45 b0          	mov    -0x50(%rbp),%rax
    45e7:	48 01 d0             	add    %rdx,%rax
    45ea:	48 8d 78 10          	lea    0x10(%rax),%rdi
    45ee:	48 8b 45 98          	mov    -0x68(%rbp),%rax
    45f2:	48 89 c1             	mov    %rax,%rcx
    45f5:	ba 01 00 00 00       	mov    $0x1,%edx
    45fa:	be 08 00 00 00       	mov    $0x8,%esi
    45ff:	e8 5c ca ff ff       	call   1060 <fread@plt>
    4604:	83 45 a8 01          	addl   $0x1,-0x58(%rbp)
    4608:	48 8b 45 80          	mov    -0x80(%rbp),%rax
    460c:	8b 00                	mov    (%rax),%eax
    460e:	8b 55 a8             	mov    -0x58(%rbp),%edx
    4611:	39 c2                	cmp    %eax,%edx
    4613:	0f 82 95 fe ff ff    	jb     44ae <e_file_load+0x9c>
    4619:	48 8b 55 98          	mov    -0x68(%rbp),%rdx
    461d:	48 8b 85 70 ff ff ff 	mov    -0x90(%rbp),%rax
    4624:	48 89 d1             	mov    %rdx,%rcx
    4627:	ba 01 00 00 00       	mov    $0x1,%edx
    462c:	be 04 00 00 00       	mov    $0x4,%esi
    4631:	48 89 c7             	mov    %rax,%rdi
    4634:	e8 27 ca ff ff       	call   1060 <fread@plt>
    4639:	48 8b 85 70 ff ff ff 	mov    -0x90(%rbp),%rax
    4640:	8b 00                	mov    (%rax),%eax
    4642:	89 c0                	mov    %eax,%eax
    4644:	48 c1 e0 05          	shl    $0x5,%rax
    4648:	48 89 c7             	mov    %rax,%rdi
    464b:	e8 f0 ca ff ff       	call   1140 <malloc@plt>
    4650:	48 89 c2             	mov    %rax,%rdx
    4653:	48 8b 85 68 ff ff ff 	mov    -0x98(%rbp),%rax
    465a:	48 89 10             	mov    %rdx,(%rax)
    465d:	c7 45 ac 00 00 00 00 	movl   $0x0,-0x54(%rbp)
    4664:	e9 fb 00 00 00       	jmp    4764 <e_file_load+0x352>
    4669:	48 8b 45 98          	mov    -0x68(%rbp),%rax
    466d:	48 8d 55 c0          	lea    -0x40(%rbp),%rdx
    4671:	48 8d 7a 14          	lea    0x14(%rdx),%rdi
    4675:	48 89 c1             	mov    %rax,%rcx
    4678:	ba 01 00 00 00       	mov    $0x1,%edx
    467d:	be 04 00 00 00       	mov    $0x4,%esi
    4682:	e8 d9 c9 ff ff       	call   1060 <fread@plt>
    4687:	48 8b 45 98          	mov    -0x68(%rbp),%rax
    468b:	48 8d 55 c0          	lea    -0x40(%rbp),%rdx
    468f:	48 8d 7a 18          	lea    0x18(%rdx),%rdi
    4693:	48 89 c1             	mov    %rax,%rcx
    4696:	ba 01 00 00 00       	mov    $0x1,%edx
    469b:	be 04 00 00 00       	mov    $0x4,%esi
    46a0:	e8 bb c9 ff ff       	call   1060 <fread@plt>
    46a5:	48 8b 45 98          	mov    -0x68(%rbp),%rax
    46a9:	48 8d 55 c0          	lea    -0x40(%rbp),%rdx
    46ad:	48 8d 7a 10          	lea    0x10(%rdx),%rdi
    46b1:	48 89 c1             	mov    %rax,%rcx
    46b4:	ba 01 00 00 00       	mov    $0x1,%edx
    46b9:	be 04 00 00 00       	mov    $0x4,%esi
    46be:	e8 9d c9 ff ff       	call   1060 <fread@plt>
    46c3:	8b 45 d8             	mov    -0x28(%rbp),%eax
    46c6:	89 c0                	mov    %eax,%eax
    46c8:	48 c1 e0 02          	shl    $0x2,%rax
    46cc:	48 89 c7             	mov    %rax,%rdi
    46cf:	e8 6c ca ff ff       	call   1140 <malloc@plt>
    46d4:	48 89 45 c8          	mov    %rax,-0x38(%rbp)
    46d8:	8b 45 d8             	mov    -0x28(%rbp),%eax
    46db:	89 c6                	mov    %eax,%esi
    46dd:	48 8b 45 c8          	mov    -0x38(%rbp),%rax
    46e1:	48 8b 55 98          	mov    -0x68(%rbp),%rdx
    46e5:	48 89 d1             	mov    %rdx,%rcx
    46e8:	48 89 f2             	mov    %rsi,%rdx
    46eb:	be 04 00 00 00       	mov    $0x4,%esi
    46f0:	48 89 c7             	mov    %rax,%rdi
    46f3:	e8 68 c9 ff ff       	call   1060 <fread@plt>
    46f8:	8b 45 d4             	mov    -0x2c(%rbp),%eax
    46fb:	89 c0                	mov    %eax,%eax
    46fd:	48 89 c7             	mov    %rax,%rdi
    4700:	e8 3b ca ff ff       	call   1140 <malloc@plt>
    4705:	48 89 45 c0          	mov    %rax,-0x40(%rbp)
    4709:	8b 45 d4             	mov    -0x2c(%rbp),%eax
    470c:	89 c6                	mov    %eax,%esi
    470e:	48 8b 45 c0          	mov    -0x40(%rbp),%rax
    4712:	48 8b 55 98          	mov    -0x68(%rbp),%rdx
    4716:	48 89 d1             	mov    %rdx,%rcx
    4719:	48 89 f2             	mov    %rsi,%rdx
    471c:	be 01 00 00 00       	mov    $0x1,%esi
    4721:	48 89 c7             	mov    %rax,%rdi
    4724:	e8 37 c9 ff ff       	call   1060 <fread@plt>
    4729:	48 8b 85 68 ff ff ff 	mov    -0x98(%rbp),%rax
    4730:	48 8b 00             	mov    (%rax),%rax
    4733:	8b 55 ac             	mov    -0x54(%rbp),%edx
    4736:	48 63 d2             	movslq %edx,%rdx
    4739:	48 c1 e2 05          	shl    $0x5,%rdx
    473d:	48 8d 0c 10          	lea    (%rax,%rdx,1),%rcx
    4741:	48 8b 45 c0          	mov    -0x40(%rbp),%rax
    4745:	48 8b 55 c8          	mov    -0x38(%rbp),%rdx
    4749:	48 89 01             	mov    %rax,(%rcx)
    474c:	48 89 51 08          	mov    %rdx,0x8(%rcx)
    4750:	48 8b 45 d0          	mov    -0x30(%rbp),%rax
    4754:	48 8b 55 d8          	mov    -0x28(%rbp),%rdx
    4758:	48 89 41 10          	mov    %rax,0x10(%rcx)
    475c:	48 89 51 18          	mov    %rdx,0x18(%rcx)
    4760:	83 45 ac 01          	addl   $0x1,-0x54(%rbp)
    4764:	48 8b 85 70 ff ff ff 	mov    -0x90(%rbp),%rax
    476b:	8b 00                	mov    (%rax),%eax
    476d:	8b 55 ac             	mov    -0x54(%rbp),%edx
    4770:	39 c2                	cmp    %eax,%edx
    4772:	0f 82 f1 fe ff ff    	jb     4669 <e_file_load+0x257>
    4778:	48 8b 55 98          	mov    -0x68(%rbp),%rdx
    477c:	48 8b 45 90          	mov    -0x70(%rbp),%rax
    4780:	48 89 d1             	mov    %rdx,%rcx
    4783:	ba 01 00 00 00       	mov    $0x1,%edx
    4788:	be 04 00 00 00       	mov    $0x4,%esi
    478d:	48 89 c7             	mov    %rax,%rdi
    4790:	e8 cb c8 ff ff       	call   1060 <fread@plt>
    4795:	48 8b 45 90          	mov    -0x70(%rbp),%rax
    4799:	8b 00                	mov    (%rax),%eax
    479b:	89 c0                	mov    %eax,%eax
    479d:	48 89 c7             	mov    %rax,%rdi
    47a0:	e8 9b c9 ff ff       	call   1140 <malloc@plt>
    47a5:	48 89 c2             	mov    %rax,%rdx
    47a8:	48 8b 45 88          	mov    -0x78(%rbp),%rax
    47ac:	48 89 10             	mov    %rdx,(%rax)
    47af:	48 8b 45 90          	mov    -0x70(%rbp),%rax
    47b3:	8b 00                	mov    (%rax),%eax
    47b5:	89 c6                	mov    %eax,%esi
    47b7:	48 8b 45 88          	mov    -0x78(%rbp),%rax
    47bb:	48 8b 00             	mov    (%rax),%rax
    47be:	48 8b 55 98          	mov    -0x68(%rbp),%rdx
    47c2:	48 89 d1             	mov    %rdx,%rcx
    47c5:	48 89 f2             	mov    %rsi,%rdx
    47c8:	be 01 00 00 00       	mov    $0x1,%esi
    47cd:	48 89 c7             	mov    %rax,%rdi
    47d0:	e8 8b c8 ff ff       	call   1060 <fread@plt>
    47d5:	90                   	nop
    47d6:	48 8b 45 e8          	mov    -0x18(%rbp),%rax
    47da:	64 48 2b 04 25 28 00 	sub    %fs:0x28,%rax
    47e1:	00 00 
    47e3:	74 05                	je     47ea <e_file_load+0x3d8>
    47e5:	e8 a6 c8 ff ff       	call   1090 <__stack_chk_fail@plt>
    47ea:	48 8b 5d f8          	mov    -0x8(%rbp),%rbx
    47ee:	c9                   	leave
    47ef:	c3                   	ret

00000000000047f0 <say_hello_from_c>:
    47f0:	55                   	push   %rbp
    47f1:	48 89 e5             	mov    %rsp,%rbp
    47f4:	48 83 ec 30          	sub    $0x30,%rsp
    47f8:	48 89 7d d8          	mov    %rdi,-0x28(%rbp)
    47fc:	48 89 75 d0          	mov    %rsi,-0x30(%rbp)
    4800:	48 8d 05 81 68 00 00 	lea    0x6881(%rip),%rax        # b088 <__PRETTY_FUNCTION__.0+0x15>
    4807:	48 89 c7             	mov    %rax,%rdi
    480a:	e8 41 c8 ff ff       	call   1050 <puts@plt>
    480f:	48 8b 45 d8          	mov    -0x28(%rbp),%rax
    4813:	66 0f ef c0          	pxor   %xmm0,%xmm0
    4817:	0f 11 00             	movups %xmm0,(%rax)
    481a:	66 0f d6 40 10       	movq   %xmm0,0x10(%rax)
    481f:	48 8b 45 d8          	mov    -0x28(%rbp),%rax
    4823:	c9                   	leave
    4824:	c3                   	ret

0000000000004825 <main>:
    4825:	55                   	push   %rbp
    4826:	48 89 e5             	mov    %rsp,%rbp
    4829:	48 81 ec f0 00 00 00 	sub    $0xf0,%rsp
    4830:	89 bd 1c ff ff ff    	mov    %edi,-0xe4(%rbp)
    4836:	48 89 b5 10 ff ff ff 	mov    %rsi,-0xf0(%rbp)
    483d:	64 48 8b 04 25 28 00 	mov    %fs:0x28,%rax
    4844:	00 00 
    4846:	48 89 45 f8          	mov    %rax,-0x8(%rbp)
    484a:	31 c0                	xor    %eax,%eax
    484c:	83 bd 1c ff ff ff 02 	cmpl   $0x2,-0xe4(%rbp)
    4853:	74 25                	je     487a <main+0x55>
    4855:	48 8d 15 a8 68 00 00 	lea    0x68a8(%rip),%rdx        # b104 <__PRETTY_FUNCTION__.0>
    485c:	48 8d 35 5d 68 00 00 	lea    0x685d(%rip),%rsi        # b0c0 <__PRETTY_FUNCTION__.0+0x4d>
    4863:	48 8d 05 61 68 00 00 	lea    0x6861(%rip),%rax        # b0cb <__PRETTY_FUNCTION__.0+0x58>
    486a:	48 89 d1             	mov    %rdx,%rcx
    486d:	ba 14 00 00 00       	mov    $0x14,%edx
    4872:	48 89 c7             	mov    %rax,%rdi
    4875:	e8 36 c8 ff ff       	call   10b0 <__assert_fail@plt>
    487a:	48 8b 85 10 ff ff ff 	mov    -0xf0(%rbp),%rax
    4881:	48 83 c0 08          	add    $0x8,%rax
    4885:	48 8b 00             	mov    (%rax),%rax
    4888:	48 8d 15 46 68 00 00 	lea    0x6846(%rip),%rdx        # b0d5 <__PRETTY_FUNCTION__.0+0x62>
    488f:	48 89 d6             	mov    %rdx,%rsi
    4892:	48 89 c7             	mov    %rax,%rdi
    4895:	e8 d6 c8 ff ff       	call   1170 <fopen@plt>
    489a:	48 89 85 58 ff ff ff 	mov    %rax,-0xa8(%rbp)
    48a1:	48 83 bd 58 ff ff ff 	cmpq   $0x0,-0xa8(%rbp)
    48a8:	00 
    48a9:	75 19                	jne    48c4 <main+0x9f>
    48ab:	48 8d 05 26 68 00 00 	lea    0x6826(%rip),%rax        # b0d8 <__PRETTY_FUNCTION__.0+0x65>
    48b2:	48 89 c7             	mov    %rax,%rdi
    48b5:	e8 c6 c8 ff ff       	call   1180 <perror@plt>
    48ba:	b8 ff ff ff ff       	mov    $0xffffffff,%eax
    48bf:	e9 17 02 00 00       	jmp    4adb <main+0x2b6>
    48c4:	4c 8d 8d 30 ff ff ff 	lea    -0xd0(%rbp),%r9
    48cb:	4c 8d 85 40 ff ff ff 	lea    -0xc0(%rbp),%r8
    48d2:	48 8d 8d 28 ff ff ff 	lea    -0xd8(%rbp),%rcx
    48d9:	48 8d 95 48 ff ff ff 	lea    -0xb8(%rbp),%rdx
    48e0:	48 8d b5 2c ff ff ff 	lea    -0xd4(%rbp),%rsi
    48e7:	48 8b 85 58 ff ff ff 	mov    -0xa8(%rbp),%rax
    48ee:	48 83 ec 08          	sub    $0x8,%rsp
    48f2:	48 8d bd 50 ff ff ff 	lea    -0xb0(%rbp),%rdi
    48f9:	57                   	push   %rdi
    48fa:	48 89 c7             	mov    %rax,%rdi
    48fd:	e8 10 fb ff ff       	call   4412 <e_file_load>
    4902:	48 83 c4 10          	add    $0x10,%rsp
    4906:	48 8d 05 e6 67 00 00 	lea    0x67e6(%rip),%rax        # b0f3 <__PRETTY_FUNCTION__.0+0x80>
    490d:	be 10 00 00 00       	mov    $0x10,%esi
    4912:	48 89 c7             	mov    %rax,%rdi
    4915:	e8 9f fa ff ff       	call   43b9 <e_hash_fnv>
    491a:	89 85 60 ff ff ff    	mov    %eax,-0xa0(%rbp)
    4920:	c7 85 64 ff ff ff 00 	movl   $0x0,-0x9c(%rbp)
    4927:	00 00 00 
    492a:	48 8d 05 bf fe ff ff 	lea    -0x141(%rip),%rax        # 47f0 <say_hello_from_c>
    4931:	48 89 85 68 ff ff ff 	mov    %rax,-0x98(%rbp)
    4938:	48 8b 85 48 ff ff ff 	mov    -0xb8(%rbp),%rax
    493f:	48 89 45 90          	mov    %rax,-0x70(%rbp)
    4943:	48 c7 45 98 00 00 00 	movq   $0x0,-0x68(%rbp)
    494a:	00 
    494b:	48 c7 45 a0 00 00 00 	movq   $0x0,-0x60(%rbp)
    4952:	00 
    4953:	48 8b 85 40 ff ff ff 	mov    -0xc0(%rbp),%rax
    495a:	48 89 45 a8          	mov    %rax,-0x58(%rbp)
    495e:	48 8b 85 50 ff ff ff 	mov    -0xb0(%rbp),%rax
    4965:	48 89 45 b0          	mov    %rax,-0x50(%rbp)
    4969:	48 8b 85 60 ff ff ff 	mov    -0xa0(%rbp),%rax
    4970:	48 8b 95 68 ff ff ff 	mov    -0x98(%rbp),%rdx
    4977:	48 89 45 e0          	mov    %rax,-0x20(%rbp)
    497b:	48 89 55 e8          	mov    %rdx,-0x18(%rbp)
    497f:	48 8d 45 e0          	lea    -0x20(%rbp),%rax
    4983:	48 89 45 b8          	mov    %rax,-0x48(%rbp)
    4987:	8b 85 2c ff ff ff    	mov    -0xd4(%rbp),%eax
    498d:	89 45 c0             	mov    %eax,-0x40(%rbp)
    4990:	c7 45 c4 00 00 00 00 	movl   $0x0,-0x3c(%rbp)
    4997:	8b 85 28 ff ff ff    	mov    -0xd8(%rbp),%eax
    499d:	89 45 c8             	mov    %eax,-0x38(%rbp)
    49a0:	8b 85 30 ff ff ff    	mov    -0xd0(%rbp),%eax
    49a6:	89 45 cc             	mov    %eax,-0x34(%rbp)
    49a9:	c7 45 d0 01 00 00 00 	movl   $0x1,-0x30(%rbp)
    49b0:	48 8d 85 70 ff ff ff 	lea    -0x90(%rbp),%rax
    49b7:	48 8d 55 90          	lea    -0x70(%rbp),%rdx
    49bb:	48 89 d6             	mov    %rdx,%rsi
    49be:	48 89 c7             	mov    %rax,%rdi
    49c1:	e8 2a e8 ff ff       	call   31f0 <e_exec>
    49c6:	48 8b 85 58 ff ff ff 	mov    -0xa8(%rbp),%rax
    49cd:	48 89 c7             	mov    %rax,%rdi
    49d0:	e8 9b c6 ff ff       	call   1070 <fclose@plt>
    49d5:	c7 85 34 ff ff ff 00 	movl   $0x0,-0xcc(%rbp)
    49dc:	00 00 00 
    49df:	eb 2c                	jmp    4a0d <main+0x1e8>
    49e1:	48 8b 8d 40 ff ff ff 	mov    -0xc0(%rbp),%rcx
    49e8:	8b 95 34 ff ff ff    	mov    -0xcc(%rbp),%edx
    49ee:	48 89 d0             	mov    %rdx,%rax
    49f1:	48 01 c0             	add    %rax,%rax
    49f4:	48 01 d0             	add    %rdx,%rax
    49f7:	48 c1 e0 03          	shl    $0x3,%rax
    49fb:	48 01 c8             	add    %rcx,%rax
    49fe:	48 89 c7             	mov    %rax,%rdi
    4a01:	e8 7a f9 ff ff       	call   4380 <e_var_release>
    4a06:	83 85 34 ff ff ff 01 	addl   $0x1,-0xcc(%rbp)
    4a0d:	8b 85 28 ff ff ff    	mov    -0xd8(%rbp),%eax
    4a13:	39 85 34 ff ff ff    	cmp    %eax,-0xcc(%rbp)
    4a19:	72 c6                	jb     49e1 <main+0x1bc>
    4a1b:	48 8b 85 40 ff ff ff 	mov    -0xc0(%rbp),%rax
    4a22:	48 89 c7             	mov    %rax,%rdi
    4a25:	e8 06 c6 ff ff       	call   1030 <free@plt>
    4a2a:	48 8b 85 48 ff ff ff 	mov    -0xb8(%rbp),%rax
    4a31:	48 89 c7             	mov    %rax,%rdi
    4a34:	e8 f7 c5 ff ff       	call   1030 <free@plt>
    4a39:	c7 85 38 ff ff ff 00 	movl   $0x0,-0xc8(%rbp)
    4a40:	00 00 00 
    4a43:	eb 46                	jmp    4a8b <main+0x266>
    4a45:	48 8b 85 50 ff ff ff 	mov    -0xb0(%rbp),%rax
    4a4c:	8b 95 38 ff ff ff    	mov    -0xc8(%rbp),%edx
    4a52:	48 c1 e2 05          	shl    $0x5,%rdx
    4a56:	48 01 d0             	add    %rdx,%rax
    4a59:	48 8b 40 08          	mov    0x8(%rax),%rax
    4a5d:	48 89 c7             	mov    %rax,%rdi
    4a60:	e8 cb c5 ff ff       	call   1030 <free@plt>
    4a65:	48 8b 85 50 ff ff ff 	mov    -0xb0(%rbp),%rax
    4a6c:	8b 95 38 ff ff ff    	mov    -0xc8(%rbp),%edx
    4a72:	48 c1 e2 05          	shl    $0x5,%rdx
    4a76:	48 01 d0             	add    %rdx,%rax
    4a79:	48 8b 00             	mov    (%rax),%rax
    4a7c:	48 89 c7             	mov    %rax,%rdi
    4a7f:	e8 ac c5 ff ff       	call   1030 <free@plt>
    4a84:	83 85 38 ff ff ff 01 	addl   $0x1,-0xc8(%rbp)
    4a8b:	8b 85 30 ff ff ff    	mov    -0xd0(%rbp),%eax
    4a91:	39 85 38 ff ff ff    	cmp    %eax,-0xc8(%rbp)
    4a97:	72 ac                	jb     4a45 <main+0x220>
    4a99:	48 8b 85 50 ff ff ff 	mov    -0xb0(%rbp),%rax
    4aa0:	48 89 c7             	mov    %rax,%rdi
    4aa3:	e8 88 c5 ff ff       	call   1030 <free@plt>
    4aa8:	c7 85 3c ff ff ff 00 	movl   $0x0,-0xc4(%rbp)
    4aaf:	00 00 00 
    4ab2:	8b 85 70 ff ff ff    	mov    -0x90(%rbp),%eax
    4ab8:	83 f8 01             	cmp    $0x1,%eax
    4abb:	75 09                	jne    4ac6 <main+0x2a1>
    4abd:	8b 45 80             	mov    -0x80(%rbp),%eax
    4ac0:	89 85 3c ff ff ff    	mov    %eax,-0xc4(%rbp)
    4ac6:	48 8d 85 70 ff ff ff 	lea    -0x90(%rbp),%rax
    4acd:	48 89 c7             	mov    %rax,%rdi
    4ad0:	e8 ab f8 ff ff       	call   4380 <e_var_release>
    4ad5:	8b 85 3c ff ff ff    	mov    -0xc4(%rbp),%eax
    4adb:	48 8b 55 f8          	mov    -0x8(%rbp),%rdx
    4adf:	64 48 2b 14 25 28 00 	sub    %fs:0x28,%rdx
    4ae6:	00 00 
    4ae8:	74 05                	je     4aef <main+0x2ca>
    4aea:	e8 a1 c5 ff ff       	call   1090 <__stack_chk_fail@plt>
    4aef:	c9                   	leave
    4af0:	c3                   	ret

0000000000004af1 <e_tokentype_to_string>:
    4af1:	55                   	push   %rbp
    4af2:	48 89 e5             	mov    %rsp,%rbp
    4af5:	89 7d fc             	mov    %edi,-0x4(%rbp)
    4af8:	83 7d fc 2c          	cmpl   $0x2c,-0x4(%rbp)
    4afc:	0f 84 03 04 00 00    	je     4f05 <e_tokentype_to_string+0x414>
    4b02:	83 7d fc 2c          	cmpl   $0x2c,-0x4(%rbp)
    4b06:	0f 87 e3 04 00 00    	ja     4fef <e_tokentype_to_string+0x4fe>
    4b0c:	83 7d fc 2b          	cmpl   $0x2b,-0x4(%rbp)
    4b10:	0f 84 d0 04 00 00    	je     4fe6 <e_tokentype_to_string+0x4f5>
    4b16:	83 7d fc 2b          	cmpl   $0x2b,-0x4(%rbp)
    4b1a:	0f 87 cf 04 00 00    	ja     4fef <e_tokentype_to_string+0x4fe>
    4b20:	83 7d fc 2a          	cmpl   $0x2a,-0x4(%rbp)
    4b24:	0f 84 b3 04 00 00    	je     4fdd <e_tokentype_to_string+0x4ec>
    4b2a:	83 7d fc 2a          	cmpl   $0x2a,-0x4(%rbp)
    4b2e:	0f 87 bb 04 00 00    	ja     4fef <e_tokentype_to_string+0x4fe>
    4b34:	83 7d fc 29          	cmpl   $0x29,-0x4(%rbp)
    4b38:	0f 84 96 04 00 00    	je     4fd4 <e_tokentype_to_string+0x4e3>
    4b3e:	83 7d fc 29          	cmpl   $0x29,-0x4(%rbp)
    4b42:	0f 87 a7 04 00 00    	ja     4fef <e_tokentype_to_string+0x4fe>
    4b48:	83 7d fc 28          	cmpl   $0x28,-0x4(%rbp)
    4b4c:	0f 84 79 04 00 00    	je     4fcb <e_tokentype_to_string+0x4da>
    4b52:	83 7d fc 28          	cmpl   $0x28,-0x4(%rbp)
    4b56:	0f 87 93 04 00 00    	ja     4fef <e_tokentype_to_string+0x4fe>
    4b5c:	83 7d fc 27          	cmpl   $0x27,-0x4(%rbp)
    4b60:	0f 84 93 03 00 00    	je     4ef9 <e_tokentype_to_string+0x408>
    4b66:	83 7d fc 27          	cmpl   $0x27,-0x4(%rbp)
    4b6a:	0f 87 7f 04 00 00    	ja     4fef <e_tokentype_to_string+0x4fe>
    4b70:	83 7d fc 26          	cmpl   $0x26,-0x4(%rbp)
    4b74:	0f 84 48 04 00 00    	je     4fc2 <e_tokentype_to_string+0x4d1>
    4b7a:	83 7d fc 26          	cmpl   $0x26,-0x4(%rbp)
    4b7e:	0f 87 6b 04 00 00    	ja     4fef <e_tokentype_to_string+0x4fe>
    4b84:	83 7d fc 25          	cmpl   $0x25,-0x4(%rbp)
    4b88:	0f 84 5f 03 00 00    	je     4eed <e_tokentype_to_string+0x3fc>
    4b8e:	83 7d fc 25          	cmpl   $0x25,-0x4(%rbp)
    4b92:	0f 87 57 04 00 00    	ja     4fef <e_tokentype_to_string+0x4fe>
    4b98:	83 7d fc 24          	cmpl   $0x24,-0x4(%rbp)
    4b9c:	0f 84 17 04 00 00    	je     4fb9 <e_tokentype_to_string+0x4c8>
    4ba2:	83 7d fc 24          	cmpl   $0x24,-0x4(%rbp)
    4ba6:	0f 87 43 04 00 00    	ja     4fef <e_tokentype_to_string+0x4fe>
    4bac:	83 7d fc 20          	cmpl   $0x20,-0x4(%rbp)
    4bb0:	0f 84 fa 03 00 00    	je     4fb0 <e_tokentype_to_string+0x4bf>
    4bb6:	83 7d fc 20          	cmpl   $0x20,-0x4(%rbp)
    4bba:	0f 87 2f 04 00 00    	ja     4fef <e_tokentype_to_string+0x4fe>
    4bc0:	83 7d fc 1f          	cmpl   $0x1f,-0x4(%rbp)
    4bc4:	0f 84 17 03 00 00    	je     4ee1 <e_tokentype_to_string+0x3f0>
    4bca:	83 7d fc 1f          	cmpl   $0x1f,-0x4(%rbp)
    4bce:	0f 87 1b 04 00 00    	ja     4fef <e_tokentype_to_string+0x4fe>
    4bd4:	83 7d fc 1e          	cmpl   $0x1e,-0x4(%rbp)
    4bd8:	0f 84 f7 02 00 00    	je     4ed5 <e_tokentype_to_string+0x3e4>
    4bde:	83 7d fc 1e          	cmpl   $0x1e,-0x4(%rbp)
    4be2:	0f 87 07 04 00 00    	ja     4fef <e_tokentype_to_string+0x4fe>
    4be8:	83 7d fc 1d          	cmpl   $0x1d,-0x4(%rbp)
    4bec:	0f 84 b5 03 00 00    	je     4fa7 <e_tokentype_to_string+0x4b6>
    4bf2:	83 7d fc 1d          	cmpl   $0x1d,-0x4(%rbp)
    4bf6:	0f 87 f3 03 00 00    	ja     4fef <e_tokentype_to_string+0x4fe>
    4bfc:	83 7d fc 1c          	cmpl   $0x1c,-0x4(%rbp)
    4c00:	0f 84 98 03 00 00    	je     4f9e <e_tokentype_to_string+0x4ad>
    4c06:	83 7d fc 1c          	cmpl   $0x1c,-0x4(%rbp)
    4c0a:	0f 87 df 03 00 00    	ja     4fef <e_tokentype_to_string+0x4fe>
    4c10:	83 7d fc 1b          	cmpl   $0x1b,-0x4(%rbp)
    4c14:	0f 84 af 02 00 00    	je     4ec9 <e_tokentype_to_string+0x3d8>
    4c1a:	83 7d fc 1b          	cmpl   $0x1b,-0x4(%rbp)
    4c1e:	0f 87 cb 03 00 00    	ja     4fef <e_tokentype_to_string+0x4fe>
    4c24:	83 7d fc 1a          	cmpl   $0x1a,-0x4(%rbp)
    4c28:	0f 84 8f 02 00 00    	je     4ebd <e_tokentype_to_string+0x3cc>
    4c2e:	83 7d fc 1a          	cmpl   $0x1a,-0x4(%rbp)
    4c32:	0f 87 b7 03 00 00    	ja     4fef <e_tokentype_to_string+0x4fe>
    4c38:	83 7d fc 19          	cmpl   $0x19,-0x4(%rbp)
    4c3c:	0f 84 6f 02 00 00    	je     4eb1 <e_tokentype_to_string+0x3c0>
    4c42:	83 7d fc 19          	cmpl   $0x19,-0x4(%rbp)
    4c46:	0f 87 a3 03 00 00    	ja     4fef <e_tokentype_to_string+0x4fe>
    4c4c:	83 7d fc 18          	cmpl   $0x18,-0x4(%rbp)
    4c50:	0f 84 4f 02 00 00    	je     4ea5 <e_tokentype_to_string+0x3b4>
    4c56:	83 7d fc 18          	cmpl   $0x18,-0x4(%rbp)
    4c5a:	0f 87 8f 03 00 00    	ja     4fef <e_tokentype_to_string+0x4fe>
    4c60:	83 7d fc 17          	cmpl   $0x17,-0x4(%rbp)
    4c64:	0f 84 2f 02 00 00    	je     4e99 <e_tokentype_to_string+0x3a8>
    4c6a:	83 7d fc 17          	cmpl   $0x17,-0x4(%rbp)
    4c6e:	0f 87 7b 03 00 00    	ja     4fef <e_tokentype_to_string+0x4fe>
    4c74:	83 7d fc 16          	cmpl   $0x16,-0x4(%rbp)
    4c78:	0f 84 0f 02 00 00    	je     4e8d <e_tokentype_to_string+0x39c>
    4c7e:	83 7d fc 16          	cmpl   $0x16,-0x4(%rbp)
    4c82:	0f 87 67 03 00 00    	ja     4fef <e_tokentype_to_string+0x4fe>
    4c88:	83 7d fc 15          	cmpl   $0x15,-0x4(%rbp)
    4c8c:	0f 84 03 03 00 00    	je     4f95 <e_tokentype_to_string+0x4a4>
    4c92:	83 7d fc 15          	cmpl   $0x15,-0x4(%rbp)
    4c96:	0f 87 53 03 00 00    	ja     4fef <e_tokentype_to_string+0x4fe>
    4c9c:	83 7d fc 14          	cmpl   $0x14,-0x4(%rbp)
    4ca0:	0f 84 e6 02 00 00    	je     4f8c <e_tokentype_to_string+0x49b>
    4ca6:	83 7d fc 14          	cmpl   $0x14,-0x4(%rbp)
    4caa:	0f 87 3f 03 00 00    	ja     4fef <e_tokentype_to_string+0x4fe>
    4cb0:	83 7d fc 13          	cmpl   $0x13,-0x4(%rbp)
    4cb4:	0f 84 c9 02 00 00    	je     4f83 <e_tokentype_to_string+0x492>
    4cba:	83 7d fc 13          	cmpl   $0x13,-0x4(%rbp)
    4cbe:	0f 87 2b 03 00 00    	ja     4fef <e_tokentype_to_string+0x4fe>
    4cc4:	83 7d fc 12          	cmpl   $0x12,-0x4(%rbp)
    4cc8:	0f 84 ac 02 00 00    	je     4f7a <e_tokentype_to_string+0x489>
    4cce:	83 7d fc 12          	cmpl   $0x12,-0x4(%rbp)
    4cd2:	0f 87 17 03 00 00    	ja     4fef <e_tokentype_to_string+0x4fe>
    4cd8:	83 7d fc 11          	cmpl   $0x11,-0x4(%rbp)
    4cdc:	0f 84 8f 02 00 00    	je     4f71 <e_tokentype_to_string+0x480>
    4ce2:	83 7d fc 11          	cmpl   $0x11,-0x4(%rbp)
    4ce6:	0f 87 03 03 00 00    	ja     4fef <e_tokentype_to_string+0x4fe>
    4cec:	83 7d fc 10          	cmpl   $0x10,-0x4(%rbp)
    4cf0:	0f 84 6f 02 00 00    	je     4f65 <e_tokentype_to_string+0x474>
    4cf6:	83 7d fc 10          	cmpl   $0x10,-0x4(%rbp)
    4cfa:	0f 87 ef 02 00 00    	ja     4fef <e_tokentype_to_string+0x4fe>
    4d00:	83 7d fc 0f          	cmpl   $0xf,-0x4(%rbp)
    4d04:	0f 84 4f 02 00 00    	je     4f59 <e_tokentype_to_string+0x468>
    4d0a:	83 7d fc 0f          	cmpl   $0xf,-0x4(%rbp)
    4d0e:	0f 87 db 02 00 00    	ja     4fef <e_tokentype_to_string+0x4fe>
    4d14:	83 7d fc 0e          	cmpl   $0xe,-0x4(%rbp)
    4d18:	0f 84 63 01 00 00    	je     4e81 <e_tokentype_to_string+0x390>
    4d1e:	83 7d fc 0e          	cmpl   $0xe,-0x4(%rbp)
    4d22:	0f 87 c7 02 00 00    	ja     4fef <e_tokentype_to_string+0x4fe>
    4d28:	83 7d fc 0d          	cmpl   $0xd,-0x4(%rbp)
    4d2c:	0f 84 43 01 00 00    	je     4e75 <e_tokentype_to_string+0x384>
    4d32:	83 7d fc 0d          	cmpl   $0xd,-0x4(%rbp)
    4d36:	0f 87 b3 02 00 00    	ja     4fef <e_tokentype_to_string+0x4fe>
    4d3c:	83 7d fc 0c          	cmpl   $0xc,-0x4(%rbp)
    4d40:	0f 84 23 01 00 00    	je     4e69 <e_tokentype_to_string+0x378>
    4d46:	83 7d fc 0c          	cmpl   $0xc,-0x4(%rbp)
    4d4a:	0f 87 9f 02 00 00    	ja     4fef <e_tokentype_to_string+0x4fe>
    4d50:	83 7d fc 0b          	cmpl   $0xb,-0x4(%rbp)
    4d54:	0f 84 03 01 00 00    	je     4e5d <e_tokentype_to_string+0x36c>
    4d5a:	83 7d fc 0b          	cmpl   $0xb,-0x4(%rbp)
    4d5e:	0f 87 8b 02 00 00    	ja     4fef <e_tokentype_to_string+0x4fe>
    4d64:	83 7d fc 0a          	cmpl   $0xa,-0x4(%rbp)
    4d68:	0f 84 df 01 00 00    	je     4f4d <e_tokentype_to_string+0x45c>
    4d6e:	83 7d fc 0a          	cmpl   $0xa,-0x4(%rbp)
    4d72:	0f 87 77 02 00 00    	ja     4fef <e_tokentype_to_string+0x4fe>
    4d78:	83 7d fc 09          	cmpl   $0x9,-0x4(%rbp)
    4d7c:	0f 84 bf 01 00 00    	je     4f41 <e_tokentype_to_string+0x450>
    4d82:	83 7d fc 09          	cmpl   $0x9,-0x4(%rbp)
    4d86:	0f 87 63 02 00 00    	ja     4fef <e_tokentype_to_string+0x4fe>
    4d8c:	83 7d fc 08          	cmpl   $0x8,-0x4(%rbp)
    4d90:	0f 84 bb 00 00 00    	je     4e51 <e_tokentype_to_string+0x360>
    4d96:	83 7d fc 08          	cmpl   $0x8,-0x4(%rbp)
    4d9a:	0f 87 4f 02 00 00    	ja     4fef <e_tokentype_to_string+0x4fe>
    4da0:	83 7d fc 07          	cmpl   $0x7,-0x4(%rbp)
    4da4:	0f 84 8b 01 00 00    	je     4f35 <e_tokentype_to_string+0x444>
    4daa:	83 7d fc 07          	cmpl   $0x7,-0x4(%rbp)
    4dae:	0f 87 3b 02 00 00    	ja     4fef <e_tokentype_to_string+0x4fe>
    4db4:	83 7d fc 06          	cmpl   $0x6,-0x4(%rbp)
    4db8:	0f 84 6b 01 00 00    	je     4f29 <e_tokentype_to_string+0x438>
    4dbe:	83 7d fc 06          	cmpl   $0x6,-0x4(%rbp)
    4dc2:	0f 87 27 02 00 00    	ja     4fef <e_tokentype_to_string+0x4fe>
    4dc8:	83 7d fc 05          	cmpl   $0x5,-0x4(%rbp)
    4dcc:	0f 84 4b 01 00 00    	je     4f1d <e_tokentype_to_string+0x42c>
    4dd2:	83 7d fc 05          	cmpl   $0x5,-0x4(%rbp)
    4dd6:	0f 87 13 02 00 00    	ja     4fef <e_tokentype_to_string+0x4fe>
    4ddc:	83 7d fc 04          	cmpl   $0x4,-0x4(%rbp)
    4de0:	0f 84 2b 01 00 00    	je     4f11 <e_tokentype_to_string+0x420>
    4de6:	83 7d fc 04          	cmpl   $0x4,-0x4(%rbp)
    4dea:	0f 87 ff 01 00 00    	ja     4fef <e_tokentype_to_string+0x4fe>
    4df0:	83 7d fc 03          	cmpl   $0x3,-0x4(%rbp)
    4df4:	74 4f                	je     4e45 <e_tokentype_to_string+0x354>
    4df6:	83 7d fc 03          	cmpl   $0x3,-0x4(%rbp)
    4dfa:	0f 87 ef 01 00 00    	ja     4fef <e_tokentype_to_string+0x4fe>
    4e00:	83 7d fc 02          	cmpl   $0x2,-0x4(%rbp)
    4e04:	74 33                	je     4e39 <e_tokentype_to_string+0x348>
    4e06:	83 7d fc 02          	cmpl   $0x2,-0x4(%rbp)
    4e0a:	0f 87 df 01 00 00    	ja     4fef <e_tokentype_to_string+0x4fe>
    4e10:	83 7d fc 00          	cmpl   $0x0,-0x4(%rbp)
    4e14:	74 0b                	je     4e21 <e_tokentype_to_string+0x330>
    4e16:	83 7d fc 01          	cmpl   $0x1,-0x4(%rbp)
    4e1a:	74 11                	je     4e2d <e_tokentype_to_string+0x33c>
    4e1c:	e9 ce 01 00 00       	jmp    4fef <e_tokentype_to_string+0x4fe>
    4e21:	48 8d 05 e8 62 00 00 	lea    0x62e8(%rip),%rax        # b110 <__PRETTY_FUNCTION__.0+0xc>
    4e28:	e9 c9 01 00 00       	jmp    4ff6 <e_tokentype_to_string+0x505>
    4e2d:	48 8d 05 e0 62 00 00 	lea    0x62e0(%rip),%rax        # b114 <__PRETTY_FUNCTION__.0+0x10>
    4e34:	e9 bd 01 00 00       	jmp    4ff6 <e_tokentype_to_string+0x505>
    4e39:	48 8d 05 de 62 00 00 	lea    0x62de(%rip),%rax        # b11e <__PRETTY_FUNCTION__.0+0x1a>
    4e40:	e9 b1 01 00 00       	jmp    4ff6 <e_tokentype_to_string+0x505>
    4e45:	48 8d 05 d8 62 00 00 	lea    0x62d8(%rip),%rax        # b124 <__PRETTY_FUNCTION__.0+0x20>
    4e4c:	e9 a5 01 00 00       	jmp    4ff6 <e_tokentype_to_string+0x505>
    4e51:	48 8d 05 d2 62 00 00 	lea    0x62d2(%rip),%rax        # b12a <__PRETTY_FUNCTION__.0+0x26>
    4e58:	e9 99 01 00 00       	jmp    4ff6 <e_tokentype_to_string+0x505>
    4e5d:	48 8d 05 ca 62 00 00 	lea    0x62ca(%rip),%rax        # b12e <__PRETTY_FUNCTION__.0+0x2a>
    4e64:	e9 8d 01 00 00       	jmp    4ff6 <e_tokentype_to_string+0x505>
    4e69:	48 8d 05 c4 62 00 00 	lea    0x62c4(%rip),%rax        # b134 <__PRETTY_FUNCTION__.0+0x30>
    4e70:	e9 81 01 00 00       	jmp    4ff6 <e_tokentype_to_string+0x505>
    4e75:	48 8d 05 bf 62 00 00 	lea    0x62bf(%rip),%rax        # b13b <__PRETTY_FUNCTION__.0+0x37>
    4e7c:	e9 75 01 00 00       	jmp    4ff6 <e_tokentype_to_string+0x505>
    4e81:	48 8d 05 b6 62 00 00 	lea    0x62b6(%rip),%rax        # b13e <__PRETTY_FUNCTION__.0+0x3a>
    4e88:	e9 69 01 00 00       	jmp    4ff6 <e_tokentype_to_string+0x505>
    4e8d:	48 8d 05 ae 62 00 00 	lea    0x62ae(%rip),%rax        # b142 <__PRETTY_FUNCTION__.0+0x3e>
    4e94:	e9 5d 01 00 00       	jmp    4ff6 <e_tokentype_to_string+0x505>
    4e99:	48 8d 05 a7 62 00 00 	lea    0x62a7(%rip),%rax        # b147 <__PRETTY_FUNCTION__.0+0x43>
    4ea0:	e9 51 01 00 00       	jmp    4ff6 <e_tokentype_to_string+0x505>
    4ea5:	48 8d 05 a1 62 00 00 	lea    0x62a1(%rip),%rax        # b14d <__PRETTY_FUNCTION__.0+0x49>
    4eac:	e9 45 01 00 00       	jmp    4ff6 <e_tokentype_to_string+0x505>
    4eb1:	48 8d 05 9e 62 00 00 	lea    0x629e(%rip),%rax        # b156 <__PRETTY_FUNCTION__.0+0x52>
    4eb8:	e9 39 01 00 00       	jmp    4ff6 <e_tokentype_to_string+0x505>
    4ebd:	48 8d 05 99 62 00 00 	lea    0x6299(%rip),%rax        # b15d <__PRETTY_FUNCTION__.0+0x59>
    4ec4:	e9 2d 01 00 00       	jmp    4ff6 <e_tokentype_to_string+0x505>
    4ec9:	48 8d 05 96 62 00 00 	lea    0x6296(%rip),%rax        # b166 <__PRETTY_FUNCTION__.0+0x62>
    4ed0:	e9 21 01 00 00       	jmp    4ff6 <e_tokentype_to_string+0x505>
    4ed5:	48 8d 05 8e 62 00 00 	lea    0x628e(%rip),%rax        # b16a <__PRETTY_FUNCTION__.0+0x66>
    4edc:	e9 15 01 00 00       	jmp    4ff6 <e_tokentype_to_string+0x505>
    4ee1:	48 8d 05 86 62 00 00 	lea    0x6286(%rip),%rax        # b16e <__PRETTY_FUNCTION__.0+0x6a>
    4ee8:	e9 09 01 00 00       	jmp    4ff6 <e_tokentype_to_string+0x505>
    4eed:	48 8d 05 7d 62 00 00 	lea    0x627d(%rip),%rax        # b171 <__PRETTY_FUNCTION__.0+0x6d>
    4ef4:	e9 fd 00 00 00       	jmp    4ff6 <e_tokentype_to_string+0x505>
    4ef9:	48 8d 05 77 62 00 00 	lea    0x6277(%rip),%rax        # b177 <__PRETTY_FUNCTION__.0+0x73>
    4f00:	e9 f1 00 00 00       	jmp    4ff6 <e_tokentype_to_string+0x505>
    4f05:	48 8d 05 77 62 00 00 	lea    0x6277(%rip),%rax        # b183 <__PRETTY_FUNCTION__.0+0x7f>
    4f0c:	e9 e5 00 00 00       	jmp    4ff6 <e_tokentype_to_string+0x505>
    4f11:	48 8d 05 71 62 00 00 	lea    0x6271(%rip),%rax        # b189 <__PRETTY_FUNCTION__.0+0x85>
    4f18:	e9 d9 00 00 00       	jmp    4ff6 <e_tokentype_to_string+0x505>
    4f1d:	48 8d 05 6f 62 00 00 	lea    0x626f(%rip),%rax        # b193 <__PRETTY_FUNCTION__.0+0x8f>
    4f24:	e9 cd 00 00 00       	jmp    4ff6 <e_tokentype_to_string+0x505>
    4f29:	48 8d 05 6e 62 00 00 	lea    0x626e(%rip),%rax        # b19e <__PRETTY_FUNCTION__.0+0x9a>
    4f30:	e9 c1 00 00 00       	jmp    4ff6 <e_tokentype_to_string+0x505>
    4f35:	48 8d 05 6c 62 00 00 	lea    0x626c(%rip),%rax        # b1a8 <__PRETTY_FUNCTION__.0+0xa4>
    4f3c:	e9 b5 00 00 00       	jmp    4ff6 <e_tokentype_to_string+0x505>
    4f41:	48 8d 05 6b 62 00 00 	lea    0x626b(%rip),%rax        # b1b3 <__PRETTY_FUNCTION__.0+0xaf>
    4f48:	e9 a9 00 00 00       	jmp    4ff6 <e_tokentype_to_string+0x505>
    4f4d:	48 8d 05 64 62 00 00 	lea    0x6264(%rip),%rax        # b1b8 <__PRETTY_FUNCTION__.0+0xb4>
    4f54:	e9 9d 00 00 00       	jmp    4ff6 <e_tokentype_to_string+0x505>
    4f59:	48 8d 05 5d 62 00 00 	lea    0x625d(%rip),%rax        # b1bd <__PRETTY_FUNCTION__.0+0xb9>
    4f60:	e9 91 00 00 00       	jmp    4ff6 <e_tokentype_to_string+0x505>
    4f65:	48 8d 05 54 62 00 00 	lea    0x6254(%rip),%rax        # b1c0 <__PRETTY_FUNCTION__.0+0xbc>
    4f6c:	e9 85 00 00 00       	jmp    4ff6 <e_tokentype_to_string+0x505>
    4f71:	48 8d 05 4d 62 00 00 	lea    0x624d(%rip),%rax        # b1c5 <__PRETTY_FUNCTION__.0+0xc1>
    4f78:	eb 7c                	jmp    4ff6 <e_tokentype_to_string+0x505>
    4f7a:	48 8d 05 4a 62 00 00 	lea    0x624a(%rip),%rax        # b1cb <__PRETTY_FUNCTION__.0+0xc7>
    4f81:	eb 73                	jmp    4ff6 <e_tokentype_to_string+0x505>
    4f83:	48 8d 05 45 62 00 00 	lea    0x6245(%rip),%rax        # b1cf <__PRETTY_FUNCTION__.0+0xcb>
    4f8a:	eb 6a                	jmp    4ff6 <e_tokentype_to_string+0x505>
    4f8c:	48 8d 05 42 62 00 00 	lea    0x6242(%rip),%rax        # b1d5 <__PRETTY_FUNCTION__.0+0xd1>
    4f93:	eb 61                	jmp    4ff6 <e_tokentype_to_string+0x505>
    4f95:	48 8d 05 42 62 00 00 	lea    0x6242(%rip),%rax        # b1de <__PRETTY_FUNCTION__.0+0xda>
    4f9c:	eb 58                	jmp    4ff6 <e_tokentype_to_string+0x505>
    4f9e:	48 8d 05 40 62 00 00 	lea    0x6240(%rip),%rax        # b1e5 <__PRETTY_FUNCTION__.0+0xe1>
    4fa5:	eb 4f                	jmp    4ff6 <e_tokentype_to_string+0x505>
    4fa7:	48 8d 05 40 62 00 00 	lea    0x6240(%rip),%rax        # b1ee <__PRETTY_FUNCTION__.0+0xea>
    4fae:	eb 46                	jmp    4ff6 <e_tokentype_to_string+0x505>
    4fb0:	48 8d 05 42 62 00 00 	lea    0x6242(%rip),%rax        # b1f9 <__PRETTY_FUNCTION__.0+0xf5>
    4fb7:	eb 3d                	jmp    4ff6 <e_tokentype_to_string+0x505>
    4fb9:	48 8d 05 3d 62 00 00 	lea    0x623d(%rip),%rax        # b1fd <__PRETTY_FUNCTION__.0+0xf9>
    4fc0:	eb 34                	jmp    4ff6 <e_tokentype_to_string+0x505>
    4fc2:	48 8d 05 39 62 00 00 	lea    0x6239(%rip),%rax        # b202 <__PRETTY_FUNCTION__.0+0xfe>
    4fc9:	eb 2b                	jmp    4ff6 <e_tokentype_to_string+0x505>
    4fcb:	48 8d 05 39 62 00 00 	lea    0x6239(%rip),%rax        # b20b <__PRETTY_FUNCTION__.0+0x107>
    4fd2:	eb 22                	jmp    4ff6 <e_tokentype_to_string+0x505>
    4fd4:	48 8d 05 33 62 00 00 	lea    0x6233(%rip),%rax        # b20e <__PRETTY_FUNCTION__.0+0x10a>
    4fdb:	eb 19                	jmp    4ff6 <e_tokentype_to_string+0x505>
    4fdd:	48 8d 05 2e 62 00 00 	lea    0x622e(%rip),%rax        # b212 <__PRETTY_FUNCTION__.0+0x10e>
    4fe4:	eb 10                	jmp    4ff6 <e_tokentype_to_string+0x505>
    4fe6:	48 8d 05 28 62 00 00 	lea    0x6228(%rip),%rax        # b215 <__PRETTY_FUNCTION__.0+0x111>
    4fed:	eb 07                	jmp    4ff6 <e_tokentype_to_string+0x505>
    4fef:	48 8d 05 23 62 00 00 	lea    0x6223(%rip),%rax        # b219 <__PRETTY_FUNCTION__.0+0x115>
    4ff6:	5d                   	pop    %rbp
    4ff7:	c3                   	ret

0000000000004ff8 <e_ast_next>:
    4ff8:	55                   	push   %rbp
    4ff9:	48 89 e5             	mov    %rsp,%rbp
    4ffc:	48 89 7d f8          	mov    %rdi,-0x8(%rbp)
    5000:	48 8b 45 f8          	mov    -0x8(%rbp),%rax
    5004:	8b 50 1c             	mov    0x1c(%rax),%edx
    5007:	48 8b 45 f8          	mov    -0x8(%rbp),%rax
    500b:	8b 40 18             	mov    0x18(%rax),%eax
    500e:	39 c2                	cmp    %eax,%edx
    5010:	7c 07                	jl     5019 <e_ast_next+0x21>
    5012:	b8 00 00 00 00       	mov    $0x0,%eax
    5017:	eb 22                	jmp    503b <e_ast_next+0x43>
    5019:	48 8b 45 f8          	mov    -0x8(%rbp),%rax
    501d:	48 8b 70 10          	mov    0x10(%rax),%rsi
    5021:	48 8b 45 f8          	mov    -0x8(%rbp),%rax
    5025:	8b 40 1c             	mov    0x1c(%rax),%eax
    5028:	8d 48 01             	lea    0x1(%rax),%ecx
    502b:	48 8b 55 f8          	mov    -0x8(%rbp),%rdx
    502f:	89 4a 1c             	mov    %ecx,0x1c(%rdx)
    5032:	48 98                	cltq
    5034:	48 c1 e0 05          	shl    $0x5,%rax
    5038:	48 01 f0             	add    %rsi,%rax
    503b:	5d                   	pop    %rbp
    503c:	c3                   	ret

000000000000503d <e_ast_peek>:
    503d:	55                   	push   %rbp
    503e:	48 89 e5             	mov    %rsp,%rbp
    5041:	48 89 7d f8          	mov    %rdi,-0x8(%rbp)
    5045:	48 8b 45 f8          	mov    -0x8(%rbp),%rax
    5049:	8b 50 1c             	mov    0x1c(%rax),%edx
    504c:	48 8b 45 f8          	mov    -0x8(%rbp),%rax
    5050:	8b 40 18             	mov    0x18(%rax),%eax
    5053:	39 c2                	cmp    %eax,%edx
    5055:	7c 07                	jl     505e <e_ast_peek+0x21>
    5057:	b8 00 00 00 00       	mov    $0x0,%eax
    505c:	eb 18                	jmp    5076 <e_ast_peek+0x39>
    505e:	48 8b 45 f8          	mov    -0x8(%rbp),%rax
    5062:	48 8b 50 10          	mov    0x10(%rax),%rdx
    5066:	48 8b 45 f8          	mov    -0x8(%rbp),%rax
    506a:	8b 40 1c             	mov    0x1c(%rax),%eax
    506d:	48 98                	cltq
    506f:	48 c1 e0 05          	shl    $0x5,%rax
    5073:	48 01 d0             	add    %rdx,%rax
    5076:	5d                   	pop    %rbp
    5077:	c3                   	ret

0000000000005078 <e_getbp>:
    5078:	55                   	push   %rbp
    5079:	48 89 e5             	mov    %rsp,%rbp
    507c:	89 7d fc             	mov    %edi,-0x4(%rbp)
    507f:	48 89 75 f0          	mov    %rsi,-0x10(%rbp)
    5083:	48 89 55 e8          	mov    %rdx,-0x18(%rbp)
    5087:	83 7d fc 2b          	cmpl   $0x2b,-0x4(%rbp)
    508b:	0f 87 62 02 00 00    	ja     52f3 <e_getbp+0x27b>
    5091:	83 7d fc 26          	cmpl   $0x26,-0x4(%rbp)
    5095:	0f 83 b8 01 00 00    	jae    5253 <e_getbp+0x1db>
    509b:	83 7d fc 25          	cmpl   $0x25,-0x4(%rbp)
    509f:	0f 84 ff 00 00 00    	je     51a4 <e_getbp+0x12c>
    50a5:	83 7d fc 25          	cmpl   $0x25,-0x4(%rbp)
    50a9:	0f 87 44 02 00 00    	ja     52f3 <e_getbp+0x27b>
    50af:	83 7d fc 24          	cmpl   $0x24,-0x4(%rbp)
    50b3:	0f 84 e2 01 00 00    	je     529b <e_getbp+0x223>
    50b9:	83 7d fc 24          	cmpl   $0x24,-0x4(%rbp)
    50bd:	0f 87 30 02 00 00    	ja     52f3 <e_getbp+0x27b>
    50c3:	83 7d fc 23          	cmpl   $0x23,-0x4(%rbp)
    50c7:	0f 84 54 01 00 00    	je     5221 <e_getbp+0x1a9>
    50cd:	83 7d fc 23          	cmpl   $0x23,-0x4(%rbp)
    50d1:	0f 87 1c 02 00 00    	ja     52f3 <e_getbp+0x27b>
    50d7:	83 7d fc 22          	cmpl   $0x22,-0x4(%rbp)
    50db:	0f 84 27 01 00 00    	je     5208 <e_getbp+0x190>
    50e1:	83 7d fc 22          	cmpl   $0x22,-0x4(%rbp)
    50e5:	0f 87 08 02 00 00    	ja     52f3 <e_getbp+0x27b>
    50eb:	83 7d fc 21          	cmpl   $0x21,-0x4(%rbp)
    50ef:	0f 84 45 01 00 00    	je     523a <e_getbp+0x1c2>
    50f5:	83 7d fc 21          	cmpl   $0x21,-0x4(%rbp)
    50f9:	0f 87 f4 01 00 00    	ja     52f3 <e_getbp+0x27b>
    50ff:	83 7d fc 20          	cmpl   $0x20,-0x4(%rbp)
    5103:	0f 84 e6 00 00 00    	je     51ef <e_getbp+0x177>
    5109:	83 7d fc 20          	cmpl   $0x20,-0x4(%rbp)
    510d:	0f 87 e0 01 00 00    	ja     52f3 <e_getbp+0x27b>
    5113:	83 7d fc 1f          	cmpl   $0x1f,-0x4(%rbp)
    5117:	0f 84 a0 00 00 00    	je     51bd <e_getbp+0x145>
    511d:	83 7d fc 1f          	cmpl   $0x1f,-0x4(%rbp)
    5121:	0f 87 cc 01 00 00    	ja     52f3 <e_getbp+0x27b>
    5127:	83 7d fc 1e          	cmpl   $0x1e,-0x4(%rbp)
    512b:	0f 84 a5 00 00 00    	je     51d6 <e_getbp+0x15e>
    5131:	83 7d fc 1e          	cmpl   $0x1e,-0x4(%rbp)
    5135:	0f 87 b8 01 00 00    	ja     52f3 <e_getbp+0x27b>
    513b:	83 7d fc 1d          	cmpl   $0x1d,-0x4(%rbp)
    513f:	0f 87 ae 01 00 00    	ja     52f3 <e_getbp+0x27b>
    5145:	83 7d fc 1c          	cmpl   $0x1c,-0x4(%rbp)
    5149:	0f 83 8e 01 00 00    	jae    52dd <e_getbp+0x265>
    514f:	83 7d fc 1b          	cmpl   $0x1b,-0x4(%rbp)
    5153:	0f 84 2c 01 00 00    	je     5285 <e_getbp+0x20d>
    5159:	83 7d fc 1b          	cmpl   $0x1b,-0x4(%rbp)
    515d:	0f 87 90 01 00 00    	ja     52f3 <e_getbp+0x27b>
    5163:	83 7d fc 19          	cmpl   $0x19,-0x4(%rbp)
    5167:	0f 87 86 01 00 00    	ja     52f3 <e_getbp+0x27b>
    516d:	83 7d fc 18          	cmpl   $0x18,-0x4(%rbp)
    5171:	0f 83 0e 01 00 00    	jae    5285 <e_getbp+0x20d>
    5177:	83 7d fc 17          	cmpl   $0x17,-0x4(%rbp)
    517b:	0f 87 72 01 00 00    	ja     52f3 <e_getbp+0x27b>
    5181:	83 7d fc 16          	cmpl   $0x16,-0x4(%rbp)
    5185:	0f 83 e1 00 00 00    	jae    526c <e_getbp+0x1f4>
    518b:	83 7d fc 04          	cmpl   $0x4,-0x4(%rbp)
    518f:	0f 84 32 01 00 00    	je     52c7 <e_getbp+0x24f>
    5195:	83 7d fc 06          	cmpl   $0x6,-0x4(%rbp)
    5199:	0f 84 12 01 00 00    	je     52b1 <e_getbp+0x239>
    519f:	e9 4f 01 00 00       	jmp    52f3 <e_getbp+0x27b>
    51a4:	48 8b 45 f0          	mov    -0x10(%rbp),%rax
    51a8:	c7 00 0a 00 00 00    	movl   $0xa,(%rax)
    51ae:	48 8b 45 e8          	mov    -0x18(%rbp),%rax
    51b2:	c7 00 09 00 00 00    	movl   $0x9,(%rax)
    51b8:	e9 53 01 00 00       	jmp    5310 <e_getbp+0x298>
    51bd:	48 8b 45 f0          	mov    -0x10(%rbp),%rax
    51c1:	c7 00 14 00 00 00    	movl   $0x14,(%rax)
    51c7:	48 8b 45 e8          	mov    -0x18(%rbp),%rax
    51cb:	c7 00 15 00 00 00    	movl   $0x15,(%rax)
    51d1:	e9 3a 01 00 00       	jmp    5310 <e_getbp+0x298>
    51d6:	48 8b 45 f0          	mov    -0x10(%rbp),%rax
    51da:	c7 00 1e 00 00 00    	movl   $0x1e,(%rax)
    51e0:	48 8b 45 e8          	mov    -0x18(%rbp),%rax
    51e4:	c7 00 1f 00 00 00    	movl   $0x1f,(%rax)
    51ea:	e9 21 01 00 00       	jmp    5310 <e_getbp+0x298>
    51ef:	48 8b 45 f0          	mov    -0x10(%rbp),%rax
    51f3:	c7 00 00 00 00 00    	movl   $0x0,(%rax)
    51f9:	48 8b 45 e8          	mov    -0x18(%rbp),%rax
    51fd:	c7 00 09 00 00 00    	movl   $0x9,(%rax)
    5203:	e9 08 01 00 00       	jmp    5310 <e_getbp+0x298>
    5208:	48 8b 45 f0          	mov    -0x10(%rbp),%rax
    520c:	c7 00 20 00 00 00    	movl   $0x20,(%rax)
    5212:	48 8b 45 e8          	mov    -0x18(%rbp),%rax
    5216:	c7 00 21 00 00 00    	movl   $0x21,(%rax)
    521c:	e9 ef 00 00 00       	jmp    5310 <e_getbp+0x298>
    5221:	48 8b 45 f0          	mov    -0x10(%rbp),%rax
    5225:	c7 00 22 00 00 00    	movl   $0x22,(%rax)
    522b:	48 8b 45 e8          	mov    -0x18(%rbp),%rax
    522f:	c7 00 23 00 00 00    	movl   $0x23,(%rax)
    5235:	e9 d6 00 00 00       	jmp    5310 <e_getbp+0x298>
    523a:	48 8b 45 f0          	mov    -0x10(%rbp),%rax
    523e:	c7 00 24 00 00 00    	movl   $0x24,(%rax)
    5244:	48 8b 45 e8          	mov    -0x18(%rbp),%rax
    5248:	c7 00 25 00 00 00    	movl   $0x25,(%rax)
    524e:	e9 bd 00 00 00       	jmp    5310 <e_getbp+0x298>
    5253:	48 8b 45 f0          	mov    -0x10(%rbp),%rax
    5257:	c7 00 28 00 00 00    	movl   $0x28,(%rax)
    525d:	48 8b 45 e8          	mov    -0x18(%rbp),%rax
    5261:	c7 00 29 00 00 00    	movl   $0x29,(%rax)
    5267:	e9 a4 00 00 00       	jmp    5310 <e_getbp+0x298>
    526c:	48 8b 45 f0          	mov    -0x10(%rbp),%rax
    5270:	c7 00 32 00 00 00    	movl   $0x32,(%rax)
    5276:	48 8b 45 e8          	mov    -0x18(%rbp),%rax
    527a:	c7 00 33 00 00 00    	movl   $0x33,(%rax)
    5280:	e9 8b 00 00 00       	jmp    5310 <e_getbp+0x298>
    5285:	48 8b 45 f0          	mov    -0x10(%rbp),%rax
    5289:	c7 00 3c 00 00 00    	movl   $0x3c,(%rax)
    528f:	48 8b 45 e8          	mov    -0x18(%rbp),%rax
    5293:	c7 00 3d 00 00 00    	movl   $0x3d,(%rax)
    5299:	eb 75                	jmp    5310 <e_getbp+0x298>
    529b:	48 8b 45 f0          	mov    -0x10(%rbp),%rax
    529f:	c7 00 00 00 00 00    	movl   $0x0,(%rax)
    52a5:	48 8b 45 e8          	mov    -0x18(%rbp),%rax
    52a9:	c7 00 41 00 00 00    	movl   $0x41,(%rax)
    52af:	eb 5f                	jmp    5310 <e_getbp+0x298>
    52b1:	48 8b 45 f0          	mov    -0x10(%rbp),%rax
    52b5:	c7 00 5a 00 00 00    	movl   $0x5a,(%rax)
    52bb:	48 8b 45 e8          	mov    -0x18(%rbp),%rax
    52bf:	c7 00 64 00 00 00    	movl   $0x64,(%rax)
    52c5:	eb 49                	jmp    5310 <e_getbp+0x298>
    52c7:	48 8b 45 f0          	mov    -0x10(%rbp),%rax
    52cb:	c7 00 64 00 00 00    	movl   $0x64,(%rax)
    52d1:	48 8b 45 e8          	mov    -0x18(%rbp),%rax
    52d5:	c7 00 63 00 00 00    	movl   $0x63,(%rax)
    52db:	eb 33                	jmp    5310 <e_getbp+0x298>
    52dd:	48 8b 45 f0          	mov    -0x10(%rbp),%rax
    52e1:	c7 00 50 00 00 00    	movl   $0x50,(%rax)
    52e7:	48 8b 45 e8          	mov    -0x18(%rbp),%rax
    52eb:	c7 00 00 00 00 00    	movl   $0x0,(%rax)
    52f1:	eb 1d                	jmp    5310 <e_getbp+0x298>
    52f3:	48 8b 45 e8          	mov    -0x18(%rbp),%rax
    52f7:	c7 00 00 00 00 00    	movl   $0x0,(%rax)
    52fd:	48 8b 45 e8          	mov    -0x18(%rbp),%rax
    5301:	8b 10                	mov    (%rax),%edx
    5303:	48 8b 45 f0          	mov    -0x10(%rbp),%rax
    5307:	89 10                	mov    %edx,(%rax)
    5309:	b8 00 00 00 00       	mov    $0x0,%eax
    530e:	eb 05                	jmp    5315 <e_getbp+0x29d>
    5310:	b8 01 00 00 00       	mov    $0x1,%eax
    5315:	5d                   	pop    %rbp
    5316:	c3                   	ret

0000000000005317 <e_ast_make_node>:
    5317:	55                   	push   %rbp
    5318:	48 89 e5             	mov    %rsp,%rbp
    531b:	48 83 ec 20          	sub    $0x20,%rsp
    531f:	48 89 7d e8          	mov    %rdi,-0x18(%rbp)
    5323:	48 8b 45 e8          	mov    -0x18(%rbp),%rax
    5327:	8b 40 08             	mov    0x8(%rax),%eax
    532a:	8d 50 01             	lea    0x1(%rax),%edx
    532d:	48 8b 45 e8          	mov    -0x18(%rbp),%rax
    5331:	8b 40 0c             	mov    0xc(%rax),%eax
    5334:	39 c2                	cmp    %eax,%edx
    5336:	7c 6a                	jl     53a2 <e_ast_make_node+0x8b>
    5338:	48 8b 45 e8          	mov    -0x18(%rbp),%rax
    533c:	8b 40 0c             	mov    0xc(%rax),%eax
    533f:	01 c0                	add    %eax,%eax
    5341:	ba 01 00 00 00       	mov    $0x1,%edx
    5346:	85 c0                	test   %eax,%eax
    5348:	0f 4e c2             	cmovle %edx,%eax
    534b:	89 45 f0             	mov    %eax,-0x10(%rbp)
    534e:	8b 45 f0             	mov    -0x10(%rbp),%eax
    5351:	48 98                	cltq
    5353:	48 c1 e0 06          	shl    $0x6,%rax
    5357:	48 89 c2             	mov    %rax,%rdx
    535a:	48 8b 45 e8          	mov    -0x18(%rbp),%rax
    535e:	48 8b 00             	mov    (%rax),%rax
    5361:	48 89 d6             	mov    %rdx,%rsi
    5364:	48 89 c7             	mov    %rax,%rdi
    5367:	e8 f4 bd ff ff       	call   1160 <realloc@plt>
    536c:	48 89 45 f8          	mov    %rax,-0x8(%rbp)
    5370:	48 83 7d f8 00       	cmpq   $0x0,-0x8(%rbp)
    5375:	75 16                	jne    538d <e_ast_make_node+0x76>
    5377:	48 8d 05 a3 5e 00 00 	lea    0x5ea3(%rip),%rax        # b221 <__PRETTY_FUNCTION__.0+0x11d>
    537e:	48 89 c7             	mov    %rax,%rdi
    5381:	e8 fa bd ff ff       	call   1180 <perror@plt>
    5386:	b8 ff ff ff ff       	mov    $0xffffffff,%eax
    538b:	eb 52                	jmp    53df <e_ast_make_node+0xc8>
    538d:	48 8b 45 e8          	mov    -0x18(%rbp),%rax
    5391:	48 8b 55 f8          	mov    -0x8(%rbp),%rdx
    5395:	48 89 10             	mov    %rdx,(%rax)
    5398:	48 8b 45 e8          	mov    -0x18(%rbp),%rax
    539c:	8b 55 f0             	mov    -0x10(%rbp),%edx
    539f:	89 50 0c             	mov    %edx,0xc(%rax)
    53a2:	48 8b 45 e8          	mov    -0x18(%rbp),%rax
    53a6:	8b 40 08             	mov    0x8(%rax),%eax
    53a9:	8d 48 01             	lea    0x1(%rax),%ecx
    53ac:	48 8b 55 e8          	mov    -0x18(%rbp),%rdx
    53b0:	89 4a 08             	mov    %ecx,0x8(%rdx)
    53b3:	89 45 f4             	mov    %eax,-0xc(%rbp)
    53b6:	48 8b 45 e8          	mov    -0x18(%rbp),%rax
    53ba:	48 8b 00             	mov    (%rax),%rax
    53bd:	8b 55 f4             	mov    -0xc(%rbp),%edx
    53c0:	48 63 d2             	movslq %edx,%rdx
    53c3:	48 c1 e2 06          	shl    $0x6,%rdx
    53c7:	48 01 d0             	add    %rdx,%rax
    53ca:	ba 40 00 00 00       	mov    $0x40,%edx
    53cf:	be 00 00 00 00       	mov    $0x0,%esi
    53d4:	48 89 c7             	mov    %rax,%rdi
    53d7:	e8 04 bd ff ff       	call   10e0 <memset@plt>
    53dc:	8b 45 f4             	mov    -0xc(%rbp),%eax
    53df:	c9                   	leave
    53e0:	c3                   	ret

00000000000053e1 <e_ast_get_node>:
    53e1:	55                   	push   %rbp
    53e2:	48 89 e5             	mov    %rsp,%rbp
    53e5:	48 89 7d f8          	mov    %rdi,-0x8(%rbp)
    53e9:	89 75 f4             	mov    %esi,-0xc(%rbp)
    53ec:	83 7d f4 00          	cmpl   $0x0,-0xc(%rbp)
    53f0:	79 07                	jns    53f9 <e_ast_get_node+0x18>
    53f2:	b8 00 00 00 00       	mov    $0x0,%eax
    53f7:	eb 14                	jmp    540d <e_ast_get_node+0x2c>
    53f9:	48 8b 45 f8          	mov    -0x8(%rbp),%rax
    53fd:	48 8b 00             	mov    (%rax),%rax
    5400:	8b 55 f4             	mov    -0xc(%rbp),%edx
    5403:	48 63 d2             	movslq %edx,%rdx
    5406:	48 c1 e2 06          	shl    $0x6,%rdx
    540a:	48 01 d0             	add    %rdx,%rax
    540d:	5d                   	pop    %rbp
    540e:	c3                   	ret

000000000000540f <e_ast_is_limiter_exempt>:
    540f:	55                   	push   %rbp
    5410:	48 89 e5             	mov    %rsp,%rbp
    5413:	89 7d fc             	mov    %edi,-0x4(%rbp)
    5416:	83 7d fc 09          	cmpl   $0x9,-0x4(%rbp)
    541a:	74 18                	je     5434 <e_ast_is_limiter_exempt+0x25>
    541c:	83 7d fc 05          	cmpl   $0x5,-0x4(%rbp)
    5420:	74 12                	je     5434 <e_ast_is_limiter_exempt+0x25>
    5422:	83 7d fc 04          	cmpl   $0x4,-0x4(%rbp)
    5426:	74 0c                	je     5434 <e_ast_is_limiter_exempt+0x25>
    5428:	83 7d fc 0a          	cmpl   $0xa,-0x4(%rbp)
    542c:	74 06                	je     5434 <e_ast_is_limiter_exempt+0x25>
    542e:	83 7d fc 03          	cmpl   $0x3,-0x4(%rbp)
    5432:	75 07                	jne    543b <e_ast_is_limiter_exempt+0x2c>
    5434:	b8 01 00 00 00       	mov    $0x1,%eax
    5439:	eb 05                	jmp    5440 <e_ast_is_limiter_exempt+0x31>
    543b:	b8 00 00 00 00       	mov    $0x0,%eax
    5440:	83 e0 01             	and    $0x1,%eax
    5443:	5d                   	pop    %rbp
    5444:	c3                   	ret

0000000000005445 <e_asnode_free>:
    5445:	55                   	push   %rbp
    5446:	48 89 e5             	mov    %rsp,%rbp
    5449:	48 83 ec 40          	sub    $0x40,%rsp
    544d:	48 89 7d c8          	mov    %rdi,-0x38(%rbp)
    5451:	89 75 c4             	mov    %esi,-0x3c(%rbp)
    5454:	83 7d c4 00          	cmpl   $0x0,-0x3c(%rbp)
    5458:	0f 88 f7 07 00 00    	js     5c55 <e_asnode_free+0x810>
    545e:	8b 55 c4             	mov    -0x3c(%rbp),%edx
    5461:	48 8b 45 c8          	mov    -0x38(%rbp),%rax
    5465:	89 d6                	mov    %edx,%esi
    5467:	48 89 c7             	mov    %rax,%rdi
    546a:	e8 72 ff ff ff       	call   53e1 <e_ast_get_node>
    546f:	48 8b 40 30          	mov    0x30(%rax),%rax
    5473:	48 89 c7             	mov    %rax,%rdi
    5476:	e8 b5 bb ff ff       	call   1030 <free@plt>
    547b:	8b 55 c4             	mov    -0x3c(%rbp),%edx
    547e:	48 8b 45 c8          	mov    -0x38(%rbp),%rax
    5482:	89 d6                	mov    %edx,%esi
    5484:	48 89 c7             	mov    %rax,%rdi
    5487:	e8 55 ff ff ff       	call   53e1 <e_ast_get_node>
    548c:	8b 00                	mov    (%rax),%eax
    548e:	83 f8 17             	cmp    $0x17,%eax
    5491:	0f 87 ce 07 00 00    	ja     5c65 <e_asnode_free+0x820>
    5497:	83 f8 15             	cmp    $0x15,%eax
    549a:	0f 83 b8 07 00 00    	jae    5c58 <e_asnode_free+0x813>
    54a0:	83 f8 14             	cmp    $0x14,%eax
    54a3:	0f 84 8d 07 00 00    	je     5c36 <e_asnode_free+0x7f1>
    54a9:	83 f8 14             	cmp    $0x14,%eax
    54ac:	0f 87 b3 07 00 00    	ja     5c65 <e_asnode_free+0x820>
    54b2:	83 f8 13             	cmp    $0x13,%eax
    54b5:	0f 87 aa 07 00 00    	ja     5c65 <e_asnode_free+0x820>
    54bb:	83 f8 11             	cmp    $0x11,%eax
    54be:	0f 83 94 07 00 00    	jae    5c58 <e_asnode_free+0x813>
    54c4:	83 f8 10             	cmp    $0x10,%eax
    54c7:	0f 84 d5 06 00 00    	je     5ba2 <e_asnode_free+0x75d>
    54cd:	83 f8 10             	cmp    $0x10,%eax
    54d0:	0f 87 8f 07 00 00    	ja     5c65 <e_asnode_free+0x820>
    54d6:	83 f8 0f             	cmp    $0xf,%eax
    54d9:	0f 87 86 07 00 00    	ja     5c65 <e_asnode_free+0x820>
    54df:	83 f8 0e             	cmp    $0xe,%eax
    54e2:	0f 83 73 07 00 00    	jae    5c5b <e_asnode_free+0x816>
    54e8:	83 f8 0d             	cmp    $0xd,%eax
    54eb:	0f 84 68 06 00 00    	je     5b59 <e_asnode_free+0x714>
    54f1:	83 f8 0d             	cmp    $0xd,%eax
    54f4:	0f 87 6b 07 00 00    	ja     5c65 <e_asnode_free+0x820>
    54fa:	83 f8 0c             	cmp    $0xc,%eax
    54fd:	0f 84 12 06 00 00    	je     5b15 <e_asnode_free+0x6d0>
    5503:	83 f8 0c             	cmp    $0xc,%eax
    5506:	0f 87 59 07 00 00    	ja     5c65 <e_asnode_free+0x820>
    550c:	83 f8 0b             	cmp    $0xb,%eax
    550f:	0f 84 de 05 00 00    	je     5af3 <e_asnode_free+0x6ae>
    5515:	83 f8 0b             	cmp    $0xb,%eax
    5518:	0f 87 47 07 00 00    	ja     5c65 <e_asnode_free+0x820>
    551e:	83 f8 0a             	cmp    $0xa,%eax
    5521:	0f 84 d9 02 00 00    	je     5800 <e_asnode_free+0x3bb>
    5527:	83 f8 0a             	cmp    $0xa,%eax
    552a:	0f 87 35 07 00 00    	ja     5c65 <e_asnode_free+0x820>
    5530:	83 f8 09             	cmp    $0x9,%eax
    5533:	0f 84 ce 03 00 00    	je     5907 <e_asnode_free+0x4c2>
    5539:	83 f8 09             	cmp    $0x9,%eax
    553c:	0f 87 23 07 00 00    	ja     5c65 <e_asnode_free+0x820>
    5542:	83 f8 08             	cmp    $0x8,%eax
    5545:	0f 84 71 02 00 00    	je     57bc <e_asnode_free+0x377>
    554b:	83 f8 08             	cmp    $0x8,%eax
    554e:	0f 87 11 07 00 00    	ja     5c65 <e_asnode_free+0x820>
    5554:	83 f8 07             	cmp    $0x7,%eax
    5557:	0f 87 08 07 00 00    	ja     5c65 <e_asnode_free+0x820>
    555d:	83 f8 06             	cmp    $0x6,%eax
    5560:	0f 83 f8 06 00 00    	jae    5c5e <e_asnode_free+0x819>
    5566:	83 f8 05             	cmp    $0x5,%eax
    5569:	0f 84 b1 01 00 00    	je     5720 <e_asnode_free+0x2db>
    556f:	83 f8 05             	cmp    $0x5,%eax
    5572:	0f 87 ed 06 00 00    	ja     5c65 <e_asnode_free+0x820>
    5578:	83 f8 04             	cmp    $0x4,%eax
    557b:	0f 84 e0 06 00 00    	je     5c61 <e_asnode_free+0x81c>
    5581:	83 f8 04             	cmp    $0x4,%eax
    5584:	0f 87 db 06 00 00    	ja     5c65 <e_asnode_free+0x820>
    558a:	83 f8 03             	cmp    $0x3,%eax
    558d:	0f 84 13 01 00 00    	je     56a6 <e_asnode_free+0x261>
    5593:	83 f8 03             	cmp    $0x3,%eax
    5596:	0f 87 c9 06 00 00    	ja     5c65 <e_asnode_free+0x820>
    559c:	83 f8 02             	cmp    $0x2,%eax
    559f:	0f 84 da 00 00 00    	je     567f <e_asnode_free+0x23a>
    55a5:	83 f8 02             	cmp    $0x2,%eax
    55a8:	0f 87 b7 06 00 00    	ja     5c65 <e_asnode_free+0x820>
    55ae:	85 c0                	test   %eax,%eax
    55b0:	74 0a                	je     55bc <e_asnode_free+0x177>
    55b2:	83 f8 01             	cmp    $0x1,%eax
    55b5:	74 7f                	je     5636 <e_asnode_free+0x1f1>
    55b7:	e9 a9 06 00 00       	jmp    5c65 <e_asnode_free+0x820>
    55bc:	c7 45 d0 00 00 00 00 	movl   $0x0,-0x30(%rbp)
    55c3:	eb 36                	jmp    55fb <e_asnode_free+0x1b6>
    55c5:	8b 55 c4             	mov    -0x3c(%rbp),%edx
    55c8:	48 8b 45 c8          	mov    -0x38(%rbp),%rax
    55cc:	89 d6                	mov    %edx,%esi
    55ce:	48 89 c7             	mov    %rax,%rdi
    55d1:	e8 0b fe ff ff       	call   53e1 <e_ast_get_node>
    55d6:	48 8b 40 08          	mov    0x8(%rax),%rax
    55da:	8b 55 d0             	mov    -0x30(%rbp),%edx
    55dd:	48 63 d2             	movslq %edx,%rdx
    55e0:	48 c1 e2 02          	shl    $0x2,%rdx
    55e4:	48 01 d0             	add    %rdx,%rax
    55e7:	8b 10                	mov    (%rax),%edx
    55e9:	48 8b 45 c8          	mov    -0x38(%rbp),%rax
    55ed:	89 d6                	mov    %edx,%esi
    55ef:	48 89 c7             	mov    %rax,%rdi
    55f2:	e8 4e fe ff ff       	call   5445 <e_asnode_free>
    55f7:	83 45 d0 01          	addl   $0x1,-0x30(%rbp)
    55fb:	8b 55 c4             	mov    -0x3c(%rbp),%edx
    55fe:	48 8b 45 c8          	mov    -0x38(%rbp),%rax
    5602:	89 d6                	mov    %edx,%esi
    5604:	48 89 c7             	mov    %rax,%rdi
    5607:	e8 d5 fd ff ff       	call   53e1 <e_ast_get_node>
    560c:	8b 40 10             	mov    0x10(%rax),%eax
    560f:	39 45 d0             	cmp    %eax,-0x30(%rbp)
    5612:	7c b1                	jl     55c5 <e_asnode_free+0x180>
    5614:	8b 55 c4             	mov    -0x3c(%rbp),%edx
    5617:	48 8b 45 c8          	mov    -0x38(%rbp),%rax
    561b:	89 d6                	mov    %edx,%esi
    561d:	48 89 c7             	mov    %rax,%rdi
    5620:	e8 bc fd ff ff       	call   53e1 <e_ast_get_node>
    5625:	48 8b 40 08          	mov    0x8(%rax),%rax
    5629:	48 89 c7             	mov    %rax,%rdi
    562c:	e8 ff b9 ff ff       	call   1030 <free@plt>
    5631:	e9 2f 06 00 00       	jmp    5c65 <e_asnode_free+0x820>
    5636:	8b 55 c4             	mov    -0x3c(%rbp),%edx
    5639:	48 8b 45 c8          	mov    -0x38(%rbp),%rax
    563d:	89 d6                	mov    %edx,%esi
    563f:	48 89 c7             	mov    %rax,%rdi
    5642:	e8 9a fd ff ff       	call   53e1 <e_ast_get_node>
    5647:	8b 50 08             	mov    0x8(%rax),%edx
    564a:	48 8b 45 c8          	mov    -0x38(%rbp),%rax
    564e:	89 d6                	mov    %edx,%esi
    5650:	48 89 c7             	mov    %rax,%rdi
    5653:	e8 ed fd ff ff       	call   5445 <e_asnode_free>
    5658:	8b 55 c4             	mov    -0x3c(%rbp),%edx
    565b:	48 8b 45 c8          	mov    -0x38(%rbp),%rax
    565f:	89 d6                	mov    %edx,%esi
    5661:	48 89 c7             	mov    %rax,%rdi
    5664:	e8 78 fd ff ff       	call   53e1 <e_ast_get_node>
    5669:	8b 50 0c             	mov    0xc(%rax),%edx
    566c:	48 8b 45 c8          	mov    -0x38(%rbp),%rax
    5670:	89 d6                	mov    %edx,%esi
    5672:	48 89 c7             	mov    %rax,%rdi
    5675:	e8 cb fd ff ff       	call   5445 <e_asnode_free>
    567a:	e9 e6 05 00 00       	jmp    5c65 <e_asnode_free+0x820>
    567f:	8b 55 c4             	mov    -0x3c(%rbp),%edx
    5682:	48 8b 45 c8          	mov    -0x38(%rbp),%rax
    5686:	89 d6                	mov    %edx,%esi
    5688:	48 89 c7             	mov    %rax,%rdi
    568b:	e8 51 fd ff ff       	call   53e1 <e_ast_get_node>
    5690:	8b 50 08             	mov    0x8(%rax),%edx
    5693:	48 8b 45 c8          	mov    -0x38(%rbp),%rax
    5697:	89 d6                	mov    %edx,%esi
    5699:	48 89 c7             	mov    %rax,%rdi
    569c:	e8 a4 fd ff ff       	call   5445 <e_asnode_free>
    56a1:	e9 bf 05 00 00       	jmp    5c65 <e_asnode_free+0x820>
    56a6:	c7 45 d4 00 00 00 00 	movl   $0x0,-0x2c(%rbp)
    56ad:	eb 36                	jmp    56e5 <e_asnode_free+0x2a0>
    56af:	8b 55 c4             	mov    -0x3c(%rbp),%edx
    56b2:	48 8b 45 c8          	mov    -0x38(%rbp),%rax
    56b6:	89 d6                	mov    %edx,%esi
    56b8:	48 89 c7             	mov    %rax,%rdi
    56bb:	e8 21 fd ff ff       	call   53e1 <e_ast_get_node>
    56c0:	48 8b 40 08          	mov    0x8(%rax),%rax
    56c4:	8b 55 d4             	mov    -0x2c(%rbp),%edx
    56c7:	48 63 d2             	movslq %edx,%rdx
    56ca:	48 c1 e2 02          	shl    $0x2,%rdx
    56ce:	48 01 d0             	add    %rdx,%rax
    56d1:	8b 10                	mov    (%rax),%edx
    56d3:	48 8b 45 c8          	mov    -0x38(%rbp),%rax
    56d7:	89 d6                	mov    %edx,%esi
    56d9:	48 89 c7             	mov    %rax,%rdi
    56dc:	e8 64 fd ff ff       	call   5445 <e_asnode_free>
    56e1:	83 45 d4 01          	addl   $0x1,-0x2c(%rbp)
    56e5:	8b 55 c4             	mov    -0x3c(%rbp),%edx
    56e8:	48 8b 45 c8          	mov    -0x38(%rbp),%rax
    56ec:	89 d6                	mov    %edx,%esi
    56ee:	48 89 c7             	mov    %rax,%rdi
    56f1:	e8 eb fc ff ff       	call   53e1 <e_ast_get_node>
    56f6:	8b 40 10             	mov    0x10(%rax),%eax
    56f9:	39 45 d4             	cmp    %eax,-0x2c(%rbp)
    56fc:	7c b1                	jl     56af <e_asnode_free+0x26a>
    56fe:	8b 55 c4             	mov    -0x3c(%rbp),%edx
    5701:	48 8b 45 c8          	mov    -0x38(%rbp),%rax
    5705:	89 d6                	mov    %edx,%esi
    5707:	48 89 c7             	mov    %rax,%rdi
    570a:	e8 d2 fc ff ff       	call   53e1 <e_ast_get_node>
    570f:	48 8b 40 08          	mov    0x8(%rax),%rax
    5713:	48 89 c7             	mov    %rax,%rdi
    5716:	e8 15 b9 ff ff       	call   1030 <free@plt>
    571b:	e9 45 05 00 00       	jmp    5c65 <e_asnode_free+0x820>
    5720:	c7 45 d8 00 00 00 00 	movl   $0x0,-0x28(%rbp)
    5727:	eb 36                	jmp    575f <e_asnode_free+0x31a>
    5729:	8b 55 c4             	mov    -0x3c(%rbp),%edx
    572c:	48 8b 45 c8          	mov    -0x38(%rbp),%rax
    5730:	89 d6                	mov    %edx,%esi
    5732:	48 89 c7             	mov    %rax,%rdi
    5735:	e8 a7 fc ff ff       	call   53e1 <e_ast_get_node>
    573a:	48 8b 40 10          	mov    0x10(%rax),%rax
    573e:	8b 55 d8             	mov    -0x28(%rbp),%edx
    5741:	48 63 d2             	movslq %edx,%rdx
    5744:	48 c1 e2 02          	shl    $0x2,%rdx
    5748:	48 01 d0             	add    %rdx,%rax
    574b:	8b 10                	mov    (%rax),%edx
    574d:	48 8b 45 c8          	mov    -0x38(%rbp),%rax
    5751:	89 d6                	mov    %edx,%esi
    5753:	48 89 c7             	mov    %rax,%rdi
    5756:	e8 ea fc ff ff       	call   5445 <e_asnode_free>
    575b:	83 45 d8 01          	addl   $0x1,-0x28(%rbp)
    575f:	8b 55 c4             	mov    -0x3c(%rbp),%edx
    5762:	48 8b 45 c8          	mov    -0x38(%rbp),%rax
    5766:	89 d6                	mov    %edx,%esi
    5768:	48 89 c7             	mov    %rax,%rdi
    576b:	e8 71 fc ff ff       	call   53e1 <e_ast_get_node>
    5770:	8b 40 18             	mov    0x18(%rax),%eax
    5773:	39 45 d8             	cmp    %eax,-0x28(%rbp)
    5776:	7c b1                	jl     5729 <e_asnode_free+0x2e4>
    5778:	8b 55 c4             	mov    -0x3c(%rbp),%edx
    577b:	48 8b 45 c8          	mov    -0x38(%rbp),%rax
    577f:	89 d6                	mov    %edx,%esi
    5781:	48 89 c7             	mov    %rax,%rdi
    5784:	e8 58 fc ff ff       	call   53e1 <e_ast_get_node>
    5789:	8b 50 08             	mov    0x8(%rax),%edx
    578c:	48 8b 45 c8          	mov    -0x38(%rbp),%rax
    5790:	89 d6                	mov    %edx,%esi
    5792:	48 89 c7             	mov    %rax,%rdi
    5795:	e8 ab fc ff ff       	call   5445 <e_asnode_free>
    579a:	8b 55 c4             	mov    -0x3c(%rbp),%edx
    579d:	48 8b 45 c8          	mov    -0x38(%rbp),%rax
    57a1:	89 d6                	mov    %edx,%esi
    57a3:	48 89 c7             	mov    %rax,%rdi
    57a6:	e8 36 fc ff ff       	call   53e1 <e_ast_get_node>
    57ab:	48 8b 40 10          	mov    0x10(%rax),%rax
    57af:	48 89 c7             	mov    %rax,%rdi
    57b2:	e8 79 b8 ff ff       	call   1030 <free@plt>
    57b7:	e9 a9 04 00 00       	jmp    5c65 <e_asnode_free+0x820>
    57bc:	8b 55 c4             	mov    -0x3c(%rbp),%edx
    57bf:	48 8b 45 c8          	mov    -0x38(%rbp),%rax
    57c3:	89 d6                	mov    %edx,%esi
    57c5:	48 89 c7             	mov    %rax,%rdi
    57c8:	e8 14 fc ff ff       	call   53e1 <e_ast_get_node>
    57cd:	0f b6 40 0c          	movzbl 0xc(%rax),%eax
    57d1:	84 c0                	test   %al,%al
    57d3:	0f 84 8b 04 00 00    	je     5c64 <e_asnode_free+0x81f>
    57d9:	8b 55 c4             	mov    -0x3c(%rbp),%edx
    57dc:	48 8b 45 c8          	mov    -0x38(%rbp),%rax
    57e0:	89 d6                	mov    %edx,%esi
    57e2:	48 89 c7             	mov    %rax,%rdi
    57e5:	e8 f7 fb ff ff       	call   53e1 <e_ast_get_node>
    57ea:	8b 50 08             	mov    0x8(%rax),%edx
    57ed:	48 8b 45 c8          	mov    -0x38(%rbp),%rax
    57f1:	89 d6                	mov    %edx,%esi
    57f3:	48 89 c7             	mov    %rax,%rdi
    57f6:	e8 4a fc ff ff       	call   5445 <e_asnode_free>
    57fb:	e9 64 04 00 00       	jmp    5c64 <e_asnode_free+0x81f>
    5800:	c7 45 dc 00 00 00 00 	movl   $0x0,-0x24(%rbp)
    5807:	eb 36                	jmp    583f <e_asnode_free+0x3fa>
    5809:	8b 55 c4             	mov    -0x3c(%rbp),%edx
    580c:	48 8b 45 c8          	mov    -0x38(%rbp),%rax
    5810:	89 d6                	mov    %edx,%esi
    5812:	48 89 c7             	mov    %rax,%rdi
    5815:	e8 c7 fb ff ff       	call   53e1 <e_ast_get_node>
    581a:	48 8b 40 18          	mov    0x18(%rax),%rax
    581e:	8b 55 dc             	mov    -0x24(%rbp),%edx
    5821:	48 63 d2             	movslq %edx,%rdx
    5824:	48 c1 e2 02          	shl    $0x2,%rdx
    5828:	48 01 d0             	add    %rdx,%rax
    582b:	8b 10                	mov    (%rax),%edx
    582d:	48 8b 45 c8          	mov    -0x38(%rbp),%rax
    5831:	89 d6                	mov    %edx,%esi
    5833:	48 89 c7             	mov    %rax,%rdi
    5836:	e8 0a fc ff ff       	call   5445 <e_asnode_free>
    583b:	83 45 dc 01          	addl   $0x1,-0x24(%rbp)
    583f:	8b 55 c4             	mov    -0x3c(%rbp),%edx
    5842:	48 8b 45 c8          	mov    -0x38(%rbp),%rax
    5846:	89 d6                	mov    %edx,%esi
    5848:	48 89 c7             	mov    %rax,%rdi
    584b:	e8 91 fb ff ff       	call   53e1 <e_ast_get_node>
    5850:	8b 40 24             	mov    0x24(%rax),%eax
