
build/eexec:     file format elf64-x86-64


Disassembly of section .init:

0000000000001000 <_init>:
    1000:	f3 0f 1e fa          	endbr64
    1004:	48 83 ec 08          	sub    $0x8,%rsp
    1008:	48 8b 05 c1 cf 00 00 	mov    0xcfc1(%rip),%rax        # dfd0 <__gmon_start__>
    100f:	48 85 c0             	test   %rax,%rax
    1012:	74 02                	je     1016 <_init+0x16>
    1014:	ff d0                	call   *%rax
    1016:	48 83 c4 08          	add    $0x8,%rsp
    101a:	c3                   	ret

Disassembly of section .plt:

0000000000001020 <free@plt-0x10>:
    1020:	ff 35 ca cf 00 00    	push   0xcfca(%rip)        # dff0 <_GLOBAL_OFFSET_TABLE_+0x8>
    1026:	ff 25 cc cf 00 00    	jmp    *0xcfcc(%rip)        # dff8 <_GLOBAL_OFFSET_TABLE_+0x10>
    102c:	0f 1f 40 00          	nopl   0x0(%rax)

0000000000001030 <free@plt>:
    1030:	ff 25 ca cf 00 00    	jmp    *0xcfca(%rip)        # e000 <free@GLIBC_2.2.5>
    1036:	68 00 00 00 00       	push   $0x0
    103b:	e9 e0 ff ff ff       	jmp    1020 <_init+0x20>

0000000000001040 <strncmp@plt>:
    1040:	ff 25 c2 cf 00 00    	jmp    *0xcfc2(%rip)        # e008 <strncmp@GLIBC_2.2.5>
    1046:	68 01 00 00 00       	push   $0x1
    104b:	e9 d0 ff ff ff       	jmp    1020 <_init+0x20>

0000000000001050 <puts@plt>:
    1050:	ff 25 ba cf 00 00    	jmp    *0xcfba(%rip)        # e010 <puts@GLIBC_2.2.5>
    1056:	68 02 00 00 00       	push   $0x2
    105b:	e9 c0 ff ff ff       	jmp    1020 <_init+0x20>

0000000000001060 <fread@plt>:
    1060:	ff 25 b2 cf 00 00    	jmp    *0xcfb2(%rip)        # e018 <fread@GLIBC_2.2.5>
    1066:	68 03 00 00 00       	push   $0x3
    106b:	e9 b0 ff ff ff       	jmp    1020 <_init+0x20>

0000000000001070 <fclose@plt>:
    1070:	ff 25 aa cf 00 00    	jmp    *0xcfaa(%rip)        # e020 <fclose@GLIBC_2.2.5>
    1076:	68 04 00 00 00       	push   $0x4
    107b:	e9 a0 ff ff ff       	jmp    1020 <_init+0x20>

0000000000001080 <strlen@plt>:
    1080:	ff 25 a2 cf 00 00    	jmp    *0xcfa2(%rip)        # e028 <strlen@GLIBC_2.2.5>
    1086:	68 05 00 00 00       	push   $0x5
    108b:	e9 90 ff ff ff       	jmp    1020 <_init+0x20>

0000000000001090 <__stack_chk_fail@plt>:
    1090:	ff 25 9a cf 00 00    	jmp    *0xcf9a(%rip)        # e030 <__stack_chk_fail@GLIBC_2.4>
    1096:	68 06 00 00 00       	push   $0x6
    109b:	e9 80 ff ff ff       	jmp    1020 <_init+0x20>

00000000000010a0 <printf@plt>:
    10a0:	ff 25 92 cf 00 00    	jmp    *0xcf92(%rip)        # e038 <printf@GLIBC_2.2.5>
    10a6:	68 07 00 00 00       	push   $0x7
    10ab:	e9 70 ff ff ff       	jmp    1020 <_init+0x20>

00000000000010b0 <__assert_fail@plt>:
    10b0:	ff 25 8a cf 00 00    	jmp    *0xcf8a(%rip)        # e040 <__assert_fail@GLIBC_2.2.5>
    10b6:	68 08 00 00 00       	push   $0x8
    10bb:	e9 60 ff ff ff       	jmp    1020 <_init+0x20>

00000000000010c0 <fputs@plt>:
    10c0:	ff 25 82 cf 00 00    	jmp    *0xcf82(%rip)        # e048 <fputs@GLIBC_2.2.5>
    10c6:	68 09 00 00 00       	push   $0x9
    10cb:	e9 50 ff ff ff       	jmp    1020 <_init+0x20>

00000000000010d0 <strtof@plt>:
    10d0:	ff 25 7a cf 00 00    	jmp    *0xcf7a(%rip)        # e050 <strtof@GLIBC_2.2.5>
    10d6:	68 0a 00 00 00       	push   $0xa
    10db:	e9 40 ff ff ff       	jmp    1020 <_init+0x20>

00000000000010e0 <memset@plt>:
    10e0:	ff 25 72 cf 00 00    	jmp    *0xcf72(%rip)        # e058 <memset@GLIBC_2.2.5>
    10e6:	68 0b 00 00 00       	push   $0xb
    10eb:	e9 30 ff ff ff       	jmp    1020 <_init+0x20>

00000000000010f0 <fputc@plt>:
    10f0:	ff 25 6a cf 00 00    	jmp    *0xcf6a(%rip)        # e060 <fputc@GLIBC_2.2.5>
    10f6:	68 0c 00 00 00       	push   $0xc
    10fb:	e9 20 ff ff ff       	jmp    1020 <_init+0x20>

0000000000001100 <calloc@plt>:
    1100:	ff 25 62 cf 00 00    	jmp    *0xcf62(%rip)        # e068 <calloc@GLIBC_2.2.5>
    1106:	68 0d 00 00 00       	push   $0xd
    110b:	e9 10 ff ff ff       	jmp    1020 <_init+0x20>

0000000000001110 <fprintf@plt>:
    1110:	ff 25 5a cf 00 00    	jmp    *0xcf5a(%rip)        # e070 <fprintf@GLIBC_2.2.5>
    1116:	68 0e 00 00 00       	push   $0xe
    111b:	e9 00 ff ff ff       	jmp    1020 <_init+0x20>

0000000000001120 <memcpy@plt>:
    1120:	ff 25 52 cf 00 00    	jmp    *0xcf52(%rip)        # e078 <memcpy@GLIBC_2.14>
    1126:	68 0f 00 00 00       	push   $0xf
    112b:	e9 f0 fe ff ff       	jmp    1020 <_init+0x20>

0000000000001130 <__isoc23_strtol@plt>:
    1130:	ff 25 4a cf 00 00    	jmp    *0xcf4a(%rip)        # e080 <__isoc23_strtol@GLIBC_2.38>
    1136:	68 10 00 00 00       	push   $0x10
    113b:	e9 e0 fe ff ff       	jmp    1020 <_init+0x20>

0000000000001140 <malloc@plt>:
    1140:	ff 25 42 cf 00 00    	jmp    *0xcf42(%rip)        # e088 <malloc@GLIBC_2.2.5>
    1146:	68 11 00 00 00       	push   $0x11
    114b:	e9 d0 fe ff ff       	jmp    1020 <_init+0x20>

0000000000001150 <strlcpy@plt>:
    1150:	ff 25 3a cf 00 00    	jmp    *0xcf3a(%rip)        # e090 <strlcpy@GLIBC_2.38>
    1156:	68 12 00 00 00       	push   $0x12
    115b:	e9 c0 fe ff ff       	jmp    1020 <_init+0x20>

0000000000001160 <realloc@plt>:
    1160:	ff 25 32 cf 00 00    	jmp    *0xcf32(%rip)        # e098 <realloc@GLIBC_2.2.5>
    1166:	68 13 00 00 00       	push   $0x13
    116b:	e9 b0 fe ff ff       	jmp    1020 <_init+0x20>

0000000000001170 <fopen@plt>:
    1170:	ff 25 2a cf 00 00    	jmp    *0xcf2a(%rip)        # e0a0 <fopen@GLIBC_2.2.5>
    1176:	68 14 00 00 00       	push   $0x14
    117b:	e9 a0 fe ff ff       	jmp    1020 <_init+0x20>

0000000000001180 <perror@plt>:
    1180:	ff 25 22 cf 00 00    	jmp    *0xcf22(%rip)        # e0a8 <perror@GLIBC_2.2.5>
    1186:	68 15 00 00 00       	push   $0x15
    118b:	e9 90 fe ff ff       	jmp    1020 <_init+0x20>

0000000000001190 <vfprintf@plt>:
    1190:	ff 25 1a cf 00 00    	jmp    *0xcf1a(%rip)        # e0b0 <vfprintf@GLIBC_2.2.5>
    1196:	68 16 00 00 00       	push   $0x16
    119b:	e9 80 fe ff ff       	jmp    1020 <_init+0x20>

00000000000011a0 <exit@plt>:
    11a0:	ff 25 12 cf 00 00    	jmp    *0xcf12(%rip)        # e0b8 <exit@GLIBC_2.2.5>
    11a6:	68 17 00 00 00       	push   $0x17
    11ab:	e9 70 fe ff ff       	jmp    1020 <_init+0x20>

00000000000011b0 <fwrite@plt>:
    11b0:	ff 25 0a cf 00 00    	jmp    *0xcf0a(%rip)        # e0c0 <fwrite@GLIBC_2.2.5>
    11b6:	68 18 00 00 00       	push   $0x18
    11bb:	e9 60 fe ff ff       	jmp    1020 <_init+0x20>

00000000000011c0 <strdup@plt>:
    11c0:	ff 25 02 cf 00 00    	jmp    *0xcf02(%rip)        # e0c8 <strdup@GLIBC_2.2.5>
    11c6:	68 19 00 00 00       	push   $0x19
    11cb:	e9 50 fe ff ff       	jmp    1020 <_init+0x20>

00000000000011d0 <__ctype_b_loc@plt>:
    11d0:	ff 25 fa ce 00 00    	jmp    *0xcefa(%rip)        # e0d0 <__ctype_b_loc@GLIBC_2.3>
    11d6:	68 1a 00 00 00       	push   $0x1a
    11db:	e9 40 fe ff ff       	jmp    1020 <_init+0x20>

Disassembly of section .text:

00000000000011e0 <_start>:
    11e0:	f3 0f 1e fa          	endbr64
    11e4:	31 ed                	xor    %ebp,%ebp
    11e6:	49 89 d1             	mov    %rdx,%r9
    11e9:	5e                   	pop    %rsi
    11ea:	48 89 e2             	mov    %rsp,%rdx
    11ed:	48 83 e4 f0          	and    $0xfffffffffffffff0,%rsp
    11f1:	50                   	push   %rax
    11f2:	54                   	push   %rsp
    11f3:	45 31 c0             	xor    %r8d,%r8d
    11f6:	31 c9                	xor    %ecx,%ecx
    11f8:	48 8d 3d 26 36 00 00 	lea    0x3626(%rip),%rdi        # 4825 <main>
    11ff:	ff 15 bb cd 00 00    	call   *0xcdbb(%rip)        # dfc0 <__libc_start_main@GLIBC_2.34>
    1205:	f4                   	hlt
    1206:	66 2e 0f 1f 84 00 00 	cs nopw 0x0(%rax,%rax,1)
    120d:	00 00 00 

0000000000001210 <deregister_tm_clones>:
    1210:	48 8d 3d d1 ce 00 00 	lea    0xced1(%rip),%rdi        # e0e8 <__TMC_END__>
    1217:	48 8d 05 ca ce 00 00 	lea    0xceca(%rip),%rax        # e0e8 <__TMC_END__>
    121e:	48 39 f8             	cmp    %rdi,%rax
    1221:	74 15                	je     1238 <deregister_tm_clones+0x28>
    1223:	48 8b 05 9e cd 00 00 	mov    0xcd9e(%rip),%rax        # dfc8 <_ITM_deregisterTMCloneTable>
    122a:	48 85 c0             	test   %rax,%rax
    122d:	74 09                	je     1238 <deregister_tm_clones+0x28>
    122f:	ff e0                	jmp    *%rax
    1231:	0f 1f 80 00 00 00 00 	nopl   0x0(%rax)
    1238:	c3                   	ret
    1239:	0f 1f 80 00 00 00 00 	nopl   0x0(%rax)

0000000000001240 <register_tm_clones>:
    1240:	48 8d 3d a1 ce 00 00 	lea    0xcea1(%rip),%rdi        # e0e8 <__TMC_END__>
    1247:	48 8d 35 9a ce 00 00 	lea    0xce9a(%rip),%rsi        # e0e8 <__TMC_END__>
    124e:	48 29 fe             	sub    %rdi,%rsi
    1251:	48 89 f0             	mov    %rsi,%rax
    1254:	48 c1 ee 3f          	shr    $0x3f,%rsi
    1258:	48 c1 f8 03          	sar    $0x3,%rax
    125c:	48 01 c6             	add    %rax,%rsi
    125f:	48 d1 fe             	sar    $1,%rsi
    1262:	74 14                	je     1278 <register_tm_clones+0x38>
    1264:	48 8b 05 6d cd 00 00 	mov    0xcd6d(%rip),%rax        # dfd8 <_ITM_registerTMCloneTable>
    126b:	48 85 c0             	test   %rax,%rax
    126e:	74 08                	je     1278 <register_tm_clones+0x38>
    1270:	ff e0                	jmp    *%rax
    1272:	66 0f 1f 44 00 00    	nopw   0x0(%rax,%rax,1)
    1278:	c3                   	ret
    1279:	0f 1f 80 00 00 00 00 	nopl   0x0(%rax)

0000000000001280 <__do_global_dtors_aux>:
    1280:	f3 0f 1e fa          	endbr64
    1284:	80 3d 9d ce 00 00 00 	cmpb   $0x0,0xce9d(%rip)        # e128 <completed.0>
    128b:	75 33                	jne    12c0 <__do_global_dtors_aux+0x40>
    128d:	55                   	push   %rbp
    128e:	48 83 3d 4a cd 00 00 	cmpq   $0x0,0xcd4a(%rip)        # dfe0 <__cxa_finalize@GLIBC_2.2.5>
    1295:	00 
    1296:	48 89 e5             	mov    %rsp,%rbp
    1299:	74 0d                	je     12a8 <__do_global_dtors_aux+0x28>
    129b:	48 8b 3d 3e ce 00 00 	mov    0xce3e(%rip),%rdi        # e0e0 <__dso_handle>
    12a2:	ff 15 38 cd 00 00    	call   *0xcd38(%rip)        # dfe0 <__cxa_finalize@GLIBC_2.2.5>
    12a8:	e8 63 ff ff ff       	call   1210 <deregister_tm_clones>
    12ad:	c6 05 74 ce 00 00 01 	movb   $0x1,0xce74(%rip)        # e128 <completed.0>
    12b4:	5d                   	pop    %rbp
    12b5:	c3                   	ret
    12b6:	66 2e 0f 1f 84 00 00 	cs nopw 0x0(%rax,%rax,1)
    12bd:	00 00 00 
    12c0:	c3                   	ret
    12c1:	0f 1f 40 00          	nopl   0x0(%rax)
    12c5:	66 66 2e 0f 1f 84 00 	data16 cs nopw 0x0(%rax,%rax,1)
    12cc:	00 00 00 00 

00000000000012d0 <frame_dummy>:
    12d0:	f3 0f 1e fa          	endbr64
    12d4:	e9 67 ff ff ff       	jmp    1240 <register_tm_clones>

00000000000012d9 <e_refc_init>:
    12d9:	55                   	push   %rbp
    12da:	48 89 e5             	mov    %rsp,%rbp
    12dd:	48 83 ec 10          	sub    $0x10,%rsp
    12e1:	bf 04 00 00 00       	mov    $0x4,%edi
    12e6:	e8 55 fe ff ff       	call   1140 <malloc@plt>
    12eb:	48 89 45 f8          	mov    %rax,-0x8(%rbp)
    12ef:	48 8b 45 f8          	mov    -0x8(%rbp),%rax
    12f3:	c7 00 01 00 00 00    	movl   $0x1,(%rax)
    12f9:	48 8b 45 f8          	mov    -0x8(%rbp),%rax
    12fd:	c9                   	leave
    12fe:	c3                   	ret

00000000000012ff <e_refc_acquire>:
    12ff:	55                   	push   %rbp
    1300:	48 89 e5             	mov    %rsp,%rbp
    1303:	48 89 7d f8          	mov    %rdi,-0x8(%rbp)
    1307:	48 8b 45 f8          	mov    -0x8(%rbp),%rax
    130b:	8b 00                	mov    (%rax),%eax
    130d:	8d 48 01             	lea    0x1(%rax),%ecx
    1310:	48 8b 55 f8          	mov    -0x8(%rbp),%rdx
    1314:	89 0a                	mov    %ecx,(%rdx)
    1316:	5d                   	pop    %rbp
    1317:	c3                   	ret

0000000000001318 <e_refc_release>:
    1318:	55                   	push   %rbp
    1319:	48 89 e5             	mov    %rsp,%rbp
    131c:	48 89 7d f8          	mov    %rdi,-0x8(%rbp)
    1320:	48 8b 45 f8          	mov    -0x8(%rbp),%rax
    1324:	8b 00                	mov    (%rax),%eax
    1326:	85 c0                	test   %eax,%eax
    1328:	7e 0f                	jle    1339 <e_refc_release+0x21>
    132a:	48 8b 45 f8          	mov    -0x8(%rbp),%rax
    132e:	8b 00                	mov    (%rax),%eax
    1330:	8d 50 ff             	lea    -0x1(%rax),%edx
    1333:	48 8b 45 f8          	mov    -0x8(%rbp),%rax
    1337:	89 10                	mov    %edx,(%rax)
    1339:	90                   	nop
    133a:	5d                   	pop    %rbp
    133b:	c3                   	ret

000000000000133c <e_var_acquire>:
    133c:	55                   	push   %rbp
    133d:	48 89 e5             	mov    %rsp,%rbp
    1340:	48 83 ec 08          	sub    $0x8,%rsp
    1344:	48 89 7d f8          	mov    %rdi,-0x8(%rbp)
    1348:	48 8b 45 f8          	mov    -0x8(%rbp),%rax
    134c:	48 8b 40 08          	mov    0x8(%rax),%rax
    1350:	48 89 c7             	mov    %rax,%rdi
    1353:	e8 a7 ff ff ff       	call   12ff <e_refc_acquire>
    1358:	c9                   	leave
    1359:	c3                   	ret

000000000000135a <e_var_release>:
    135a:	55                   	push   %rbp
    135b:	48 89 e5             	mov    %rsp,%rbp
    135e:	48 83 ec 10          	sub    $0x10,%rsp
    1362:	48 89 7d f8          	mov    %rdi,-0x8(%rbp)
    1366:	48 8b 45 f8          	mov    -0x8(%rbp),%rax
    136a:	48 8b 40 08          	mov    0x8(%rax),%rax
    136e:	48 89 c7             	mov    %rax,%rdi
    1371:	e8 a2 ff ff ff       	call   1318 <e_refc_release>
    1376:	48 8b 45 f8          	mov    -0x8(%rbp),%rax
    137a:	48 8b 40 08          	mov    0x8(%rax),%rax
    137e:	8b 00                	mov    (%rax),%eax
    1380:	85 c0                	test   %eax,%eax
    1382:	7f 0c                	jg     1390 <e_var_release+0x36>
    1384:	48 8b 45 f8          	mov    -0x8(%rbp),%rax
    1388:	48 89 c7             	mov    %rax,%rdi
    138b:	e8 24 8b 00 00       	call   9eb4 <e_var_free>
    1390:	90                   	nop
    1391:	c9                   	leave
    1392:	c3                   	ret

0000000000001393 <e_hash_fnv>:
    1393:	55                   	push   %rbp
    1394:	48 89 e5             	mov    %rsp,%rbp
    1397:	48 89 7d d8          	mov    %rdi,-0x28(%rbp)
    139b:	48 89 75 d0          	mov    %rsi,-0x30(%rbp)
    139f:	48 8b 45 d8          	mov    -0x28(%rbp),%rax
    13a3:	48 89 45 f8          	mov    %rax,-0x8(%rbp)
    13a7:	c7 45 ec c5 9d 1c 81 	movl   $0x811c9dc5,-0x14(%rbp)
    13ae:	48 c7 45 f0 00 00 00 	movq   $0x0,-0x10(%rbp)
    13b5:	00 
    13b6:	eb 25                	jmp    13dd <e_hash_fnv+0x4a>
    13b8:	48 8b 55 f8          	mov    -0x8(%rbp),%rdx
    13bc:	48 8b 45 f0          	mov    -0x10(%rbp),%rax
    13c0:	48 01 d0             	add    %rdx,%rax
    13c3:	0f b6 00             	movzbl (%rax),%eax
    13c6:	0f b6 c0             	movzbl %al,%eax
    13c9:	31 45 ec             	xor    %eax,-0x14(%rbp)
    13cc:	8b 45 ec             	mov    -0x14(%rbp),%eax
    13cf:	69 c0 93 01 00 01    	imul   $0x1000193,%eax,%eax
    13d5:	89 45 ec             	mov    %eax,-0x14(%rbp)
    13d8:	48 83 45 f0 01       	addq   $0x1,-0x10(%rbp)
    13dd:	48 8b 45 f0          	mov    -0x10(%rbp),%rax
    13e1:	48 3b 45 d0          	cmp    -0x30(%rbp),%rax
    13e5:	72 d1                	jb     13b8 <e_hash_fnv+0x25>
    13e7:	8b 45 ec             	mov    -0x14(%rbp),%eax
    13ea:	5d                   	pop    %rbp
    13eb:	c3                   	ret

00000000000013ec <e_read_u32>:
    13ec:	55                   	push   %rbp
    13ed:	48 89 e5             	mov    %rsp,%rbp
    13f0:	48 89 7d e8          	mov    %rdi,-0x18(%rbp)
    13f4:	48 8b 45 e8          	mov    -0x18(%rbp),%rax
    13f8:	48 8b 00             	mov    (%rax),%rax
    13fb:	8b 00                	mov    (%rax),%eax
    13fd:	89 45 fc             	mov    %eax,-0x4(%rbp)
    1400:	48 8b 45 e8          	mov    -0x18(%rbp),%rax
    1404:	48 8b 00             	mov    (%rax),%rax
    1407:	48 8d 50 04          	lea    0x4(%rax),%rdx
    140b:	48 8b 45 e8          	mov    -0x18(%rbp),%rax
    140f:	48 89 10             	mov    %rdx,(%rax)
    1412:	8b 45 fc             	mov    -0x4(%rbp),%eax
    1415:	5d                   	pop    %rbp
    1416:	c3                   	ret

0000000000001417 <e_read_u16>:
    1417:	55                   	push   %rbp
    1418:	48 89 e5             	mov    %rsp,%rbp
    141b:	48 89 7d e8          	mov    %rdi,-0x18(%rbp)
    141f:	48 8b 45 e8          	mov    -0x18(%rbp),%rax
    1423:	48 8b 00             	mov    (%rax),%rax
    1426:	0f b7 00             	movzwl (%rax),%eax
    1429:	66 89 45 fe          	mov    %ax,-0x2(%rbp)
    142d:	48 8b 45 e8          	mov    -0x18(%rbp),%rax
    1431:	48 8b 00             	mov    (%rax),%rax
    1434:	48 8d 50 02          	lea    0x2(%rax),%rdx
    1438:	48 8b 45 e8          	mov    -0x18(%rbp),%rax
    143c:	48 89 10             	mov    %rdx,(%rax)
    143f:	0f b7 45 fe          	movzwl -0x2(%rbp),%eax
    1443:	5d                   	pop    %rbp
    1444:	c3                   	ret

0000000000001445 <e_read_u8>:
    1445:	55                   	push   %rbp
    1446:	48 89 e5             	mov    %rsp,%rbp
    1449:	48 89 7d e8          	mov    %rdi,-0x18(%rbp)
    144d:	48 8b 45 e8          	mov    -0x18(%rbp),%rax
    1451:	48 8b 00             	mov    (%rax),%rax
    1454:	0f b6 00             	movzbl (%rax),%eax
    1457:	88 45 ff             	mov    %al,-0x1(%rbp)
    145a:	48 8b 45 e8          	mov    -0x18(%rbp),%rax
    145e:	48 8b 00             	mov    (%rax),%rax
    1461:	48 8d 50 01          	lea    0x1(%rax),%rdx
    1465:	48 8b 45 e8          	mov    -0x18(%rbp),%rax
    1469:	48 89 10             	mov    %rdx,(%rax)
    146c:	0f b6 45 ff          	movzbl -0x1(%rbp),%eax
    1470:	5d                   	pop    %rbp
    1471:	c3                   	ret

0000000000001472 <to_float>:
    1472:	55                   	push   %rbp
    1473:	48 89 e5             	mov    %rsp,%rbp
    1476:	8b 45 10             	mov    0x10(%rbp),%eax
    1479:	83 f8 04             	cmp    $0x4,%eax
    147c:	74 1b                	je     1499 <to_float+0x27>
    147e:	83 f8 04             	cmp    $0x4,%eax
    1481:	77 4c                	ja     14cf <to_float+0x5d>
    1483:	83 f8 03             	cmp    $0x3,%eax
    1486:	74 25                	je     14ad <to_float+0x3b>
    1488:	83 f8 03             	cmp    $0x3,%eax
    148b:	77 42                	ja     14cf <to_float+0x5d>
    148d:	83 f8 01             	cmp    $0x1,%eax
    1490:	74 0e                	je     14a0 <to_float+0x2e>
    1492:	83 f8 02             	cmp    $0x2,%eax
    1495:	74 27                	je     14be <to_float+0x4c>
    1497:	eb 36                	jmp    14cf <to_float+0x5d>
    1499:	f2 0f 10 45 20       	movsd  0x20(%rbp),%xmm0
    149e:	eb 33                	jmp    14d3 <to_float+0x61>
    14a0:	8b 45 20             	mov    0x20(%rbp),%eax
    14a3:	66 0f ef c0          	pxor   %xmm0,%xmm0
    14a7:	f2 0f 2a c0          	cvtsi2sd %eax,%xmm0
    14ab:	eb 26                	jmp    14d3 <to_float+0x61>
    14ad:	0f b6 45 20          	movzbl 0x20(%rbp),%eax
    14b1:	0f be c0             	movsbl %al,%eax
    14b4:	66 0f ef c0          	pxor   %xmm0,%xmm0
    14b8:	f2 0f 2a c0          	cvtsi2sd %eax,%xmm0
    14bc:	eb 15                	jmp    14d3 <to_float+0x61>
    14be:	0f b6 45 20          	movzbl 0x20(%rbp),%eax
    14c2:	0f b6 c0             	movzbl %al,%eax
    14c5:	66 0f ef c0          	pxor   %xmm0,%xmm0
    14c9:	f2 0f 2a c0          	cvtsi2sd %eax,%xmm0
    14cd:	eb 04                	jmp    14d3 <to_float+0x61>
    14cf:	66 0f ef c0          	pxor   %xmm0,%xmm0
    14d3:	5d                   	pop    %rbp
    14d4:	c3                   	ret

00000000000014d5 <to_int>:
    14d5:	55                   	push   %rbp
    14d6:	48 89 e5             	mov    %rsp,%rbp
    14d9:	8b 45 10             	mov    0x10(%rbp),%eax
    14dc:	83 f8 04             	cmp    $0x4,%eax
    14df:	74 20                	je     1501 <to_int+0x2c>
    14e1:	83 f8 04             	cmp    $0x4,%eax
    14e4:	77 38                	ja     151e <to_int+0x49>
    14e6:	83 f8 03             	cmp    $0x3,%eax
    14e9:	74 21                	je     150c <to_int+0x37>
    14eb:	83 f8 03             	cmp    $0x3,%eax
    14ee:	77 2e                	ja     151e <to_int+0x49>
    14f0:	83 f8 01             	cmp    $0x1,%eax
    14f3:	74 07                	je     14fc <to_int+0x27>
    14f5:	83 f8 02             	cmp    $0x2,%eax
    14f8:	74 1b                	je     1515 <to_int+0x40>
    14fa:	eb 22                	jmp    151e <to_int+0x49>
    14fc:	8b 45 20             	mov    0x20(%rbp),%eax
    14ff:	eb 22                	jmp    1523 <to_int+0x4e>
    1501:	f2 0f 10 45 20       	movsd  0x20(%rbp),%xmm0
    1506:	f2 0f 2c c0          	cvttsd2si %xmm0,%eax
    150a:	eb 17                	jmp    1523 <to_int+0x4e>
    150c:	0f b6 45 20          	movzbl 0x20(%rbp),%eax
    1510:	0f be c0             	movsbl %al,%eax
    1513:	eb 0e                	jmp    1523 <to_int+0x4e>
    1515:	0f b6 45 20          	movzbl 0x20(%rbp),%eax
    1519:	0f b6 c0             	movzbl %al,%eax
    151c:	eb 05                	jmp    1523 <to_int+0x4e>
    151e:	b8 00 00 00 00       	mov    $0x0,%eax
    1523:	5d                   	pop    %rbp
    1524:	c3                   	ret

0000000000001525 <is_float>:
    1525:	55                   	push   %rbp
    1526:	48 89 e5             	mov    %rsp,%rbp
    1529:	8b 45 10             	mov    0x10(%rbp),%eax
    152c:	83 f8 04             	cmp    $0x4,%eax
    152f:	0f 94 c0             	sete   %al
    1532:	5d                   	pop    %rbp
    1533:	c3                   	ret

0000000000001534 <operate>:
    1534:	55                   	push   %rbp
    1535:	48 89 e5             	mov    %rsp,%rbp
    1538:	41 54                	push   %r12
    153a:	53                   	push   %rbx
    153b:	48 83 ec 40          	sub    $0x40,%rsp
    153f:	48 89 7d c8          	mov    %rdi,-0x38(%rbp)
    1543:	89 f0                	mov    %esi,%eax
    1545:	88 45 c4             	mov    %al,-0x3c(%rbp)
    1548:	80 7d c4 09          	cmpb   $0x9,-0x3c(%rbp)
    154c:	75 56                	jne    15a4 <operate+0x70>
    154e:	e8 86 fd ff ff       	call   12d9 <e_refc_init>
    1553:	48 89 c3             	mov    %rax,%rbx
    1556:	48 83 ec 08          	sub    $0x8,%rsp
    155a:	48 83 ec 18          	sub    $0x18,%rsp
    155e:	48 89 e1             	mov    %rsp,%rcx
    1561:	48 8b 45 28          	mov    0x28(%rbp),%rax
    1565:	48 8b 55 30          	mov    0x30(%rbp),%rdx
    1569:	48 89 01             	mov    %rax,(%rcx)
    156c:	48 89 51 08          	mov    %rdx,0x8(%rcx)
    1570:	48 8b 45 38          	mov    0x38(%rbp),%rax
    1574:	48 89 41 10          	mov    %rax,0x10(%rcx)
    1578:	e8 58 ff ff ff       	call   14d5 <to_int>
    157d:	48 83 c4 20          	add    $0x20,%rsp
    1581:	85 c0                	test   %eax,%eax
    1583:	0f 94 c2             	sete   %dl
    1586:	48 8b 45 c8          	mov    -0x38(%rbp),%rax
    158a:	c7 00 02 00 00 00    	movl   $0x2,(%rax)
    1590:	48 8b 45 c8          	mov    -0x38(%rbp),%rax
    1594:	48 89 58 08          	mov    %rbx,0x8(%rax)
    1598:	48 8b 45 c8          	mov    -0x38(%rbp),%rax
    159c:	88 50 10             	mov    %dl,0x10(%rax)
    159f:	e9 dd 15 00 00       	jmp    2b81 <operate+0x164d>
    15a4:	0f b6 45 c4          	movzbl -0x3c(%rbp),%eax
    15a8:	83 f8 13             	cmp    $0x13,%eax
    15ab:	0f 84 e2 0e 00 00    	je     2493 <operate+0xf5f>
    15b1:	83 f8 13             	cmp    $0x13,%eax
    15b4:	0f 8f b7 15 00 00    	jg     2b71 <operate+0x163d>
    15ba:	83 f8 12             	cmp    $0x12,%eax
    15bd:	0f 84 5c 0d 00 00    	je     231f <operate+0xdeb>
    15c3:	83 f8 12             	cmp    $0x12,%eax
    15c6:	0f 8f a5 15 00 00    	jg     2b71 <operate+0x163d>
    15cc:	83 f8 11             	cmp    $0x11,%eax
    15cf:	0f 84 d0 0b 00 00    	je     21a5 <operate+0xc71>
    15d5:	83 f8 11             	cmp    $0x11,%eax
    15d8:	0f 8f 93 15 00 00    	jg     2b71 <operate+0x163d>
    15de:	83 f8 10             	cmp    $0x10,%eax
    15e1:	0f 84 44 0a 00 00    	je     202b <operate+0xaf7>
    15e7:	83 f8 10             	cmp    $0x10,%eax
    15ea:	0f 8f 81 15 00 00    	jg     2b71 <operate+0x163d>
    15f0:	83 f8 0f             	cmp    $0xf,%eax
    15f3:	0f 84 ad 08 00 00    	je     1ea6 <operate+0x972>
    15f9:	83 f8 0f             	cmp    $0xf,%eax
    15fc:	0f 8f 6f 15 00 00    	jg     2b71 <operate+0x163d>
    1602:	83 f8 0e             	cmp    $0xe,%eax
    1605:	0f 84 16 07 00 00    	je     1d21 <operate+0x7ed>
    160b:	83 f8 0e             	cmp    $0xe,%eax
    160e:	0f 8f 5d 15 00 00    	jg     2b71 <operate+0x163d>
    1614:	83 f8 0d             	cmp    $0xd,%eax
    1617:	0f 84 76 13 00 00    	je     2993 <operate+0x145f>
    161d:	83 f8 0d             	cmp    $0xd,%eax
    1620:	0f 8f 4b 15 00 00    	jg     2b71 <operate+0x163d>
    1626:	83 f8 0c             	cmp    $0xc,%eax
    1629:	0f 84 c1 14 00 00    	je     2af0 <operate+0x15bc>
    162f:	83 f8 0c             	cmp    $0xc,%eax
    1632:	0f 8f 39 15 00 00    	jg     2b71 <operate+0x163d>
    1638:	83 f8 0b             	cmp    $0xb,%eax
    163b:	0f 84 2b 14 00 00    	je     2a6c <operate+0x1538>
    1641:	83 f8 0b             	cmp    $0xb,%eax
    1644:	0f 8f 27 15 00 00    	jg     2b71 <operate+0x163d>
    164a:	83 f8 0a             	cmp    $0xa,%eax
    164d:	0f 84 95 13 00 00    	je     29e8 <operate+0x14b4>
    1653:	83 f8 0a             	cmp    $0xa,%eax
    1656:	0f 8f 15 15 00 00    	jg     2b71 <operate+0x163d>
    165c:	83 f8 08             	cmp    $0x8,%eax
    165f:	0f 84 68 11 00 00    	je     27cd <operate+0x1299>
    1665:	83 f8 08             	cmp    $0x8,%eax
    1668:	0f 8f 03 15 00 00    	jg     2b71 <operate+0x163d>
    166e:	83 f8 07             	cmp    $0x7,%eax
    1671:	0f 84 90 0f 00 00    	je     2607 <operate+0x10d3>
    1677:	83 f8 07             	cmp    $0x7,%eax
    167a:	0f 8f f1 14 00 00    	jg     2b71 <operate+0x163d>
    1680:	83 f8 05             	cmp    $0x5,%eax
    1683:	0f 84 0d 06 00 00    	je     1c96 <operate+0x762>
    1689:	83 f8 05             	cmp    $0x5,%eax
    168c:	0f 8f df 14 00 00    	jg     2b71 <operate+0x163d>
    1692:	83 f8 04             	cmp    $0x4,%eax
    1695:	0f 84 80 04 00 00    	je     1b1b <operate+0x5e7>
    169b:	83 f8 04             	cmp    $0x4,%eax
    169e:	0f 8f cd 14 00 00    	jg     2b71 <operate+0x163d>
    16a4:	83 f8 03             	cmp    $0x3,%eax
    16a7:	0f 84 ff 02 00 00    	je     19ac <operate+0x478>
    16ad:	83 f8 03             	cmp    $0x3,%eax
    16b0:	0f 8f bb 14 00 00    	jg     2b71 <operate+0x163d>
    16b6:	83 f8 01             	cmp    $0x1,%eax
    16b9:	74 0e                	je     16c9 <operate+0x195>
    16bb:	83 f8 02             	cmp    $0x2,%eax
    16be:	0f 84 72 01 00 00    	je     1836 <operate+0x302>
    16c4:	e9 a8 14 00 00       	jmp    2b71 <operate+0x163d>
    16c9:	48 83 ec 08          	sub    $0x8,%rsp
    16cd:	48 83 ec 18          	sub    $0x18,%rsp
    16d1:	48 89 e1             	mov    %rsp,%rcx
    16d4:	48 8b 45 10          	mov    0x10(%rbp),%rax
    16d8:	48 8b 55 18          	mov    0x18(%rbp),%rdx
    16dc:	48 89 01             	mov    %rax,(%rcx)
    16df:	48 89 51 08          	mov    %rdx,0x8(%rcx)
    16e3:	48 8b 45 20          	mov    0x20(%rbp),%rax
    16e7:	48 89 41 10          	mov    %rax,0x10(%rcx)
    16eb:	e8 35 fe ff ff       	call   1525 <is_float>
    16f0:	48 83 c4 20          	add    $0x20,%rsp
    16f4:	84 c0                	test   %al,%al
    16f6:	75 33                	jne    172b <operate+0x1f7>
    16f8:	48 83 ec 08          	sub    $0x8,%rsp
    16fc:	48 83 ec 18          	sub    $0x18,%rsp
    1700:	48 89 e1             	mov    %rsp,%rcx
    1703:	48 8b 45 28          	mov    0x28(%rbp),%rax
    1707:	48 8b 55 30          	mov    0x30(%rbp),%rdx
    170b:	48 89 01             	mov    %rax,(%rcx)
    170e:	48 89 51 08          	mov    %rdx,0x8(%rcx)
    1712:	48 8b 45 38          	mov    0x38(%rbp),%rax
    1716:	48 89 41 10          	mov    %rax,0x10(%rcx)
    171a:	e8 06 fe ff ff       	call   1525 <is_float>
    171f:	48 83 c4 20          	add    $0x20,%rsp
    1723:	84 c0                	test   %al,%al
    1725:	0f 84 88 00 00 00    	je     17b3 <operate+0x27f>
    172b:	e8 a9 fb ff ff       	call   12d9 <e_refc_init>
    1730:	48 89 c3             	mov    %rax,%rbx
    1733:	48 83 ec 08          	sub    $0x8,%rsp
    1737:	48 83 ec 18          	sub    $0x18,%rsp
    173b:	48 89 e1             	mov    %rsp,%rcx
    173e:	48 8b 45 10          	mov    0x10(%rbp),%rax
    1742:	48 8b 55 18          	mov    0x18(%rbp),%rdx
    1746:	48 89 01             	mov    %rax,(%rcx)
    1749:	48 89 51 08          	mov    %rdx,0x8(%rcx)
    174d:	48 8b 45 20          	mov    0x20(%rbp),%rax
    1751:	48 89 41 10          	mov    %rax,0x10(%rcx)
    1755:	e8 18 fd ff ff       	call   1472 <to_float>
    175a:	48 83 c4 20          	add    $0x20,%rsp
    175e:	f2 0f 11 45 b8       	movsd  %xmm0,-0x48(%rbp)
    1763:	48 83 ec 08          	sub    $0x8,%rsp
    1767:	48 83 ec 18          	sub    $0x18,%rsp
    176b:	48 89 e1             	mov    %rsp,%rcx
    176e:	48 8b 45 28          	mov    0x28(%rbp),%rax
    1772:	48 8b 55 30          	mov    0x30(%rbp),%rdx
    1776:	48 89 01             	mov    %rax,(%rcx)
    1779:	48 89 51 08          	mov    %rdx,0x8(%rcx)
    177d:	48 8b 45 38          	mov    0x38(%rbp),%rax
    1781:	48 89 41 10          	mov    %rax,0x10(%rcx)
    1785:	e8 e8 fc ff ff       	call   1472 <to_float>
    178a:	48 83 c4 20          	add    $0x20,%rsp
    178e:	f2 0f 58 45 b8       	addsd  -0x48(%rbp),%xmm0
    1793:	48 8b 45 c8          	mov    -0x38(%rbp),%rax
    1797:	c7 00 04 00 00 00    	movl   $0x4,(%rax)
    179d:	48 8b 45 c8          	mov    -0x38(%rbp),%rax
    17a1:	48 89 58 08          	mov    %rbx,0x8(%rax)
    17a5:	48 8b 45 c8          	mov    -0x38(%rbp),%rax
    17a9:	f2 0f 11 40 10       	movsd  %xmm0,0x10(%rax)
    17ae:	e9 ce 13 00 00       	jmp    2b81 <operate+0x164d>
    17b3:	e8 21 fb ff ff       	call   12d9 <e_refc_init>
    17b8:	48 89 c3             	mov    %rax,%rbx
    17bb:	48 83 ec 08          	sub    $0x8,%rsp
    17bf:	48 83 ec 18          	sub    $0x18,%rsp
    17c3:	48 89 e1             	mov    %rsp,%rcx
    17c6:	48 8b 45 10          	mov    0x10(%rbp),%rax
    17ca:	48 8b 55 18          	mov    0x18(%rbp),%rdx
    17ce:	48 89 01             	mov    %rax,(%rcx)
    17d1:	48 89 51 08          	mov    %rdx,0x8(%rcx)
    17d5:	48 8b 45 20          	mov    0x20(%rbp),%rax
    17d9:	48 89 41 10          	mov    %rax,0x10(%rcx)
    17dd:	e8 f3 fc ff ff       	call   14d5 <to_int>
    17e2:	48 83 c4 20          	add    $0x20,%rsp
    17e6:	41 89 c4             	mov    %eax,%r12d
    17e9:	48 83 ec 08          	sub    $0x8,%rsp
    17ed:	48 83 ec 18          	sub    $0x18,%rsp
    17f1:	48 89 e1             	mov    %rsp,%rcx
    17f4:	48 8b 45 28          	mov    0x28(%rbp),%rax
    17f8:	48 8b 55 30          	mov    0x30(%rbp),%rdx
    17fc:	48 89 01             	mov    %rax,(%rcx)
    17ff:	48 89 51 08          	mov    %rdx,0x8(%rcx)
    1803:	48 8b 45 38          	mov    0x38(%rbp),%rax
    1807:	48 89 41 10          	mov    %rax,0x10(%rcx)
    180b:	e8 c5 fc ff ff       	call   14d5 <to_int>
    1810:	48 83 c4 20          	add    $0x20,%rsp
    1814:	41 8d 14 04          	lea    (%r12,%rax,1),%edx
    1818:	48 8b 45 c8          	mov    -0x38(%rbp),%rax
    181c:	c7 00 01 00 00 00    	movl   $0x1,(%rax)
    1822:	48 8b 45 c8          	mov    -0x38(%rbp),%rax
    1826:	48 89 58 08          	mov    %rbx,0x8(%rax)
    182a:	48 8b 45 c8          	mov    -0x38(%rbp),%rax
    182e:	89 50 10             	mov    %edx,0x10(%rax)
    1831:	e9 4b 13 00 00       	jmp    2b81 <operate+0x164d>
    1836:	48 83 ec 08          	sub    $0x8,%rsp
    183a:	48 83 ec 18          	sub    $0x18,%rsp
    183e:	48 89 e1             	mov    %rsp,%rcx
    1841:	48 8b 45 10          	mov    0x10(%rbp),%rax
    1845:	48 8b 55 18          	mov    0x18(%rbp),%rdx
    1849:	48 89 01             	mov    %rax,(%rcx)
    184c:	48 89 51 08          	mov    %rdx,0x8(%rcx)
    1850:	48 8b 45 20          	mov    0x20(%rbp),%rax
    1854:	48 89 41 10          	mov    %rax,0x10(%rcx)
    1858:	e8 c8 fc ff ff       	call   1525 <is_float>
    185d:	48 83 c4 20          	add    $0x20,%rsp
    1861:	84 c0                	test   %al,%al
    1863:	75 33                	jne    1898 <operate+0x364>
    1865:	48 83 ec 08          	sub    $0x8,%rsp
    1869:	48 83 ec 18          	sub    $0x18,%rsp
    186d:	48 89 e1             	mov    %rsp,%rcx
    1870:	48 8b 45 28          	mov    0x28(%rbp),%rax
    1874:	48 8b 55 30          	mov    0x30(%rbp),%rdx
    1878:	48 89 01             	mov    %rax,(%rcx)
    187b:	48 89 51 08          	mov    %rdx,0x8(%rcx)
    187f:	48 8b 45 38          	mov    0x38(%rbp),%rax
    1883:	48 89 41 10          	mov    %rax,0x10(%rcx)
    1887:	e8 99 fc ff ff       	call   1525 <is_float>
    188c:	48 83 c4 20          	add    $0x20,%rsp
    1890:	84 c0                	test   %al,%al
    1892:	0f 84 90 00 00 00    	je     1928 <operate+0x3f4>
    1898:	e8 3c fa ff ff       	call   12d9 <e_refc_init>
    189d:	48 89 c3             	mov    %rax,%rbx
    18a0:	48 83 ec 08          	sub    $0x8,%rsp
    18a4:	48 83 ec 18          	sub    $0x18,%rsp
    18a8:	48 89 e1             	mov    %rsp,%rcx
    18ab:	48 8b 45 10          	mov    0x10(%rbp),%rax
    18af:	48 8b 55 18          	mov    0x18(%rbp),%rdx
    18b3:	48 89 01             	mov    %rax,(%rcx)
    18b6:	48 89 51 08          	mov    %rdx,0x8(%rcx)
    18ba:	48 8b 45 20          	mov    0x20(%rbp),%rax
    18be:	48 89 41 10          	mov    %rax,0x10(%rcx)
    18c2:	e8 ab fb ff ff       	call   1472 <to_float>
    18c7:	48 83 c4 20          	add    $0x20,%rsp
    18cb:	66 49 0f 7e c4       	movq   %xmm0,%r12
    18d0:	48 83 ec 08          	sub    $0x8,%rsp
    18d4:	48 83 ec 18          	sub    $0x18,%rsp
    18d8:	48 89 e1             	mov    %rsp,%rcx
    18db:	48 8b 45 28          	mov    0x28(%rbp),%rax
    18df:	48 8b 55 30          	mov    0x30(%rbp),%rdx
    18e3:	48 89 01             	mov    %rax,(%rcx)
    18e6:	48 89 51 08          	mov    %rdx,0x8(%rcx)
    18ea:	48 8b 45 38          	mov    0x38(%rbp),%rax
    18ee:	48 89 41 10          	mov    %rax,0x10(%rcx)
    18f2:	e8 7b fb ff ff       	call   1472 <to_float>
    18f7:	48 83 c4 20          	add    $0x20,%rsp
    18fb:	66 0f 28 c8          	movapd %xmm0,%xmm1
    18ff:	66 49 0f 6e c4       	movq   %r12,%xmm0
    1904:	f2 0f 5c c1          	subsd  %xmm1,%xmm0
    1908:	48 8b 45 c8          	mov    -0x38(%rbp),%rax
    190c:	c7 00 04 00 00 00    	movl   $0x4,(%rax)
    1912:	48 8b 45 c8          	mov    -0x38(%rbp),%rax
    1916:	48 89 58 08          	mov    %rbx,0x8(%rax)
    191a:	48 8b 45 c8          	mov    -0x38(%rbp),%rax
    191e:	f2 0f 11 40 10       	movsd  %xmm0,0x10(%rax)
    1923:	e9 59 12 00 00       	jmp    2b81 <operate+0x164d>
    1928:	e8 ac f9 ff ff       	call   12d9 <e_refc_init>
    192d:	48 89 c3             	mov    %rax,%rbx
    1930:	48 83 ec 08          	sub    $0x8,%rsp
    1934:	48 83 ec 18          	sub    $0x18,%rsp
    1938:	48 89 e1             	mov    %rsp,%rcx
    193b:	48 8b 45 10          	mov    0x10(%rbp),%rax
    193f:	48 8b 55 18          	mov    0x18(%rbp),%rdx
    1943:	48 89 01             	mov    %rax,(%rcx)
    1946:	48 89 51 08          	mov    %rdx,0x8(%rcx)
    194a:	48 8b 45 20          	mov    0x20(%rbp),%rax
    194e:	48 89 41 10          	mov    %rax,0x10(%rcx)
    1952:	e8 7e fb ff ff       	call   14d5 <to_int>
    1957:	48 83 c4 20          	add    $0x20,%rsp
    195b:	41 89 c4             	mov    %eax,%r12d
    195e:	48 83 ec 08          	sub    $0x8,%rsp
    1962:	48 83 ec 18          	sub    $0x18,%rsp
    1966:	48 89 e1             	mov    %rsp,%rcx
    1969:	48 8b 45 28          	mov    0x28(%rbp),%rax
    196d:	48 8b 55 30          	mov    0x30(%rbp),%rdx
    1971:	48 89 01             	mov    %rax,(%rcx)
    1974:	48 89 51 08          	mov    %rdx,0x8(%rcx)
    1978:	48 8b 45 38          	mov    0x38(%rbp),%rax
    197c:	48 89 41 10          	mov    %rax,0x10(%rcx)
    1980:	e8 50 fb ff ff       	call   14d5 <to_int>
    1985:	48 83 c4 20          	add    $0x20,%rsp
    1989:	44 89 e2             	mov    %r12d,%edx
    198c:	29 c2                	sub    %eax,%edx
    198e:	48 8b 45 c8          	mov    -0x38(%rbp),%rax
    1992:	c7 00 01 00 00 00    	movl   $0x1,(%rax)
    1998:	48 8b 45 c8          	mov    -0x38(%rbp),%rax
    199c:	48 89 58 08          	mov    %rbx,0x8(%rax)
    19a0:	48 8b 45 c8          	mov    -0x38(%rbp),%rax
    19a4:	89 50 10             	mov    %edx,0x10(%rax)
    19a7:	e9 d5 11 00 00       	jmp    2b81 <operate+0x164d>
    19ac:	48 83 ec 08          	sub    $0x8,%rsp
    19b0:	48 83 ec 18          	sub    $0x18,%rsp
    19b4:	48 89 e1             	mov    %rsp,%rcx
    19b7:	48 8b 45 10          	mov    0x10(%rbp),%rax
    19bb:	48 8b 55 18          	mov    0x18(%rbp),%rdx
    19bf:	48 89 01             	mov    %rax,(%rcx)
    19c2:	48 89 51 08          	mov    %rdx,0x8(%rcx)
    19c6:	48 8b 45 20          	mov    0x20(%rbp),%rax
    19ca:	48 89 41 10          	mov    %rax,0x10(%rcx)
    19ce:	e8 52 fb ff ff       	call   1525 <is_float>
    19d3:	48 83 c4 20          	add    $0x20,%rsp
    19d7:	84 c0                	test   %al,%al
    19d9:	75 33                	jne    1a0e <operate+0x4da>
    19db:	48 83 ec 08          	sub    $0x8,%rsp
    19df:	48 83 ec 18          	sub    $0x18,%rsp
    19e3:	48 89 e1             	mov    %rsp,%rcx
    19e6:	48 8b 45 28          	mov    0x28(%rbp),%rax
    19ea:	48 8b 55 30          	mov    0x30(%rbp),%rdx
    19ee:	48 89 01             	mov    %rax,(%rcx)
    19f1:	48 89 51 08          	mov    %rdx,0x8(%rcx)
    19f5:	48 8b 45 38          	mov    0x38(%rbp),%rax
    19f9:	48 89 41 10          	mov    %rax,0x10(%rcx)
    19fd:	e8 23 fb ff ff       	call   1525 <is_float>
    1a02:	48 83 c4 20          	add    $0x20,%rsp
    1a06:	84 c0                	test   %al,%al
    1a08:	0f 84 88 00 00 00    	je     1a96 <operate+0x562>
    1a0e:	e8 c6 f8 ff ff       	call   12d9 <e_refc_init>
    1a13:	48 89 c3             	mov    %rax,%rbx
    1a16:	48 83 ec 08          	sub    $0x8,%rsp
    1a1a:	48 83 ec 18          	sub    $0x18,%rsp
    1a1e:	48 89 e1             	mov    %rsp,%rcx
    1a21:	48 8b 45 10          	mov    0x10(%rbp),%rax
    1a25:	48 8b 55 18          	mov    0x18(%rbp),%rdx
    1a29:	48 89 01             	mov    %rax,(%rcx)
    1a2c:	48 89 51 08          	mov    %rdx,0x8(%rcx)
    1a30:	48 8b 45 20          	mov    0x20(%rbp),%rax
    1a34:	48 89 41 10          	mov    %rax,0x10(%rcx)
    1a38:	e8 35 fa ff ff       	call   1472 <to_float>
    1a3d:	48 83 c4 20          	add    $0x20,%rsp
    1a41:	f2 0f 11 45 b8       	movsd  %xmm0,-0x48(%rbp)
    1a46:	48 83 ec 08          	sub    $0x8,%rsp
    1a4a:	48 83 ec 18          	sub    $0x18,%rsp
    1a4e:	48 89 e1             	mov    %rsp,%rcx
    1a51:	48 8b 45 28          	mov    0x28(%rbp),%rax
    1a55:	48 8b 55 30          	mov    0x30(%rbp),%rdx
    1a59:	48 89 01             	mov    %rax,(%rcx)
    1a5c:	48 89 51 08          	mov    %rdx,0x8(%rcx)
    1a60:	48 8b 45 38          	mov    0x38(%rbp),%rax
    1a64:	48 89 41 10          	mov    %rax,0x10(%rcx)
    1a68:	e8 05 fa ff ff       	call   1472 <to_float>
    1a6d:	48 83 c4 20          	add    $0x20,%rsp
    1a71:	f2 0f 59 45 b8       	mulsd  -0x48(%rbp),%xmm0
    1a76:	48 8b 45 c8          	mov    -0x38(%rbp),%rax
    1a7a:	c7 00 04 00 00 00    	movl   $0x4,(%rax)
    1a80:	48 8b 45 c8          	mov    -0x38(%rbp),%rax
    1a84:	48 89 58 08          	mov    %rbx,0x8(%rax)
    1a88:	48 8b 45 c8          	mov    -0x38(%rbp),%rax
    1a8c:	f2 0f 11 40 10       	movsd  %xmm0,0x10(%rax)
    1a91:	e9 eb 10 00 00       	jmp    2b81 <operate+0x164d>
    1a96:	e8 3e f8 ff ff       	call   12d9 <e_refc_init>
    1a9b:	48 89 c3             	mov    %rax,%rbx
    1a9e:	48 83 ec 08          	sub    $0x8,%rsp
    1aa2:	48 83 ec 18          	sub    $0x18,%rsp
    1aa6:	48 89 e1             	mov    %rsp,%rcx
    1aa9:	48 8b 45 10          	mov    0x10(%rbp),%rax
    1aad:	48 8b 55 18          	mov    0x18(%rbp),%rdx
    1ab1:	48 89 01             	mov    %rax,(%rcx)
    1ab4:	48 89 51 08          	mov    %rdx,0x8(%rcx)
    1ab8:	48 8b 45 20          	mov    0x20(%rbp),%rax
    1abc:	48 89 41 10          	mov    %rax,0x10(%rcx)
    1ac0:	e8 10 fa ff ff       	call   14d5 <to_int>
    1ac5:	48 83 c4 20          	add    $0x20,%rsp
    1ac9:	41 89 c4             	mov    %eax,%r12d
    1acc:	48 83 ec 08          	sub    $0x8,%rsp
    1ad0:	48 83 ec 18          	sub    $0x18,%rsp
    1ad4:	48 89 e1             	mov    %rsp,%rcx
    1ad7:	48 8b 45 28          	mov    0x28(%rbp),%rax
    1adb:	48 8b 55 30          	mov    0x30(%rbp),%rdx
    1adf:	48 89 01             	mov    %rax,(%rcx)
    1ae2:	48 89 51 08          	mov    %rdx,0x8(%rcx)
    1ae6:	48 8b 45 38          	mov    0x38(%rbp),%rax
    1aea:	48 89 41 10          	mov    %rax,0x10(%rcx)
    1aee:	e8 e2 f9 ff ff       	call   14d5 <to_int>
    1af3:	48 83 c4 20          	add    $0x20,%rsp
    1af7:	44 89 e2             	mov    %r12d,%edx
    1afa:	0f af d0             	imul   %eax,%edx
    1afd:	48 8b 45 c8          	mov    -0x38(%rbp),%rax
    1b01:	c7 00 01 00 00 00    	movl   $0x1,(%rax)
    1b07:	48 8b 45 c8          	mov    -0x38(%rbp),%rax
    1b0b:	48 89 58 08          	mov    %rbx,0x8(%rax)
    1b0f:	48 8b 45 c8          	mov    -0x38(%rbp),%rax
    1b13:	89 50 10             	mov    %edx,0x10(%rax)
    1b16:	e9 66 10 00 00       	jmp    2b81 <operate+0x164d>
    1b1b:	48 83 ec 08          	sub    $0x8,%rsp
    1b1f:	48 83 ec 18          	sub    $0x18,%rsp
    1b23:	48 89 e1             	mov    %rsp,%rcx
    1b26:	48 8b 45 10          	mov    0x10(%rbp),%rax
    1b2a:	48 8b 55 18          	mov    0x18(%rbp),%rdx
    1b2e:	48 89 01             	mov    %rax,(%rcx)
    1b31:	48 89 51 08          	mov    %rdx,0x8(%rcx)
    1b35:	48 8b 45 20          	mov    0x20(%rbp),%rax
    1b39:	48 89 41 10          	mov    %rax,0x10(%rcx)
    1b3d:	e8 e3 f9 ff ff       	call   1525 <is_float>
    1b42:	48 83 c4 20          	add    $0x20,%rsp
    1b46:	84 c0                	test   %al,%al
    1b48:	75 33                	jne    1b7d <operate+0x649>
    1b4a:	48 83 ec 08          	sub    $0x8,%rsp
    1b4e:	48 83 ec 18          	sub    $0x18,%rsp
    1b52:	48 89 e1             	mov    %rsp,%rcx
    1b55:	48 8b 45 28          	mov    0x28(%rbp),%rax
    1b59:	48 8b 55 30          	mov    0x30(%rbp),%rdx
    1b5d:	48 89 01             	mov    %rax,(%rcx)
    1b60:	48 89 51 08          	mov    %rdx,0x8(%rcx)
    1b64:	48 8b 45 38          	mov    0x38(%rbp),%rax
    1b68:	48 89 41 10          	mov    %rax,0x10(%rcx)
    1b6c:	e8 b4 f9 ff ff       	call   1525 <is_float>
    1b71:	48 83 c4 20          	add    $0x20,%rsp
    1b75:	84 c0                	test   %al,%al
    1b77:	0f 84 90 00 00 00    	je     1c0d <operate+0x6d9>
    1b7d:	e8 57 f7 ff ff       	call   12d9 <e_refc_init>
    1b82:	48 89 c3             	mov    %rax,%rbx
    1b85:	48 83 ec 08          	sub    $0x8,%rsp
    1b89:	48 83 ec 18          	sub    $0x18,%rsp
    1b8d:	48 89 e1             	mov    %rsp,%rcx
    1b90:	48 8b 45 10          	mov    0x10(%rbp),%rax
    1b94:	48 8b 55 18          	mov    0x18(%rbp),%rdx
    1b98:	48 89 01             	mov    %rax,(%rcx)
    1b9b:	48 89 51 08          	mov    %rdx,0x8(%rcx)
    1b9f:	48 8b 45 20          	mov    0x20(%rbp),%rax
    1ba3:	48 89 41 10          	mov    %rax,0x10(%rcx)
    1ba7:	e8 c6 f8 ff ff       	call   1472 <to_float>
    1bac:	48 83 c4 20          	add    $0x20,%rsp
    1bb0:	66 49 0f 7e c4       	movq   %xmm0,%r12
    1bb5:	48 83 ec 08          	sub    $0x8,%rsp
    1bb9:	48 83 ec 18          	sub    $0x18,%rsp
    1bbd:	48 89 e1             	mov    %rsp,%rcx
    1bc0:	48 8b 45 28          	mov    0x28(%rbp),%rax
    1bc4:	48 8b 55 30          	mov    0x30(%rbp),%rdx
    1bc8:	48 89 01             	mov    %rax,(%rcx)
    1bcb:	48 89 51 08          	mov    %rdx,0x8(%rcx)
    1bcf:	48 8b 45 38          	mov    0x38(%rbp),%rax
    1bd3:	48 89 41 10          	mov    %rax,0x10(%rcx)
    1bd7:	e8 96 f8 ff ff       	call   1472 <to_float>
    1bdc:	48 83 c4 20          	add    $0x20,%rsp
    1be0:	66 0f 28 c8          	movapd %xmm0,%xmm1
    1be4:	66 49 0f 6e c4       	movq   %r12,%xmm0
    1be9:	f2 0f 5e c1          	divsd  %xmm1,%xmm0
    1bed:	48 8b 45 c8          	mov    -0x38(%rbp),%rax
    1bf1:	c7 00 04 00 00 00    	movl   $0x4,(%rax)
    1bf7:	48 8b 45 c8          	mov    -0x38(%rbp),%rax
    1bfb:	48 89 58 08          	mov    %rbx,0x8(%rax)
    1bff:	48 8b 45 c8          	mov    -0x38(%rbp),%rax
    1c03:	f2 0f 11 40 10       	movsd  %xmm0,0x10(%rax)
    1c08:	e9 74 0f 00 00       	jmp    2b81 <operate+0x164d>
    1c0d:	e8 c7 f6 ff ff       	call   12d9 <e_refc_init>
    1c12:	48 89 c3             	mov    %rax,%rbx
    1c15:	48 83 ec 08          	sub    $0x8,%rsp
    1c19:	48 83 ec 18          	sub    $0x18,%rsp
    1c1d:	48 89 e1             	mov    %rsp,%rcx
    1c20:	48 8b 45 10          	mov    0x10(%rbp),%rax
    1c24:	48 8b 55 18          	mov    0x18(%rbp),%rdx
    1c28:	48 89 01             	mov    %rax,(%rcx)
    1c2b:	48 89 51 08          	mov    %rdx,0x8(%rcx)
    1c2f:	48 8b 45 20          	mov    0x20(%rbp),%rax
    1c33:	48 89 41 10          	mov    %rax,0x10(%rcx)
    1c37:	e8 99 f8 ff ff       	call   14d5 <to_int>
    1c3c:	48 83 c4 20          	add    $0x20,%rsp
    1c40:	41 89 c4             	mov    %eax,%r12d
    1c43:	48 83 ec 08          	sub    $0x8,%rsp
    1c47:	48 83 ec 18          	sub    $0x18,%rsp
    1c4b:	48 89 e1             	mov    %rsp,%rcx
    1c4e:	48 8b 45 28          	mov    0x28(%rbp),%rax
    1c52:	48 8b 55 30          	mov    0x30(%rbp),%rdx
    1c56:	48 89 01             	mov    %rax,(%rcx)
    1c59:	48 89 51 08          	mov    %rdx,0x8(%rcx)
    1c5d:	48 8b 45 38          	mov    0x38(%rbp),%rax
    1c61:	48 89 41 10          	mov    %rax,0x10(%rcx)
    1c65:	e8 6b f8 ff ff       	call   14d5 <to_int>
    1c6a:	48 83 c4 20          	add    $0x20,%rsp
    1c6e:	89 c6                	mov    %eax,%esi
    1c70:	44 89 e0             	mov    %r12d,%eax
    1c73:	99                   	cltd
    1c74:	f7 fe                	idiv   %esi
    1c76:	89 c2                	mov    %eax,%edx
    1c78:	48 8b 45 c8          	mov    -0x38(%rbp),%rax
    1c7c:	c7 00 01 00 00 00    	movl   $0x1,(%rax)
    1c82:	48 8b 45 c8          	mov    -0x38(%rbp),%rax
    1c86:	48 89 58 08          	mov    %rbx,0x8(%rax)
    1c8a:	48 8b 45 c8          	mov    -0x38(%rbp),%rax
    1c8e:	89 50 10             	mov    %edx,0x10(%rax)
    1c91:	e9 eb 0e 00 00       	jmp    2b81 <operate+0x164d>
    1c96:	e8 3e f6 ff ff       	call   12d9 <e_refc_init>
    1c9b:	48 89 c3             	mov    %rax,%rbx
    1c9e:	48 83 ec 08          	sub    $0x8,%rsp
    1ca2:	48 83 ec 18          	sub    $0x18,%rsp
    1ca6:	48 89 e1             	mov    %rsp,%rcx
    1ca9:	48 8b 45 10          	mov    0x10(%rbp),%rax
    1cad:	48 8b 55 18          	mov    0x18(%rbp),%rdx
    1cb1:	48 89 01             	mov    %rax,(%rcx)
    1cb4:	48 89 51 08          	mov    %rdx,0x8(%rcx)
    1cb8:	48 8b 45 20          	mov    0x20(%rbp),%rax
    1cbc:	48 89 41 10          	mov    %rax,0x10(%rcx)
    1cc0:	e8 10 f8 ff ff       	call   14d5 <to_int>
    1cc5:	48 83 c4 20          	add    $0x20,%rsp
    1cc9:	41 89 c4             	mov    %eax,%r12d
    1ccc:	48 83 ec 08          	sub    $0x8,%rsp
    1cd0:	48 83 ec 18          	sub    $0x18,%rsp
    1cd4:	48 89 e1             	mov    %rsp,%rcx
    1cd7:	48 8b 45 28          	mov    0x28(%rbp),%rax
    1cdb:	48 8b 55 30          	mov    0x30(%rbp),%rdx
    1cdf:	48 89 01             	mov    %rax,(%rcx)
    1ce2:	48 89 51 08          	mov    %rdx,0x8(%rcx)
    1ce6:	48 8b 45 38          	mov    0x38(%rbp),%rax
    1cea:	48 89 41 10          	mov    %rax,0x10(%rcx)
    1cee:	e8 e2 f7 ff ff       	call   14d5 <to_int>
    1cf3:	48 83 c4 20          	add    $0x20,%rsp
    1cf7:	89 c7                	mov    %eax,%edi
    1cf9:	44 89 e0             	mov    %r12d,%eax
    1cfc:	99                   	cltd
    1cfd:	f7 ff                	idiv   %edi
    1cff:	89 d1                	mov    %edx,%ecx
    1d01:	89 ca                	mov    %ecx,%edx
    1d03:	48 8b 45 c8          	mov    -0x38(%rbp),%rax
    1d07:	c7 00 01 00 00 00    	movl   $0x1,(%rax)
    1d0d:	48 8b 45 c8          	mov    -0x38(%rbp),%rax
    1d11:	48 89 58 08          	mov    %rbx,0x8(%rax)
    1d15:	48 8b 45 c8          	mov    -0x38(%rbp),%rax
    1d19:	89 50 10             	mov    %edx,0x10(%rax)
    1d1c:	e9 60 0e 00 00       	jmp    2b81 <operate+0x164d>
    1d21:	48 83 ec 08          	sub    $0x8,%rsp
    1d25:	48 83 ec 18          	sub    $0x18,%rsp
    1d29:	48 89 e1             	mov    %rsp,%rcx
    1d2c:	48 8b 45 10          	mov    0x10(%rbp),%rax
    1d30:	48 8b 55 18          	mov    0x18(%rbp),%rdx
    1d34:	48 89 01             	mov    %rax,(%rcx)
    1d37:	48 89 51 08          	mov    %rdx,0x8(%rcx)
    1d3b:	48 8b 45 20          	mov    0x20(%rbp),%rax
    1d3f:	48 89 41 10          	mov    %rax,0x10(%rcx)
    1d43:	e8 dd f7 ff ff       	call   1525 <is_float>
    1d48:	48 83 c4 20          	add    $0x20,%rsp
    1d4c:	84 c0                	test   %al,%al
    1d4e:	75 33                	jne    1d83 <operate+0x84f>
    1d50:	48 83 ec 08          	sub    $0x8,%rsp
    1d54:	48 83 ec 18          	sub    $0x18,%rsp
    1d58:	48 89 e1             	mov    %rsp,%rcx
    1d5b:	48 8b 45 28          	mov    0x28(%rbp),%rax
    1d5f:	48 8b 55 30          	mov    0x30(%rbp),%rdx
    1d63:	48 89 01             	mov    %rax,(%rcx)
    1d66:	48 89 51 08          	mov    %rdx,0x8(%rcx)
    1d6a:	48 8b 45 38          	mov    0x38(%rbp),%rax
    1d6e:	48 89 41 10          	mov    %rax,0x10(%rcx)
    1d72:	e8 ae f7 ff ff       	call   1525 <is_float>
    1d77:	48 83 c4 20          	add    $0x20,%rsp
    1d7b:	84 c0                	test   %al,%al
    1d7d:	0f 84 9e 00 00 00    	je     1e21 <operate+0x8ed>
    1d83:	e8 51 f5 ff ff       	call   12d9 <e_refc_init>
    1d88:	49 89 c4             	mov    %rax,%r12
    1d8b:	48 83 ec 08          	sub    $0x8,%rsp
    1d8f:	48 83 ec 18          	sub    $0x18,%rsp
    1d93:	48 89 e1             	mov    %rsp,%rcx
    1d96:	48 8b 45 10          	mov    0x10(%rbp),%rax
    1d9a:	48 8b 55 18          	mov    0x18(%rbp),%rdx
    1d9e:	48 89 01             	mov    %rax,(%rcx)
    1da1:	48 89 51 08          	mov    %rdx,0x8(%rcx)
    1da5:	48 8b 45 20          	mov    0x20(%rbp),%rax
    1da9:	48 89 41 10          	mov    %rax,0x10(%rcx)
    1dad:	e8 c0 f6 ff ff       	call   1472 <to_float>
    1db2:	48 83 c4 20          	add    $0x20,%rsp
    1db6:	66 48 0f 7e c3       	movq   %xmm0,%rbx
    1dbb:	48 83 ec 08          	sub    $0x8,%rsp
    1dbf:	48 83 ec 18          	sub    $0x18,%rsp
    1dc3:	48 89 e1             	mov    %rsp,%rcx
    1dc6:	48 8b 45 28          	mov    0x28(%rbp),%rax
    1dca:	48 8b 55 30          	mov    0x30(%rbp),%rdx
    1dce:	48 89 01             	mov    %rax,(%rcx)
    1dd1:	48 89 51 08          	mov    %rdx,0x8(%rcx)
    1dd5:	48 8b 45 38          	mov    0x38(%rbp),%rax
    1dd9:	48 89 41 10          	mov    %rax,0x10(%rcx)
    1ddd:	e8 90 f6 ff ff       	call   1472 <to_float>
    1de2:	48 83 c4 20          	add    $0x20,%rsp
    1de6:	66 48 0f 6e e3       	movq   %rbx,%xmm4
    1deb:	66 0f 2e e0          	ucomisd %xmm0,%xmm4
    1def:	0f 9b c0             	setnp  %al
    1df2:	ba 00 00 00 00       	mov    $0x0,%edx
    1df7:	66 48 0f 6e eb       	movq   %rbx,%xmm5
    1dfc:	66 0f 2e e8          	ucomisd %xmm0,%xmm5
    1e00:	0f 44 d0             	cmove  %eax,%edx
    1e03:	48 8b 45 c8          	mov    -0x38(%rbp),%rax
    1e07:	c7 00 02 00 00 00    	movl   $0x2,(%rax)
    1e0d:	48 8b 45 c8          	mov    -0x38(%rbp),%rax
    1e11:	4c 89 60 08          	mov    %r12,0x8(%rax)
    1e15:	48 8b 45 c8          	mov    -0x38(%rbp),%rax
    1e19:	88 50 10             	mov    %dl,0x10(%rax)
    1e1c:	e9 60 0d 00 00       	jmp    2b81 <operate+0x164d>
    1e21:	e8 b3 f4 ff ff       	call   12d9 <e_refc_init>
    1e26:	48 89 c3             	mov    %rax,%rbx
    1e29:	48 83 ec 08          	sub    $0x8,%rsp
    1e2d:	48 83 ec 18          	sub    $0x18,%rsp
    1e31:	48 89 e1             	mov    %rsp,%rcx
    1e34:	48 8b 45 10          	mov    0x10(%rbp),%rax
    1e38:	48 8b 55 18          	mov    0x18(%rbp),%rdx
    1e3c:	48 89 01             	mov    %rax,(%rcx)
    1e3f:	48 89 51 08          	mov    %rdx,0x8(%rcx)
    1e43:	48 8b 45 20          	mov    0x20(%rbp),%rax
    1e47:	48 89 41 10          	mov    %rax,0x10(%rcx)
    1e4b:	e8 85 f6 ff ff       	call   14d5 <to_int>
    1e50:	48 83 c4 20          	add    $0x20,%rsp
    1e54:	41 89 c4             	mov    %eax,%r12d
    1e57:	48 83 ec 08          	sub    $0x8,%rsp
    1e5b:	48 83 ec 18          	sub    $0x18,%rsp
    1e5f:	48 89 e1             	mov    %rsp,%rcx
    1e62:	48 8b 45 28          	mov    0x28(%rbp),%rax
    1e66:	48 8b 55 30          	mov    0x30(%rbp),%rdx
    1e6a:	48 89 01             	mov    %rax,(%rcx)
    1e6d:	48 89 51 08          	mov    %rdx,0x8(%rcx)
    1e71:	48 8b 45 38          	mov    0x38(%rbp),%rax
    1e75:	48 89 41 10          	mov    %rax,0x10(%rcx)
    1e79:	e8 57 f6 ff ff       	call   14d5 <to_int>
    1e7e:	48 83 c4 20          	add    $0x20,%rsp
    1e82:	41 39 c4             	cmp    %eax,%r12d
    1e85:	0f 94 c2             	sete   %dl
    1e88:	48 8b 45 c8          	mov    -0x38(%rbp),%rax
    1e8c:	c7 00 02 00 00 00    	movl   $0x2,(%rax)
    1e92:	48 8b 45 c8          	mov    -0x38(%rbp),%rax
    1e96:	48 89 58 08          	mov    %rbx,0x8(%rax)
    1e9a:	48 8b 45 c8          	mov    -0x38(%rbp),%rax
    1e9e:	88 50 10             	mov    %dl,0x10(%rax)
    1ea1:	e9 db 0c 00 00       	jmp    2b81 <operate+0x164d>
    1ea6:	48 83 ec 08          	sub    $0x8,%rsp
    1eaa:	48 83 ec 18          	sub    $0x18,%rsp
    1eae:	48 89 e1             	mov    %rsp,%rcx
    1eb1:	48 8b 45 10          	mov    0x10(%rbp),%rax
    1eb5:	48 8b 55 18          	mov    0x18(%rbp),%rdx
    1eb9:	48 89 01             	mov    %rax,(%rcx)
    1ebc:	48 89 51 08          	mov    %rdx,0x8(%rcx)
    1ec0:	48 8b 45 20          	mov    0x20(%rbp),%rax
    1ec4:	48 89 41 10          	mov    %rax,0x10(%rcx)
    1ec8:	e8 58 f6 ff ff       	call   1525 <is_float>
    1ecd:	48 83 c4 20          	add    $0x20,%rsp
    1ed1:	84 c0                	test   %al,%al
    1ed3:	75 33                	jne    1f08 <operate+0x9d4>
    1ed5:	48 83 ec 08          	sub    $0x8,%rsp
    1ed9:	48 83 ec 18          	sub    $0x18,%rsp
    1edd:	48 89 e1             	mov    %rsp,%rcx
    1ee0:	48 8b 45 28          	mov    0x28(%rbp),%rax
    1ee4:	48 8b 55 30          	mov    0x30(%rbp),%rdx
    1ee8:	48 89 01             	mov    %rax,(%rcx)
    1eeb:	48 89 51 08          	mov    %rdx,0x8(%rcx)
    1eef:	48 8b 45 38          	mov    0x38(%rbp),%rax
    1ef3:	48 89 41 10          	mov    %rax,0x10(%rcx)
    1ef7:	e8 29 f6 ff ff       	call   1525 <is_float>
    1efc:	48 83 c4 20          	add    $0x20,%rsp
    1f00:	84 c0                	test   %al,%al
    1f02:	0f 84 9e 00 00 00    	je     1fa6 <operate+0xa72>
    1f08:	e8 cc f3 ff ff       	call   12d9 <e_refc_init>
    1f0d:	49 89 c4             	mov    %rax,%r12
    1f10:	48 83 ec 08          	sub    $0x8,%rsp
    1f14:	48 83 ec 18          	sub    $0x18,%rsp
    1f18:	48 89 e1             	mov    %rsp,%rcx
    1f1b:	48 8b 45 10          	mov    0x10(%rbp),%rax
    1f1f:	48 8b 55 18          	mov    0x18(%rbp),%rdx
    1f23:	48 89 01             	mov    %rax,(%rcx)
    1f26:	48 89 51 08          	mov    %rdx,0x8(%rcx)
    1f2a:	48 8b 45 20          	mov    0x20(%rbp),%rax
    1f2e:	48 89 41 10          	mov    %rax,0x10(%rcx)
    1f32:	e8 3b f5 ff ff       	call   1472 <to_float>
    1f37:	48 83 c4 20          	add    $0x20,%rsp
    1f3b:	66 48 0f 7e c3       	movq   %xmm0,%rbx
    1f40:	48 83 ec 08          	sub    $0x8,%rsp
    1f44:	48 83 ec 18          	sub    $0x18,%rsp
    1f48:	48 89 e1             	mov    %rsp,%rcx
    1f4b:	48 8b 45 28          	mov    0x28(%rbp),%rax
    1f4f:	48 8b 55 30          	mov    0x30(%rbp),%rdx
    1f53:	48 89 01             	mov    %rax,(%rcx)
    1f56:	48 89 51 08          	mov    %rdx,0x8(%rcx)
    1f5a:	48 8b 45 38          	mov    0x38(%rbp),%rax
    1f5e:	48 89 41 10          	mov    %rax,0x10(%rcx)
    1f62:	e8 0b f5 ff ff       	call   1472 <to_float>
    1f67:	48 83 c4 20          	add    $0x20,%rsp
    1f6b:	66 48 0f 6e f3       	movq   %rbx,%xmm6
    1f70:	66 0f 2e f0          	ucomisd %xmm0,%xmm6
    1f74:	0f 9a c0             	setp   %al
    1f77:	ba 01 00 00 00       	mov    $0x1,%edx
    1f7c:	66 48 0f 6e fb       	movq   %rbx,%xmm7
    1f81:	66 0f 2e f8          	ucomisd %xmm0,%xmm7
    1f85:	0f 44 d0             	cmove  %eax,%edx
    1f88:	48 8b 45 c8          	mov    -0x38(%rbp),%rax
    1f8c:	c7 00 02 00 00 00    	movl   $0x2,(%rax)
    1f92:	48 8b 45 c8          	mov    -0x38(%rbp),%rax
    1f96:	4c 89 60 08          	mov    %r12,0x8(%rax)
    1f9a:	48 8b 45 c8          	mov    -0x38(%rbp),%rax
    1f9e:	88 50 10             	mov    %dl,0x10(%rax)
    1fa1:	e9 db 0b 00 00       	jmp    2b81 <operate+0x164d>
    1fa6:	e8 2e f3 ff ff       	call   12d9 <e_refc_init>
    1fab:	48 89 c3             	mov    %rax,%rbx
    1fae:	48 83 ec 08          	sub    $0x8,%rsp
    1fb2:	48 83 ec 18          	sub    $0x18,%rsp
    1fb6:	48 89 e1             	mov    %rsp,%rcx
    1fb9:	48 8b 45 10          	mov    0x10(%rbp),%rax
    1fbd:	48 8b 55 18          	mov    0x18(%rbp),%rdx
    1fc1:	48 89 01             	mov    %rax,(%rcx)
    1fc4:	48 89 51 08          	mov    %rdx,0x8(%rcx)
    1fc8:	48 8b 45 20          	mov    0x20(%rbp),%rax
    1fcc:	48 89 41 10          	mov    %rax,0x10(%rcx)
    1fd0:	e8 00 f5 ff ff       	call   14d5 <to_int>
    1fd5:	48 83 c4 20          	add    $0x20,%rsp
    1fd9:	41 89 c4             	mov    %eax,%r12d
    1fdc:	48 83 ec 08          	sub    $0x8,%rsp
    1fe0:	48 83 ec 18          	sub    $0x18,%rsp
    1fe4:	48 89 e1             	mov    %rsp,%rcx
    1fe7:	48 8b 45 28          	mov    0x28(%rbp),%rax
    1feb:	48 8b 55 30          	mov    0x30(%rbp),%rdx
    1fef:	48 89 01             	mov    %rax,(%rcx)
    1ff2:	48 89 51 08          	mov    %rdx,0x8(%rcx)
    1ff6:	48 8b 45 38          	mov    0x38(%rbp),%rax
    1ffa:	48 89 41 10          	mov    %rax,0x10(%rcx)
    1ffe:	e8 d2 f4 ff ff       	call   14d5 <to_int>
    2003:	48 83 c4 20          	add    $0x20,%rsp
    2007:	41 39 c4             	cmp    %eax,%r12d
    200a:	0f 95 c2             	setne  %dl
    200d:	48 8b 45 c8          	mov    -0x38(%rbp),%rax
    2011:	c7 00 02 00 00 00    	movl   $0x2,(%rax)
    2017:	48 8b 45 c8          	mov    -0x38(%rbp),%rax
    201b:	48 89 58 08          	mov    %rbx,0x8(%rax)
    201f:	48 8b 45 c8          	mov    -0x38(%rbp),%rax
    2023:	88 50 10             	mov    %dl,0x10(%rax)
    2026:	e9 56 0b 00 00       	jmp    2b81 <operate+0x164d>
    202b:	48 83 ec 08          	sub    $0x8,%rsp
    202f:	48 83 ec 18          	sub    $0x18,%rsp
    2033:	48 89 e1             	mov    %rsp,%rcx
    2036:	48 8b 45 10          	mov    0x10(%rbp),%rax
    203a:	48 8b 55 18          	mov    0x18(%rbp),%rdx
    203e:	48 89 01             	mov    %rax,(%rcx)
    2041:	48 89 51 08          	mov    %rdx,0x8(%rcx)
    2045:	48 8b 45 20          	mov    0x20(%rbp),%rax
    2049:	48 89 41 10          	mov    %rax,0x10(%rcx)
    204d:	e8 d3 f4 ff ff       	call   1525 <is_float>
    2052:	48 83 c4 20          	add    $0x20,%rsp
    2056:	84 c0                	test   %al,%al
    2058:	75 33                	jne    208d <operate+0xb59>
    205a:	48 83 ec 08          	sub    $0x8,%rsp
    205e:	48 83 ec 18          	sub    $0x18,%rsp
    2062:	48 89 e1             	mov    %rsp,%rcx
    2065:	48 8b 45 28          	mov    0x28(%rbp),%rax
    2069:	48 8b 55 30          	mov    0x30(%rbp),%rdx
    206d:	48 89 01             	mov    %rax,(%rcx)
    2070:	48 89 51 08          	mov    %rdx,0x8(%rcx)
    2074:	48 8b 45 38          	mov    0x38(%rbp),%rax
    2078:	48 89 41 10          	mov    %rax,0x10(%rcx)
    207c:	e8 a4 f4 ff ff       	call   1525 <is_float>
    2081:	48 83 c4 20          	add    $0x20,%rsp
    2085:	84 c0                	test   %al,%al
    2087:	0f 84 93 00 00 00    	je     2120 <operate+0xbec>
    208d:	e8 47 f2 ff ff       	call   12d9 <e_refc_init>
    2092:	48 89 c3             	mov    %rax,%rbx
    2095:	48 83 ec 08          	sub    $0x8,%rsp
    2099:	48 83 ec 18          	sub    $0x18,%rsp
    209d:	48 89 e1             	mov    %rsp,%rcx
    20a0:	48 8b 45 10          	mov    0x10(%rbp),%rax
    20a4:	48 8b 55 18          	mov    0x18(%rbp),%rdx
    20a8:	48 89 01             	mov    %rax,(%rcx)
    20ab:	48 89 51 08          	mov    %rdx,0x8(%rcx)
    20af:	48 8b 45 20          	mov    0x20(%rbp),%rax
    20b3:	48 89 41 10          	mov    %rax,0x10(%rcx)
    20b7:	e8 b6 f3 ff ff       	call   1472 <to_float>
    20bc:	48 83 c4 20          	add    $0x20,%rsp
    20c0:	f2 0f 11 45 b8       	movsd  %xmm0,-0x48(%rbp)
    20c5:	48 83 ec 08          	sub    $0x8,%rsp
    20c9:	48 83 ec 18          	sub    $0x18,%rsp
    20cd:	48 89 e1             	mov    %rsp,%rcx
    20d0:	48 8b 45 28          	mov    0x28(%rbp),%rax
    20d4:	48 8b 55 30          	mov    0x30(%rbp),%rdx
    20d8:	48 89 01             	mov    %rax,(%rcx)
    20db:	48 89 51 08          	mov    %rdx,0x8(%rcx)
    20df:	48 8b 45 38          	mov    0x38(%rbp),%rax
    20e3:	48 89 41 10          	mov    %rax,0x10(%rcx)
    20e7:	e8 86 f3 ff ff       	call   1472 <to_float>
    20ec:	48 83 c4 20          	add    $0x20,%rsp
    20f0:	66 48 0f 7e c0       	movq   %xmm0,%rax
    20f5:	66 48 0f 6e d0       	movq   %rax,%xmm2
    20fa:	66 0f 2f 55 b8       	comisd -0x48(%rbp),%xmm2
    20ff:	0f 97 c2             	seta   %dl
    2102:	48 8b 45 c8          	mov    -0x38(%rbp),%rax
    2106:	c7 00 02 00 00 00    	movl   $0x2,(%rax)
    210c:	48 8b 45 c8          	mov    -0x38(%rbp),%rax
    2110:	48 89 58 08          	mov    %rbx,0x8(%rax)
    2114:	48 8b 45 c8          	mov    -0x38(%rbp),%rax
    2118:	88 50 10             	mov    %dl,0x10(%rax)
    211b:	e9 61 0a 00 00       	jmp    2b81 <operate+0x164d>
    2120:	e8 b4 f1 ff ff       	call   12d9 <e_refc_init>
    2125:	48 89 c3             	mov    %rax,%rbx
    2128:	48 83 ec 08          	sub    $0x8,%rsp
    212c:	48 83 ec 18          	sub    $0x18,%rsp
    2130:	48 89 e1             	mov    %rsp,%rcx
    2133:	48 8b 45 10          	mov    0x10(%rbp),%rax
    2137:	48 8b 55 18          	mov    0x18(%rbp),%rdx
    213b:	48 89 01             	mov    %rax,(%rcx)
    213e:	48 89 51 08          	mov    %rdx,0x8(%rcx)
    2142:	48 8b 45 20          	mov    0x20(%rbp),%rax
    2146:	48 89 41 10          	mov    %rax,0x10(%rcx)
    214a:	e8 86 f3 ff ff       	call   14d5 <to_int>
    214f:	48 83 c4 20          	add    $0x20,%rsp
    2153:	41 89 c4             	mov    %eax,%r12d
    2156:	48 83 ec 08          	sub    $0x8,%rsp
    215a:	48 83 ec 18          	sub    $0x18,%rsp
    215e:	48 89 e1             	mov    %rsp,%rcx
    2161:	48 8b 45 28          	mov    0x28(%rbp),%rax
    2165:	48 8b 55 30          	mov    0x30(%rbp),%rdx
    2169:	48 89 01             	mov    %rax,(%rcx)
    216c:	48 89 51 08          	mov    %rdx,0x8(%rcx)
    2170:	48 8b 45 38          	mov    0x38(%rbp),%rax
    2174:	48 89 41 10          	mov    %rax,0x10(%rcx)
    2178:	e8 58 f3 ff ff       	call   14d5 <to_int>
    217d:	48 83 c4 20          	add    $0x20,%rsp
    2181:	41 39 c4             	cmp    %eax,%r12d
    2184:	0f 9c c2             	setl   %dl
    2187:	48 8b 45 c8          	mov    -0x38(%rbp),%rax
    218b:	c7 00 02 00 00 00    	movl   $0x2,(%rax)
    2191:	48 8b 45 c8          	mov    -0x38(%rbp),%rax
    2195:	48 89 58 08          	mov    %rbx,0x8(%rax)
    2199:	48 8b 45 c8          	mov    -0x38(%rbp),%rax
    219d:	88 50 10             	mov    %dl,0x10(%rax)
    21a0:	e9 dc 09 00 00       	jmp    2b81 <operate+0x164d>
    21a5:	48 83 ec 08          	sub    $0x8,%rsp
    21a9:	48 83 ec 18          	sub    $0x18,%rsp
    21ad:	48 89 e1             	mov    %rsp,%rcx
    21b0:	48 8b 45 10          	mov    0x10(%rbp),%rax
    21b4:	48 8b 55 18          	mov    0x18(%rbp),%rdx
    21b8:	48 89 01             	mov    %rax,(%rcx)
    21bb:	48 89 51 08          	mov    %rdx,0x8(%rcx)
    21bf:	48 8b 45 20          	mov    0x20(%rbp),%rax
    21c3:	48 89 41 10          	mov    %rax,0x10(%rcx)
    21c7:	e8 59 f3 ff ff       	call   1525 <is_float>
    21cc:	48 83 c4 20          	add    $0x20,%rsp
    21d0:	84 c0                	test   %al,%al
    21d2:	75 33                	jne    2207 <operate+0xcd3>
    21d4:	48 83 ec 08          	sub    $0x8,%rsp
    21d8:	48 83 ec 18          	sub    $0x18,%rsp
    21dc:	48 89 e1             	mov    %rsp,%rcx
    21df:	48 8b 45 28          	mov    0x28(%rbp),%rax
    21e3:	48 8b 55 30          	mov    0x30(%rbp),%rdx
    21e7:	48 89 01             	mov    %rax,(%rcx)
    21ea:	48 89 51 08          	mov    %rdx,0x8(%rcx)
    21ee:	48 8b 45 38          	mov    0x38(%rbp),%rax
    21f2:	48 89 41 10          	mov    %rax,0x10(%rcx)
    21f6:	e8 2a f3 ff ff       	call   1525 <is_float>
    21fb:	48 83 c4 20          	add    $0x20,%rsp
    21ff:	84 c0                	test   %al,%al
    2201:	0f 84 93 00 00 00    	je     229a <operate+0xd66>
    2207:	e8 cd f0 ff ff       	call   12d9 <e_refc_init>
    220c:	48 89 c3             	mov    %rax,%rbx
    220f:	48 83 ec 08          	sub    $0x8,%rsp
    2213:	48 83 ec 18          	sub    $0x18,%rsp
    2217:	48 89 e1             	mov    %rsp,%rcx
    221a:	48 8b 45 10          	mov    0x10(%rbp),%rax
    221e:	48 8b 55 18          	mov    0x18(%rbp),%rdx
    2222:	48 89 01             	mov    %rax,(%rcx)
    2225:	48 89 51 08          	mov    %rdx,0x8(%rcx)
    2229:	48 8b 45 20          	mov    0x20(%rbp),%rax
    222d:	48 89 41 10          	mov    %rax,0x10(%rcx)
    2231:	e8 3c f2 ff ff       	call   1472 <to_float>
    2236:	48 83 c4 20          	add    $0x20,%rsp
    223a:	f2 0f 11 45 b8       	movsd  %xmm0,-0x48(%rbp)
    223f:	48 83 ec 08          	sub    $0x8,%rsp
    2243:	48 83 ec 18          	sub    $0x18,%rsp
    2247:	48 89 e1             	mov    %rsp,%rcx
    224a:	48 8b 45 28          	mov    0x28(%rbp),%rax
    224e:	48 8b 55 30          	mov    0x30(%rbp),%rdx
    2252:	48 89 01             	mov    %rax,(%rcx)
    2255:	48 89 51 08          	mov    %rdx,0x8(%rcx)
    2259:	48 8b 45 38          	mov    0x38(%rbp),%rax
    225d:	48 89 41 10          	mov    %rax,0x10(%rcx)
    2261:	e8 0c f2 ff ff       	call   1472 <to_float>
    2266:	48 83 c4 20          	add    $0x20,%rsp
    226a:	66 48 0f 7e c0       	movq   %xmm0,%rax
    226f:	66 48 0f 6e e0       	movq   %rax,%xmm4
    2274:	66 0f 2f 65 b8       	comisd -0x48(%rbp),%xmm4
    2279:	0f 93 c2             	setae  %dl
    227c:	48 8b 45 c8          	mov    -0x38(%rbp),%rax
    2280:	c7 00 02 00 00 00    	movl   $0x2,(%rax)
    2286:	48 8b 45 c8          	mov    -0x38(%rbp),%rax
    228a:	48 89 58 08          	mov    %rbx,0x8(%rax)
    228e:	48 8b 45 c8          	mov    -0x38(%rbp),%rax
    2292:	88 50 10             	mov    %dl,0x10(%rax)
    2295:	e9 e7 08 00 00       	jmp    2b81 <operate+0x164d>
    229a:	e8 3a f0 ff ff       	call   12d9 <e_refc_init>
    229f:	48 89 c3             	mov    %rax,%rbx
    22a2:	48 83 ec 08          	sub    $0x8,%rsp
    22a6:	48 83 ec 18          	sub    $0x18,%rsp
    22aa:	48 89 e1             	mov    %rsp,%rcx
    22ad:	48 8b 45 10          	mov    0x10(%rbp),%rax
    22b1:	48 8b 55 18          	mov    0x18(%rbp),%rdx
    22b5:	48 89 01             	mov    %rax,(%rcx)
    22b8:	48 89 51 08          	mov    %rdx,0x8(%rcx)
    22bc:	48 8b 45 20          	mov    0x20(%rbp),%rax
    22c0:	48 89 41 10          	mov    %rax,0x10(%rcx)
    22c4:	e8 0c f2 ff ff       	call   14d5 <to_int>
    22c9:	48 83 c4 20          	add    $0x20,%rsp
    22cd:	41 89 c4             	mov    %eax,%r12d
    22d0:	48 83 ec 08          	sub    $0x8,%rsp
    22d4:	48 83 ec 18          	sub    $0x18,%rsp
    22d8:	48 89 e1             	mov    %rsp,%rcx
    22db:	48 8b 45 28          	mov    0x28(%rbp),%rax
    22df:	48 8b 55 30          	mov    0x30(%rbp),%rdx
    22e3:	48 89 01             	mov    %rax,(%rcx)
    22e6:	48 89 51 08          	mov    %rdx,0x8(%rcx)
    22ea:	48 8b 45 38          	mov    0x38(%rbp),%rax
    22ee:	48 89 41 10          	mov    %rax,0x10(%rcx)
    22f2:	e8 de f1 ff ff       	call   14d5 <to_int>
    22f7:	48 83 c4 20          	add    $0x20,%rsp
    22fb:	41 39 c4             	cmp    %eax,%r12d
    22fe:	0f 9e c2             	setle  %dl
    2301:	48 8b 45 c8          	mov    -0x38(%rbp),%rax
    2305:	c7 00 02 00 00 00    	movl   $0x2,(%rax)
    230b:	48 8b 45 c8          	mov    -0x38(%rbp),%rax
    230f:	48 89 58 08          	mov    %rbx,0x8(%rax)
    2313:	48 8b 45 c8          	mov    -0x38(%rbp),%rax
    2317:	88 50 10             	mov    %dl,0x10(%rax)
    231a:	e9 62 08 00 00       	jmp    2b81 <operate+0x164d>
    231f:	48 83 ec 08          	sub    $0x8,%rsp
    2323:	48 83 ec 18          	sub    $0x18,%rsp
    2327:	48 89 e1             	mov    %rsp,%rcx
    232a:	48 8b 45 10          	mov    0x10(%rbp),%rax
    232e:	48 8b 55 18          	mov    0x18(%rbp),%rdx
    2332:	48 89 01             	mov    %rax,(%rcx)
    2335:	48 89 51 08          	mov    %rdx,0x8(%rcx)
    2339:	48 8b 45 20          	mov    0x20(%rbp),%rax
    233d:	48 89 41 10          	mov    %rax,0x10(%rcx)
    2341:	e8 df f1 ff ff       	call   1525 <is_float>
    2346:	48 83 c4 20          	add    $0x20,%rsp
    234a:	84 c0                	test   %al,%al
    234c:	75 33                	jne    2381 <operate+0xe4d>
    234e:	48 83 ec 08          	sub    $0x8,%rsp
    2352:	48 83 ec 18          	sub    $0x18,%rsp
    2356:	48 89 e1             	mov    %rsp,%rcx
    2359:	48 8b 45 28          	mov    0x28(%rbp),%rax
    235d:	48 8b 55 30          	mov    0x30(%rbp),%rdx
    2361:	48 89 01             	mov    %rax,(%rcx)
    2364:	48 89 51 08          	mov    %rdx,0x8(%rcx)
    2368:	48 8b 45 38          	mov    0x38(%rbp),%rax
    236c:	48 89 41 10          	mov    %rax,0x10(%rcx)
    2370:	e8 b0 f1 ff ff       	call   1525 <is_float>
    2375:	48 83 c4 20          	add    $0x20,%rsp
    2379:	84 c0                	test   %al,%al
    237b:	0f 84 8d 00 00 00    	je     240e <operate+0xeda>
    2381:	e8 53 ef ff ff       	call   12d9 <e_refc_init>
    2386:	48 89 c3             	mov    %rax,%rbx
    2389:	48 83 ec 08          	sub    $0x8,%rsp
    238d:	48 83 ec 18          	sub    $0x18,%rsp
    2391:	48 89 e1             	mov    %rsp,%rcx
    2394:	48 8b 45 10          	mov    0x10(%rbp),%rax
    2398:	48 8b 55 18          	mov    0x18(%rbp),%rdx
    239c:	48 89 01             	mov    %rax,(%rcx)
    239f:	48 89 51 08          	mov    %rdx,0x8(%rcx)
    23a3:	48 8b 45 20          	mov    0x20(%rbp),%rax
    23a7:	48 89 41 10          	mov    %rax,0x10(%rcx)
    23ab:	e8 c2 f0 ff ff       	call   1472 <to_float>
    23b0:	48 83 c4 20          	add    $0x20,%rsp
    23b4:	66 49 0f 7e c4       	movq   %xmm0,%r12
    23b9:	48 83 ec 08          	sub    $0x8,%rsp
    23bd:	48 83 ec 18          	sub    $0x18,%rsp
    23c1:	48 89 e1             	mov    %rsp,%rcx
    23c4:	48 8b 45 28          	mov    0x28(%rbp),%rax
    23c8:	48 8b 55 30          	mov    0x30(%rbp),%rdx
    23cc:	48 89 01             	mov    %rax,(%rcx)
    23cf:	48 89 51 08          	mov    %rdx,0x8(%rcx)
    23d3:	48 8b 45 38          	mov    0x38(%rbp),%rax
    23d7:	48 89 41 10          	mov    %rax,0x10(%rcx)
    23db:	e8 92 f0 ff ff       	call   1472 <to_float>
    23e0:	48 83 c4 20          	add    $0x20,%rsp
    23e4:	66 49 0f 6e f4       	movq   %r12,%xmm6
    23e9:	66 0f 2f f0          	comisd %xmm0,%xmm6
    23ed:	0f 97 c2             	seta   %dl
    23f0:	48 8b 45 c8          	mov    -0x38(%rbp),%rax
    23f4:	c7 00 02 00 00 00    	movl   $0x2,(%rax)
    23fa:	48 8b 45 c8          	mov    -0x38(%rbp),%rax
    23fe:	48 89 58 08          	mov    %rbx,0x8(%rax)
    2402:	48 8b 45 c8          	mov    -0x38(%rbp),%rax
    2406:	88 50 10             	mov    %dl,0x10(%rax)
    2409:	e9 73 07 00 00       	jmp    2b81 <operate+0x164d>
    240e:	e8 c6 ee ff ff       	call   12d9 <e_refc_init>
    2413:	48 89 c3             	mov    %rax,%rbx
    2416:	48 83 ec 08          	sub    $0x8,%rsp
    241a:	48 83 ec 18          	sub    $0x18,%rsp
    241e:	48 89 e1             	mov    %rsp,%rcx
    2421:	48 8b 45 10          	mov    0x10(%rbp),%rax
    2425:	48 8b 55 18          	mov    0x18(%rbp),%rdx
    2429:	48 89 01             	mov    %rax,(%rcx)
    242c:	48 89 51 08          	mov    %rdx,0x8(%rcx)
    2430:	48 8b 45 20          	mov    0x20(%rbp),%rax
    2434:	48 89 41 10          	mov    %rax,0x10(%rcx)
    2438:	e8 98 f0 ff ff       	call   14d5 <to_int>
    243d:	48 83 c4 20          	add    $0x20,%rsp
    2441:	41 89 c4             	mov    %eax,%r12d
    2444:	48 83 ec 08          	sub    $0x8,%rsp
    2448:	48 83 ec 18          	sub    $0x18,%rsp
    244c:	48 89 e1             	mov    %rsp,%rcx
    244f:	48 8b 45 28          	mov    0x28(%rbp),%rax
    2453:	48 8b 55 30          	mov    0x30(%rbp),%rdx
    2457:	48 89 01             	mov    %rax,(%rcx)
    245a:	48 89 51 08          	mov    %rdx,0x8(%rcx)
    245e:	48 8b 45 38          	mov    0x38(%rbp),%rax
    2462:	48 89 41 10          	mov    %rax,0x10(%rcx)
    2466:	e8 6a f0 ff ff       	call   14d5 <to_int>
    246b:	48 83 c4 20          	add    $0x20,%rsp
    246f:	41 39 c4             	cmp    %eax,%r12d
    2472:	0f 9f c2             	setg   %dl
    2475:	48 8b 45 c8          	mov    -0x38(%rbp),%rax
    2479:	c7 00 02 00 00 00    	movl   $0x2,(%rax)
    247f:	48 8b 45 c8          	mov    -0x38(%rbp),%rax
    2483:	48 89 58 08          	mov    %rbx,0x8(%rax)
    2487:	48 8b 45 c8          	mov    -0x38(%rbp),%rax
    248b:	88 50 10             	mov    %dl,0x10(%rax)
    248e:	e9 ee 06 00 00       	jmp    2b81 <operate+0x164d>
    2493:	48 83 ec 08          	sub    $0x8,%rsp
    2497:	48 83 ec 18          	sub    $0x18,%rsp
    249b:	48 89 e1             	mov    %rsp,%rcx
    249e:	48 8b 45 10          	mov    0x10(%rbp),%rax
    24a2:	48 8b 55 18          	mov    0x18(%rbp),%rdx
    24a6:	48 89 01             	mov    %rax,(%rcx)
    24a9:	48 89 51 08          	mov    %rdx,0x8(%rcx)
    24ad:	48 8b 45 20          	mov    0x20(%rbp),%rax
    24b1:	48 89 41 10          	mov    %rax,0x10(%rcx)
    24b5:	e8 6b f0 ff ff       	call   1525 <is_float>
    24ba:	48 83 c4 20          	add    $0x20,%rsp
    24be:	84 c0                	test   %al,%al
    24c0:	75 33                	jne    24f5 <operate+0xfc1>
    24c2:	48 83 ec 08          	sub    $0x8,%rsp
    24c6:	48 83 ec 18          	sub    $0x18,%rsp
    24ca:	48 89 e1             	mov    %rsp,%rcx
    24cd:	48 8b 45 28          	mov    0x28(%rbp),%rax
    24d1:	48 8b 55 30          	mov    0x30(%rbp),%rdx
    24d5:	48 89 01             	mov    %rax,(%rcx)
    24d8:	48 89 51 08          	mov    %rdx,0x8(%rcx)
    24dc:	48 8b 45 38          	mov    0x38(%rbp),%rax
    24e0:	48 89 41 10          	mov    %rax,0x10(%rcx)
    24e4:	e8 3c f0 ff ff       	call   1525 <is_float>
    24e9:	48 83 c4 20          	add    $0x20,%rsp
    24ed:	84 c0                	test   %al,%al
    24ef:	0f 84 8d 00 00 00    	je     2582 <operate+0x104e>
    24f5:	e8 df ed ff ff       	call   12d9 <e_refc_init>
    24fa:	48 89 c3             	mov    %rax,%rbx
    24fd:	48 83 ec 08          	sub    $0x8,%rsp
    2501:	48 83 ec 18          	sub    $0x18,%rsp
    2505:	48 89 e1             	mov    %rsp,%rcx
    2508:	48 8b 45 10          	mov    0x10(%rbp),%rax
    250c:	48 8b 55 18          	mov    0x18(%rbp),%rdx
    2510:	48 89 01             	mov    %rax,(%rcx)
    2513:	48 89 51 08          	mov    %rdx,0x8(%rcx)
    2517:	48 8b 45 20          	mov    0x20(%rbp),%rax
    251b:	48 89 41 10          	mov    %rax,0x10(%rcx)
    251f:	e8 4e ef ff ff       	call   1472 <to_float>
    2524:	48 83 c4 20          	add    $0x20,%rsp
    2528:	66 49 0f 7e c4       	movq   %xmm0,%r12
    252d:	48 83 ec 08          	sub    $0x8,%rsp
    2531:	48 83 ec 18          	sub    $0x18,%rsp
    2535:	48 89 e1             	mov    %rsp,%rcx
    2538:	48 8b 45 28          	mov    0x28(%rbp),%rax
    253c:	48 8b 55 30          	mov    0x30(%rbp),%rdx
    2540:	48 89 01             	mov    %rax,(%rcx)
    2543:	48 89 51 08          	mov    %rdx,0x8(%rcx)
    2547:	48 8b 45 38          	mov    0x38(%rbp),%rax
    254b:	48 89 41 10          	mov    %rax,0x10(%rcx)
    254f:	e8 1e ef ff ff       	call   1472 <to_float>
    2554:	48 83 c4 20          	add    $0x20,%rsp
    2558:	66 49 0f 6e fc       	movq   %r12,%xmm7
    255d:	66 0f 2f f8          	comisd %xmm0,%xmm7
    2561:	0f 93 c2             	setae  %dl
    2564:	48 8b 45 c8          	mov    -0x38(%rbp),%rax
    2568:	c7 00 02 00 00 00    	movl   $0x2,(%rax)
    256e:	48 8b 45 c8          	mov    -0x38(%rbp),%rax
    2572:	48 89 58 08          	mov    %rbx,0x8(%rax)
    2576:	48 8b 45 c8          	mov    -0x38(%rbp),%rax
    257a:	88 50 10             	mov    %dl,0x10(%rax)
    257d:	e9 ff 05 00 00       	jmp    2b81 <operate+0x164d>
    2582:	e8 52 ed ff ff       	call   12d9 <e_refc_init>
    2587:	48 89 c3             	mov    %rax,%rbx
    258a:	48 83 ec 08          	sub    $0x8,%rsp
    258e:	48 83 ec 18          	sub    $0x18,%rsp
    2592:	48 89 e1             	mov    %rsp,%rcx
    2595:	48 8b 45 10          	mov    0x10(%rbp),%rax
    2599:	48 8b 55 18          	mov    0x18(%rbp),%rdx
    259d:	48 89 01             	mov    %rax,(%rcx)
    25a0:	48 89 51 08          	mov    %rdx,0x8(%rcx)
    25a4:	48 8b 45 20          	mov    0x20(%rbp),%rax
    25a8:	48 89 41 10          	mov    %rax,0x10(%rcx)
    25ac:	e8 24 ef ff ff       	call   14d5 <to_int>
    25b1:	48 83 c4 20          	add    $0x20,%rsp
    25b5:	41 89 c4             	mov    %eax,%r12d
    25b8:	48 83 ec 08          	sub    $0x8,%rsp
    25bc:	48 83 ec 18          	sub    $0x18,%rsp
    25c0:	48 89 e1             	mov    %rsp,%rcx
    25c3:	48 8b 45 28          	mov    0x28(%rbp),%rax
    25c7:	48 8b 55 30          	mov    0x30(%rbp),%rdx
    25cb:	48 89 01             	mov    %rax,(%rcx)
    25ce:	48 89 51 08          	mov    %rdx,0x8(%rcx)
    25d2:	48 8b 45 38          	mov    0x38(%rbp),%rax
    25d6:	48 89 41 10          	mov    %rax,0x10(%rcx)
    25da:	e8 f6 ee ff ff       	call   14d5 <to_int>
    25df:	48 83 c4 20          	add    $0x20,%rsp
    25e3:	41 39 c4             	cmp    %eax,%r12d
    25e6:	0f 9d c2             	setge  %dl
    25e9:	48 8b 45 c8          	mov    -0x38(%rbp),%rax
    25ed:	c7 00 02 00 00 00    	movl   $0x2,(%rax)
    25f3:	48 8b 45 c8          	mov    -0x38(%rbp),%rax
    25f7:	48 89 58 08          	mov    %rbx,0x8(%rax)
    25fb:	48 8b 45 c8          	mov    -0x38(%rbp),%rax
    25ff:	88 50 10             	mov    %dl,0x10(%rax)
    2602:	e9 7a 05 00 00       	jmp    2b81 <operate+0x164d>
    2607:	48 83 ec 08          	sub    $0x8,%rsp
    260b:	48 83 ec 18          	sub    $0x18,%rsp
    260f:	48 89 e1             	mov    %rsp,%rcx
    2612:	48 8b 45 10          	mov    0x10(%rbp),%rax
    2616:	48 8b 55 18          	mov    0x18(%rbp),%rdx
    261a:	48 89 01             	mov    %rax,(%rcx)
    261d:	48 89 51 08          	mov    %rdx,0x8(%rcx)
    2621:	48 8b 45 20          	mov    0x20(%rbp),%rax
    2625:	48 89 41 10          	mov    %rax,0x10(%rcx)
    2629:	e8 f7 ee ff ff       	call   1525 <is_float>
    262e:	48 83 c4 20          	add    $0x20,%rsp
    2632:	84 c0                	test   %al,%al
    2634:	75 33                	jne    2669 <operate+0x1135>
    2636:	48 83 ec 08          	sub    $0x8,%rsp
    263a:	48 83 ec 18          	sub    $0x18,%rsp
    263e:	48 89 e1             	mov    %rsp,%rcx
    2641:	48 8b 45 28          	mov    0x28(%rbp),%rax
    2645:	48 8b 55 30          	mov    0x30(%rbp),%rdx
    2649:	48 89 01             	mov    %rax,(%rcx)
    264c:	48 89 51 08          	mov    %rdx,0x8(%rcx)
    2650:	48 8b 45 38          	mov    0x38(%rbp),%rax
    2654:	48 89 41 10          	mov    %rax,0x10(%rcx)
    2658:	e8 c8 ee ff ff       	call   1525 <is_float>
    265d:	48 83 c4 20          	add    $0x20,%rsp
    2661:	84 c0                	test   %al,%al
    2663:	0f 84 d1 00 00 00    	je     273a <operate+0x1206>
    2669:	e8 6b ec ff ff       	call   12d9 <e_refc_init>
    266e:	48 89 c3             	mov    %rax,%rbx
    2671:	48 83 ec 08          	sub    $0x8,%rsp
    2675:	48 83 ec 18          	sub    $0x18,%rsp
    2679:	48 89 e1             	mov    %rsp,%rcx
    267c:	48 8b 45 10          	mov    0x10(%rbp),%rax
    2680:	48 8b 55 18          	mov    0x18(%rbp),%rdx
    2684:	48 89 01             	mov    %rax,(%rcx)
    2687:	48 89 51 08          	mov    %rdx,0x8(%rcx)
    268b:	48 8b 45 20          	mov    0x20(%rbp),%rax
    268f:	48 89 41 10          	mov    %rax,0x10(%rcx)
    2693:	e8 da ed ff ff       	call   1472 <to_float>
    2698:	48 83 c4 20          	add    $0x20,%rsp
    269c:	66 48 0f 7e c0       	movq   %xmm0,%rax
    26a1:	66 0f ef c0          	pxor   %xmm0,%xmm0
    26a5:	66 48 0f 6e c8       	movq   %rax,%xmm1
    26aa:	66 0f 2e c8          	ucomisd %xmm0,%xmm1
    26ae:	7a 0f                	jp     26bf <operate+0x118b>
    26b0:	66 0f ef c0          	pxor   %xmm0,%xmm0
    26b4:	66 48 0f 6e d0       	movq   %rax,%xmm2
    26b9:	66 0f 2e d0          	ucomisd %xmm0,%xmm2
    26bd:	74 55                	je     2714 <operate+0x11e0>
    26bf:	48 83 ec 08          	sub    $0x8,%rsp
    26c3:	48 83 ec 18          	sub    $0x18,%rsp
    26c7:	48 89 e1             	mov    %rsp,%rcx
    26ca:	48 8b 45 28          	mov    0x28(%rbp),%rax
    26ce:	48 8b 55 30          	mov    0x30(%rbp),%rdx
    26d2:	48 89 01             	mov    %rax,(%rcx)
    26d5:	48 89 51 08          	mov    %rdx,0x8(%rcx)
    26d9:	48 8b 45 38          	mov    0x38(%rbp),%rax
    26dd:	48 89 41 10          	mov    %rax,0x10(%rcx)
    26e1:	e8 8c ed ff ff       	call   1472 <to_float>
    26e6:	48 83 c4 20          	add    $0x20,%rsp
    26ea:	66 48 0f 7e c0       	movq   %xmm0,%rax
    26ef:	66 0f ef c0          	pxor   %xmm0,%xmm0
    26f3:	66 48 0f 6e d8       	movq   %rax,%xmm3
    26f8:	66 0f 2e d8          	ucomisd %xmm0,%xmm3
    26fc:	7a 0f                	jp     270d <operate+0x11d9>
    26fe:	66 0f ef c0          	pxor   %xmm0,%xmm0
    2702:	66 48 0f 6e e0       	movq   %rax,%xmm4
    2707:	66 0f 2e e0          	ucomisd %xmm0,%xmm4
    270b:	74 07                	je     2714 <operate+0x11e0>
    270d:	b8 01 00 00 00       	mov    $0x1,%eax
    2712:	eb 05                	jmp    2719 <operate+0x11e5>
    2714:	b8 00 00 00 00       	mov    $0x0,%eax
    2719:	83 e0 01             	and    $0x1,%eax
    271c:	48 8b 55 c8          	mov    -0x38(%rbp),%rdx
    2720:	c7 02 02 00 00 00    	movl   $0x2,(%rdx)
    2726:	48 8b 55 c8          	mov    -0x38(%rbp),%rdx
    272a:	48 89 5a 08          	mov    %rbx,0x8(%rdx)
    272e:	48 8b 55 c8          	mov    -0x38(%rbp),%rdx
    2732:	88 42 10             	mov    %al,0x10(%rdx)
    2735:	e9 47 04 00 00       	jmp    2b81 <operate+0x164d>
    273a:	e8 9a eb ff ff       	call   12d9 <e_refc_init>
    273f:	48 89 c3             	mov    %rax,%rbx
    2742:	48 83 ec 08          	sub    $0x8,%rsp
    2746:	48 83 ec 18          	sub    $0x18,%rsp
    274a:	48 89 e1             	mov    %rsp,%rcx
    274d:	48 8b 45 10          	mov    0x10(%rbp),%rax
    2751:	48 8b 55 18          	mov    0x18(%rbp),%rdx
    2755:	48 89 01             	mov    %rax,(%rcx)
    2758:	48 89 51 08          	mov    %rdx,0x8(%rcx)
    275c:	48 8b 45 20          	mov    0x20(%rbp),%rax
    2760:	48 89 41 10          	mov    %rax,0x10(%rcx)
    2764:	e8 6c ed ff ff       	call   14d5 <to_int>
    2769:	48 83 c4 20          	add    $0x20,%rsp
    276d:	85 c0                	test   %eax,%eax
    276f:	74 36                	je     27a7 <operate+0x1273>
    2771:	48 83 ec 08          	sub    $0x8,%rsp
    2775:	48 83 ec 18          	sub    $0x18,%rsp
    2779:	48 89 e1             	mov    %rsp,%rcx
    277c:	48 8b 45 28          	mov    0x28(%rbp),%rax
    2780:	48 8b 55 30          	mov    0x30(%rbp),%rdx
    2784:	48 89 01             	mov    %rax,(%rcx)
    2787:	48 89 51 08          	mov    %rdx,0x8(%rcx)
    278b:	48 8b 45 38          	mov    0x38(%rbp),%rax
    278f:	48 89 41 10          	mov    %rax,0x10(%rcx)
    2793:	e8 3d ed ff ff       	call   14d5 <to_int>
    2798:	48 83 c4 20          	add    $0x20,%rsp
    279c:	85 c0                	test   %eax,%eax
    279e:	74 07                	je     27a7 <operate+0x1273>
    27a0:	b8 01 00 00 00       	mov    $0x1,%eax
    27a5:	eb 05                	jmp    27ac <operate+0x1278>
    27a7:	b8 00 00 00 00       	mov    $0x0,%eax
    27ac:	83 e0 01             	and    $0x1,%eax
    27af:	48 8b 55 c8          	mov    -0x38(%rbp),%rdx
    27b3:	c7 02 02 00 00 00    	movl   $0x2,(%rdx)
    27b9:	48 8b 55 c8          	mov    -0x38(%rbp),%rdx
    27bd:	48 89 5a 08          	mov    %rbx,0x8(%rdx)
    27c1:	48 8b 55 c8          	mov    -0x38(%rbp),%rdx
    27c5:	88 42 10             	mov    %al,0x10(%rdx)
    27c8:	e9 b4 03 00 00       	jmp    2b81 <operate+0x164d>
    27cd:	48 83 ec 08          	sub    $0x8,%rsp
    27d1:	48 83 ec 18          	sub    $0x18,%rsp
    27d5:	48 89 e1             	mov    %rsp,%rcx
    27d8:	48 8b 45 10          	mov    0x10(%rbp),%rax
    27dc:	48 8b 55 18          	mov    0x18(%rbp),%rdx
    27e0:	48 89 01             	mov    %rax,(%rcx)
    27e3:	48 89 51 08          	mov    %rdx,0x8(%rcx)
    27e7:	48 8b 45 20          	mov    0x20(%rbp),%rax
    27eb:	48 89 41 10          	mov    %rax,0x10(%rcx)
    27ef:	e8 31 ed ff ff       	call   1525 <is_float>
    27f4:	48 83 c4 20          	add    $0x20,%rsp
    27f8:	84 c0                	test   %al,%al
    27fa:	75 33                	jne    282f <operate+0x12fb>
    27fc:	48 83 ec 08          	sub    $0x8,%rsp
    2800:	48 83 ec 18          	sub    $0x18,%rsp
    2804:	48 89 e1             	mov    %rsp,%rcx
    2807:	48 8b 45 28          	mov    0x28(%rbp),%rax
    280b:	48 8b 55 30          	mov    0x30(%rbp),%rdx
    280f:	48 89 01             	mov    %rax,(%rcx)
    2812:	48 89 51 08          	mov    %rdx,0x8(%rcx)
    2816:	48 8b 45 38          	mov    0x38(%rbp),%rax
    281a:	48 89 41 10          	mov    %rax,0x10(%rcx)
    281e:	e8 02 ed ff ff       	call   1525 <is_float>
    2823:	48 83 c4 20          	add    $0x20,%rsp
    2827:	84 c0                	test   %al,%al
    2829:	0f 84 d1 00 00 00    	je     2900 <operate+0x13cc>
    282f:	e8 a5 ea ff ff       	call   12d9 <e_refc_init>
    2834:	48 89 c3             	mov    %rax,%rbx
    2837:	48 83 ec 08          	sub    $0x8,%rsp
    283b:	48 83 ec 18          	sub    $0x18,%rsp
    283f:	48 89 e1             	mov    %rsp,%rcx
    2842:	48 8b 45 10          	mov    0x10(%rbp),%rax
    2846:	48 8b 55 18          	mov    0x18(%rbp),%rdx
    284a:	48 89 01             	mov    %rax,(%rcx)
    284d:	48 89 51 08          	mov    %rdx,0x8(%rcx)
    2851:	48 8b 45 20          	mov    0x20(%rbp),%rax
    2855:	48 89 41 10          	mov    %rax,0x10(%rcx)
    2859:	e8 14 ec ff ff       	call   1472 <to_float>
    285e:	48 83 c4 20          	add    $0x20,%rsp
    2862:	66 48 0f 7e c0       	movq   %xmm0,%rax
    2867:	66 0f ef c0          	pxor   %xmm0,%xmm0
    286b:	66 48 0f 6e e8       	movq   %rax,%xmm5
    2870:	66 0f 2e e8          	ucomisd %xmm0,%xmm5
    2874:	7a 5d                	jp     28d3 <operate+0x139f>
    2876:	66 0f ef c0          	pxor   %xmm0,%xmm0
    287a:	66 48 0f 6e f0       	movq   %rax,%xmm6
    287f:	66 0f 2e f0          	ucomisd %xmm0,%xmm6
    2883:	75 4e                	jne    28d3 <operate+0x139f>
    2885:	48 83 ec 08          	sub    $0x8,%rsp
    2889:	48 83 ec 18          	sub    $0x18,%rsp
    288d:	48 89 e1             	mov    %rsp,%rcx
    2890:	48 8b 45 28          	mov    0x28(%rbp),%rax
    2894:	48 8b 55 30          	mov    0x30(%rbp),%rdx
    2898:	48 89 01             	mov    %rax,(%rcx)
    289b:	48 89 51 08          	mov    %rdx,0x8(%rcx)
    289f:	48 8b 45 38          	mov    0x38(%rbp),%rax
    28a3:	48 89 41 10          	mov    %rax,0x10(%rcx)
    28a7:	e8 c6 eb ff ff       	call   1472 <to_float>
    28ac:	48 83 c4 20          	add    $0x20,%rsp
    28b0:	66 48 0f 7e c0       	movq   %xmm0,%rax
    28b5:	66 0f ef c0          	pxor   %xmm0,%xmm0
    28b9:	66 48 0f 6e f8       	movq   %rax,%xmm7
    28be:	66 0f 2e f8          	ucomisd %xmm0,%xmm7
    28c2:	7a 0f                	jp     28d3 <operate+0x139f>
    28c4:	66 0f ef c0          	pxor   %xmm0,%xmm0
    28c8:	66 48 0f 6e c8       	movq   %rax,%xmm1
    28cd:	66 0f 2e c8          	ucomisd %xmm0,%xmm1
    28d1:	74 07                	je     28da <operate+0x13a6>
    28d3:	b8 01 00 00 00       	mov    $0x1,%eax
    28d8:	eb 05                	jmp    28df <operate+0x13ab>
    28da:	b8 00 00 00 00       	mov    $0x0,%eax
    28df:	83 e0 01             	and    $0x1,%eax
    28e2:	48 8b 55 c8          	mov    -0x38(%rbp),%rdx
    28e6:	c7 02 02 00 00 00    	movl   $0x2,(%rdx)
    28ec:	48 8b 55 c8          	mov    -0x38(%rbp),%rdx
    28f0:	48 89 5a 08          	mov    %rbx,0x8(%rdx)
    28f4:	48 8b 55 c8          	mov    -0x38(%rbp),%rdx
    28f8:	88 42 10             	mov    %al,0x10(%rdx)
    28fb:	e9 81 02 00 00       	jmp    2b81 <operate+0x164d>
    2900:	e8 d4 e9 ff ff       	call   12d9 <e_refc_init>
    2905:	48 89 c3             	mov    %rax,%rbx
    2908:	48 83 ec 08          	sub    $0x8,%rsp
    290c:	48 83 ec 18          	sub    $0x18,%rsp
    2910:	48 89 e1             	mov    %rsp,%rcx
    2913:	48 8b 45 10          	mov    0x10(%rbp),%rax
    2917:	48 8b 55 18          	mov    0x18(%rbp),%rdx
    291b:	48 89 01             	mov    %rax,(%rcx)
    291e:	48 89 51 08          	mov    %rdx,0x8(%rcx)
    2922:	48 8b 45 20          	mov    0x20(%rbp),%rax
    2926:	48 89 41 10          	mov    %rax,0x10(%rcx)
    292a:	e8 a6 eb ff ff       	call   14d5 <to_int>
    292f:	48 83 c4 20          	add    $0x20,%rsp
    2933:	85 c0                	test   %eax,%eax
    2935:	75 2f                	jne    2966 <operate+0x1432>
    2937:	48 83 ec 08          	sub    $0x8,%rsp
    293b:	48 83 ec 18          	sub    $0x18,%rsp
    293f:	48 89 e1             	mov    %rsp,%rcx
    2942:	48 8b 45 28          	mov    0x28(%rbp),%rax
    2946:	48 8b 55 30          	mov    0x30(%rbp),%rdx
    294a:	48 89 01             	mov    %rax,(%rcx)
    294d:	48 89 51 08          	mov    %rdx,0x8(%rcx)
    2951:	48 8b 45 38          	mov    0x38(%rbp),%rax
    2955:	48 89 41 10          	mov    %rax,0x10(%rcx)
    2959:	e8 77 eb ff ff       	call   14d5 <to_int>
    295e:	48 83 c4 20          	add    $0x20,%rsp
    2962:	85 c0                	test   %eax,%eax
    2964:	74 07                	je     296d <operate+0x1439>
    2966:	b8 01 00 00 00       	mov    $0x1,%eax
    296b:	eb 05                	jmp    2972 <operate+0x143e>
    296d:	b8 00 00 00 00       	mov    $0x0,%eax
    2972:	83 e0 01             	and    $0x1,%eax
    2975:	48 8b 55 c8          	mov    -0x38(%rbp),%rdx
    2979:	c7 02 02 00 00 00    	movl   $0x2,(%rdx)
    297f:	48 8b 55 c8          	mov    -0x38(%rbp),%rdx
    2983:	48 89 5a 08          	mov    %rbx,0x8(%rdx)
    2987:	48 8b 55 c8          	mov    -0x38(%rbp),%rdx
    298b:	88 42 10             	mov    %al,0x10(%rdx)
    298e:	e9 ee 01 00 00       	jmp    2b81 <operate+0x164d>
    2993:	e8 41 e9 ff ff       	call   12d9 <e_refc_init>
    2998:	48 89 c3             	mov    %rax,%rbx
    299b:	48 83 ec 08          	sub    $0x8,%rsp
    299f:	48 83 ec 18          	sub    $0x18,%rsp
    29a3:	48 89 e1             	mov    %rsp,%rcx
    29a6:	48 8b 45 28          	mov    0x28(%rbp),%rax
    29aa:	48 8b 55 30          	mov    0x30(%rbp),%rdx
    29ae:	48 89 01             	mov    %rax,(%rcx)
    29b1:	48 89 51 08          	mov    %rdx,0x8(%rcx)
    29b5:	48 8b 45 38          	mov    0x38(%rbp),%rax
    29b9:	48 89 41 10          	mov    %rax,0x10(%rcx)
    29bd:	e8 13 eb ff ff       	call   14d5 <to_int>
    29c2:	48 83 c4 20          	add    $0x20,%rsp
    29c6:	f7 d0                	not    %eax
    29c8:	89 c2                	mov    %eax,%edx
    29ca:	48 8b 45 c8          	mov    -0x38(%rbp),%rax
    29ce:	c7 00 01 00 00 00    	movl   $0x1,(%rax)
    29d4:	48 8b 45 c8          	mov    -0x38(%rbp),%rax
    29d8:	48 89 58 08          	mov    %rbx,0x8(%rax)
    29dc:	48 8b 45 c8          	mov    -0x38(%rbp),%rax
    29e0:	89 50 10             	mov    %edx,0x10(%rax)
    29e3:	e9 99 01 00 00       	jmp    2b81 <operate+0x164d>
    29e8:	e8 ec e8 ff ff       	call   12d9 <e_refc_init>
    29ed:	48 89 c3             	mov    %rax,%rbx
    29f0:	48 83 ec 08          	sub    $0x8,%rsp
    29f4:	48 83 ec 18          	sub    $0x18,%rsp
    29f8:	48 89 e1             	mov    %rsp,%rcx
    29fb:	48 8b 45 10          	mov    0x10(%rbp),%rax
    29ff:	48 8b 55 18          	mov    0x18(%rbp),%rdx
    2a03:	48 89 01             	mov    %rax,(%rcx)
    2a06:	48 89 51 08          	mov    %rdx,0x8(%rcx)
    2a0a:	48 8b 45 20          	mov    0x20(%rbp),%rax
    2a0e:	48 89 41 10          	mov    %rax,0x10(%rcx)
    2a12:	e8 be ea ff ff       	call   14d5 <to_int>
    2a17:	48 83 c4 20          	add    $0x20,%rsp
    2a1b:	41 89 c4             	mov    %eax,%r12d
    2a1e:	48 83 ec 08          	sub    $0x8,%rsp
    2a22:	48 83 ec 18          	sub    $0x18,%rsp
    2a26:	48 89 e1             	mov    %rsp,%rcx
    2a29:	48 8b 45 28          	mov    0x28(%rbp),%rax
    2a2d:	48 8b 55 30          	mov    0x30(%rbp),%rdx
    2a31:	48 89 01             	mov    %rax,(%rcx)
    2a34:	48 89 51 08          	mov    %rdx,0x8(%rcx)
    2a38:	48 8b 45 38          	mov    0x38(%rbp),%rax
    2a3c:	48 89 41 10          	mov    %rax,0x10(%rcx)
    2a40:	e8 90 ea ff ff       	call   14d5 <to_int>
    2a45:	48 83 c4 20          	add    $0x20,%rsp
    2a49:	44 89 e2             	mov    %r12d,%edx
    2a4c:	21 c2                	and    %eax,%edx
    2a4e:	48 8b 45 c8          	mov    -0x38(%rbp),%rax
    2a52:	c7 00 01 00 00 00    	movl   $0x1,(%rax)
    2a58:	48 8b 45 c8          	mov    -0x38(%rbp),%rax
    2a5c:	48 89 58 08          	mov    %rbx,0x8(%rax)
    2a60:	48 8b 45 c8          	mov    -0x38(%rbp),%rax
    2a64:	89 50 10             	mov    %edx,0x10(%rax)
    2a67:	e9 15 01 00 00       	jmp    2b81 <operate+0x164d>
    2a6c:	e8 68 e8 ff ff       	call   12d9 <e_refc_init>
    2a71:	48 89 c3             	mov    %rax,%rbx
    2a74:	48 83 ec 08          	sub    $0x8,%rsp
    2a78:	48 83 ec 18          	sub    $0x18,%rsp
    2a7c:	48 89 e1             	mov    %rsp,%rcx
    2a7f:	48 8b 45 10          	mov    0x10(%rbp),%rax
    2a83:	48 8b 55 18          	mov    0x18(%rbp),%rdx
    2a87:	48 89 01             	mov    %rax,(%rcx)
    2a8a:	48 89 51 08          	mov    %rdx,0x8(%rcx)
    2a8e:	48 8b 45 20          	mov    0x20(%rbp),%rax
    2a92:	48 89 41 10          	mov    %rax,0x10(%rcx)
    2a96:	e8 3a ea ff ff       	call   14d5 <to_int>
    2a9b:	48 83 c4 20          	add    $0x20,%rsp
    2a9f:	41 89 c4             	mov    %eax,%r12d
    2aa2:	48 83 ec 08          	sub    $0x8,%rsp
    2aa6:	48 83 ec 18          	sub    $0x18,%rsp
    2aaa:	48 89 e1             	mov    %rsp,%rcx
    2aad:	48 8b 45 28          	mov    0x28(%rbp),%rax
    2ab1:	48 8b 55 30          	mov    0x30(%rbp),%rdx
    2ab5:	48 89 01             	mov    %rax,(%rcx)
    2ab8:	48 89 51 08          	mov    %rdx,0x8(%rcx)
    2abc:	48 8b 45 38          	mov    0x38(%rbp),%rax
    2ac0:	48 89 41 10          	mov    %rax,0x10(%rcx)
    2ac4:	e8 0c ea ff ff       	call   14d5 <to_int>
    2ac9:	48 83 c4 20          	add    $0x20,%rsp
    2acd:	44 89 e2             	mov    %r12d,%edx
    2ad0:	09 c2                	or     %eax,%edx
    2ad2:	48 8b 45 c8          	mov    -0x38(%rbp),%rax
    2ad6:	c7 00 01 00 00 00    	movl   $0x1,(%rax)
    2adc:	48 8b 45 c8          	mov    -0x38(%rbp),%rax
    2ae0:	48 89 58 08          	mov    %rbx,0x8(%rax)
    2ae4:	48 8b 45 c8          	mov    -0x38(%rbp),%rax
    2ae8:	89 50 10             	mov    %edx,0x10(%rax)
    2aeb:	e9 91 00 00 00       	jmp    2b81 <operate+0x164d>
    2af0:	e8 e4 e7 ff ff       	call   12d9 <e_refc_init>
    2af5:	48 89 c3             	mov    %rax,%rbx
    2af8:	48 83 ec 08          	sub    $0x8,%rsp
    2afc:	48 83 ec 18          	sub    $0x18,%rsp
    2b00:	48 89 e1             	mov    %rsp,%rcx
    2b03:	48 8b 45 10          	mov    0x10(%rbp),%rax
    2b07:	48 8b 55 18          	mov    0x18(%rbp),%rdx
    2b0b:	48 89 01             	mov    %rax,(%rcx)
    2b0e:	48 89 51 08          	mov    %rdx,0x8(%rcx)
    2b12:	48 8b 45 20          	mov    0x20(%rbp),%rax
    2b16:	48 89 41 10          	mov    %rax,0x10(%rcx)
    2b1a:	e8 b6 e9 ff ff       	call   14d5 <to_int>
    2b1f:	48 83 c4 20          	add    $0x20,%rsp
    2b23:	41 89 c4             	mov    %eax,%r12d
    2b26:	48 83 ec 08          	sub    $0x8,%rsp
    2b2a:	48 83 ec 18          	sub    $0x18,%rsp
    2b2e:	48 89 e1             	mov    %rsp,%rcx
    2b31:	48 8b 45 28          	mov    0x28(%rbp),%rax
    2b35:	48 8b 55 30          	mov    0x30(%rbp),%rdx
    2b39:	48 89 01             	mov    %rax,(%rcx)
    2b3c:	48 89 51 08          	mov    %rdx,0x8(%rcx)
    2b40:	48 8b 45 38          	mov    0x38(%rbp),%rax
    2b44:	48 89 41 10          	mov    %rax,0x10(%rcx)
    2b48:	e8 88 e9 ff ff       	call   14d5 <to_int>
    2b4d:	48 83 c4 20          	add    $0x20,%rsp
    2b51:	44 89 e2             	mov    %r12d,%edx
    2b54:	31 c2                	xor    %eax,%edx
    2b56:	48 8b 45 c8          	mov    -0x38(%rbp),%rax
    2b5a:	c7 00 01 00 00 00    	movl   $0x1,(%rax)
    2b60:	48 8b 45 c8          	mov    -0x38(%rbp),%rax
    2b64:	48 89 58 08          	mov    %rbx,0x8(%rax)
    2b68:	48 8b 45 c8          	mov    -0x38(%rbp),%rax
    2b6c:	89 50 10             	mov    %edx,0x10(%rax)
    2b6f:	eb 10                	jmp    2b81 <operate+0x164d>
    2b71:	48 8b 45 c8          	mov    -0x38(%rbp),%rax
    2b75:	66 0f ef c0          	pxor   %xmm0,%xmm0
    2b79:	0f 11 00             	movups %xmm0,(%rax)
    2b7c:	66 0f d6 40 10       	movq   %xmm0,0x10(%rax)
    2b81:	48 8b 45 c8          	mov    -0x38(%rbp),%rax
    2b85:	48 8d 65 f0          	lea    -0x10(%rbp),%rsp
    2b89:	5b                   	pop    %rbx
    2b8a:	41 5c                	pop    %r12
    2b8c:	5d                   	pop    %rbp
    2b8d:	c3                   	ret

0000000000002b8e <stack_init>:
    2b8e:	55                   	push   %rbp
    2b8f:	48 89 e5             	mov    %rsp,%rbp
    2b92:	48 83 ec 20          	sub    $0x20,%rsp
    2b96:	48 89 7d e8          	mov    %rdi,-0x18(%rbp)
    2b9a:	48 c7 45 f8 10 00 00 	movq   $0x10,-0x8(%rbp)
    2ba1:	00 
    2ba2:	48 8b 45 e8          	mov    -0x18(%rbp),%rax
    2ba6:	48 c7 00 00 00 00 00 	movq   $0x0,(%rax)
    2bad:	48 8b 45 e8          	mov    -0x18(%rbp),%rax
    2bb1:	48 8b 55 f8          	mov    -0x8(%rbp),%rdx
    2bb5:	48 89 50 08          	mov    %rdx,0x8(%rax)
    2bb9:	48 8b 55 f8          	mov    -0x8(%rbp),%rdx
    2bbd:	48 89 d0             	mov    %rdx,%rax
    2bc0:	48 01 c0             	add    %rax,%rax
    2bc3:	48 01 d0             	add    %rdx,%rax
    2bc6:	48 c1 e0 03          	shl    $0x3,%rax
    2bca:	48 89 c7             	mov    %rax,%rdi
    2bcd:	e8 6e e5 ff ff       	call   1140 <malloc@plt>
    2bd2:	48 89 c2             	mov    %rax,%rdx
    2bd5:	48 8b 45 e8          	mov    -0x18(%rbp),%rax
    2bd9:	48 89 50 10          	mov    %rdx,0x10(%rax)
    2bdd:	48 8b 45 e8          	mov    -0x18(%rbp),%rax
    2be1:	48 8b 40 10          	mov    0x10(%rax),%rax
    2be5:	48 85 c0             	test   %rax,%rax
    2be8:	75 07                	jne    2bf1 <stack_init+0x63>
    2bea:	b8 ff ff ff ff       	mov    $0xffffffff,%eax
    2bef:	eb 05                	jmp    2bf6 <stack_init+0x68>
    2bf1:	b8 00 00 00 00       	mov    $0x0,%eax
    2bf6:	c9                   	leave
    2bf7:	c3                   	ret

0000000000002bf8 <stack_free>:
    2bf8:	55                   	push   %rbp
    2bf9:	48 89 e5             	mov    %rsp,%rbp
    2bfc:	48 83 ec 10          	sub    $0x10,%rsp
    2c00:	48 89 7d f8          	mov    %rdi,-0x8(%rbp)
    2c04:	48 8b 45 f8          	mov    -0x8(%rbp),%rax
    2c08:	48 8b 40 10          	mov    0x10(%rax),%rax
    2c0c:	48 89 c7             	mov    %rax,%rdi
    2c0f:	e8 1c e4 ff ff       	call   1030 <free@plt>
    2c14:	90                   	nop
    2c15:	c9                   	leave
    2c16:	c3                   	ret

0000000000002c17 <stack_push>:
    2c17:	55                   	push   %rbp
    2c18:	48 89 e5             	mov    %rsp,%rbp
    2c1b:	48 83 ec 20          	sub    $0x20,%rsp
    2c1f:	48 89 7d e8          	mov    %rdi,-0x18(%rbp)
    2c23:	48 8b 45 e8          	mov    -0x18(%rbp),%rax
    2c27:	48 8b 10             	mov    (%rax),%rdx
    2c2a:	48 8b 45 e8          	mov    -0x18(%rbp),%rax
    2c2e:	48 8b 40 08          	mov    0x8(%rax),%rax
    2c32:	48 39 c2             	cmp    %rax,%rdx
    2c35:	72 65                	jb     2c9c <stack_push+0x85>
    2c37:	48 8b 45 e8          	mov    -0x18(%rbp),%rax
    2c3b:	48 8b 40 08          	mov    0x8(%rax),%rax
    2c3f:	48 01 c0             	add    %rax,%rax
    2c42:	ba 01 00 00 00       	mov    $0x1,%edx
    2c47:	48 85 c0             	test   %rax,%rax
    2c4a:	48 0f 44 c2          	cmove  %rdx,%rax
    2c4e:	48 89 45 f0          	mov    %rax,-0x10(%rbp)
    2c52:	48 8b 55 f0          	mov    -0x10(%rbp),%rdx
    2c56:	48 89 d0             	mov    %rdx,%rax
    2c59:	48 01 c0             	add    %rax,%rax
    2c5c:	48 01 d0             	add    %rdx,%rax
    2c5f:	48 c1 e0 03          	shl    $0x3,%rax
    2c63:	48 89 c2             	mov    %rax,%rdx
    2c66:	48 8b 45 e8          	mov    -0x18(%rbp),%rax
    2c6a:	48 8b 40 10          	mov    0x10(%rax),%rax
    2c6e:	48 89 d6             	mov    %rdx,%rsi
    2c71:	48 89 c7             	mov    %rax,%rdi
    2c74:	e8 e7 e4 ff ff       	call   1160 <realloc@plt>
    2c79:	48 89 45 f8          	mov    %rax,-0x8(%rbp)
    2c7d:	48 83 7d f8 00       	cmpq   $0x0,-0x8(%rbp)
    2c82:	74 62                	je     2ce6 <stack_push+0xcf>
    2c84:	48 8b 45 e8          	mov    -0x18(%rbp),%rax
    2c88:	48 8b 55 f8          	mov    -0x8(%rbp),%rdx
    2c8c:	48 89 50 10          	mov    %rdx,0x10(%rax)
    2c90:	48 8b 45 e8          	mov    -0x18(%rbp),%rax
    2c94:	48 8b 55 f0          	mov    -0x10(%rbp),%rdx
    2c98:	48 89 50 08          	mov    %rdx,0x8(%rax)
    2c9c:	48 8b 45 e8          	mov    -0x18(%rbp),%rax
    2ca0:	48 8b 48 10          	mov    0x10(%rax),%rcx
    2ca4:	48 8b 45 e8          	mov    -0x18(%rbp),%rax
    2ca8:	48 8b 10             	mov    (%rax),%rdx
    2cab:	48 89 d0             	mov    %rdx,%rax
    2cae:	48 01 c0             	add    %rax,%rax
    2cb1:	48 01 d0             	add    %rdx,%rax
    2cb4:	48 c1 e0 03          	shl    $0x3,%rax
    2cb8:	48 01 c1             	add    %rax,%rcx
    2cbb:	48 8b 45 10          	mov    0x10(%rbp),%rax
    2cbf:	48 8b 55 18          	mov    0x18(%rbp),%rdx
    2cc3:	48 89 01             	mov    %rax,(%rcx)
    2cc6:	48 89 51 08          	mov    %rdx,0x8(%rcx)
    2cca:	48 8b 45 20          	mov    0x20(%rbp),%rax
    2cce:	48 89 41 10          	mov    %rax,0x10(%rcx)
    2cd2:	48 8b 45 e8          	mov    -0x18(%rbp),%rax
    2cd6:	48 8b 00             	mov    (%rax),%rax
    2cd9:	48 8d 50 01          	lea    0x1(%rax),%rdx
    2cdd:	48 8b 45 e8          	mov    -0x18(%rbp),%rax
    2ce1:	48 89 10             	mov    %rdx,(%rax)
    2ce4:	eb 01                	jmp    2ce7 <stack_push+0xd0>
    2ce6:	90                   	nop
    2ce7:	c9                   	leave
    2ce8:	c3                   	ret

0000000000002ce9 <stack_pop>:
    2ce9:	55                   	push   %rbp
    2cea:	48 89 e5             	mov    %rsp,%rbp
    2ced:	48 83 ec 10          	sub    $0x10,%rsp
    2cf1:	48 89 7d f8          	mov    %rdi,-0x8(%rbp)
    2cf5:	48 8b 45 f8          	mov    -0x8(%rbp),%rax
    2cf9:	48 8b 48 10          	mov    0x10(%rax),%rcx
    2cfd:	48 8b 45 f8          	mov    -0x8(%rbp),%rax
    2d01:	48 8b 10             	mov    (%rax),%rdx
    2d04:	48 89 d0             	mov    %rdx,%rax
    2d07:	48 01 c0             	add    %rax,%rax
    2d0a:	48 01 d0             	add    %rdx,%rax
    2d0d:	48 c1 e0 03          	shl    $0x3,%rax
    2d11:	48 83 e8 18          	sub    $0x18,%rax
    2d15:	48 01 c8             	add    %rcx,%rax
    2d18:	48 89 c7             	mov    %rax,%rdi
    2d1b:	e8 3a e6 ff ff       	call   135a <e_var_release>
    2d20:	48 8b 45 f8          	mov    -0x8(%rbp),%rax
    2d24:	48 8b 00             	mov    (%rax),%rax
    2d27:	48 8d 50 ff          	lea    -0x1(%rax),%rdx
    2d2b:	48 8b 45 f8          	mov    -0x8(%rbp),%rax
    2d2f:	48 89 10             	mov    %rdx,(%rax)
    2d32:	90                   	nop
    2d33:	c9                   	leave
    2d34:	c3                   	ret

0000000000002d35 <stack_top>:
    2d35:	55                   	push   %rbp
    2d36:	48 89 e5             	mov    %rsp,%rbp
    2d39:	48 89 7d f8          	mov    %rdi,-0x8(%rbp)
    2d3d:	48 8b 45 f8          	mov    -0x8(%rbp),%rax
    2d41:	48 8b 48 10          	mov    0x10(%rax),%rcx
    2d45:	48 8b 45 f8          	mov    -0x8(%rbp),%rax
    2d49:	48 8b 10             	mov    (%rax),%rdx
    2d4c:	48 89 d0             	mov    %rdx,%rax
    2d4f:	48 01 c0             	add    %rax,%rax
    2d52:	48 01 d0             	add    %rdx,%rax
    2d55:	48 c1 e0 03          	shl    $0x3,%rax
    2d59:	48 83 e8 18          	sub    $0x18,%rax
    2d5d:	48 01 c8             	add    %rcx,%rax
    2d60:	5d                   	pop    %rbp
    2d61:	c3                   	ret

0000000000002d62 <call>:
    2d62:	55                   	push   %rbp
    2d63:	48 89 e5             	mov    %rsp,%rbp
    2d66:	48 81 ec d0 00 00 00 	sub    $0xd0,%rsp
    2d6d:	48 89 bd 68 ff ff ff 	mov    %rdi,-0x98(%rbp)
    2d74:	48 89 b5 60 ff ff ff 	mov    %rsi,-0xa0(%rbp)
    2d7b:	48 89 95 58 ff ff ff 	mov    %rdx,-0xa8(%rbp)
    2d82:	89 8d 54 ff ff ff    	mov    %ecx,-0xac(%rbp)
    2d88:	44 89 85 50 ff ff ff 	mov    %r8d,-0xb0(%rbp)
    2d8f:	64 48 8b 04 25 28 00 	mov    %fs:0x28,%rax
    2d96:	00 00 
    2d98:	48 89 45 f8          	mov    %rax,-0x8(%rbp)
    2d9c:	31 c0                	xor    %eax,%eax
    2d9e:	66 0f ef c0          	pxor   %xmm0,%xmm0
    2da2:	0f 29 45 90          	movaps %xmm0,-0x70(%rbp)
    2da6:	66 0f d6 45 a0       	movq   %xmm0,-0x60(%rbp)
    2dab:	48 8d 05 56 82 00 00 	lea    0x8256(%rip),%rax        # b008 <_IO_stdin_used+0x8>
    2db2:	be 07 00 00 00       	mov    $0x7,%esi
    2db7:	48 89 c7             	mov    %rax,%rdi
    2dba:	e8 d4 e5 ff ff       	call   1393 <e_hash_fnv>
    2dbf:	39 85 54 ff ff ff    	cmp    %eax,-0xac(%rbp)
    2dc5:	0f 85 84 00 00 00    	jne    2e4f <call+0xed>
    2dcb:	8b 85 50 ff ff ff    	mov    -0xb0(%rbp),%eax
    2dd1:	83 e8 01             	sub    $0x1,%eax
    2dd4:	89 c0                	mov    %eax,%eax
    2dd6:	48 89 85 78 ff ff ff 	mov    %rax,-0x88(%rbp)
    2ddd:	eb 4d                	jmp    2e2c <call+0xca>
    2ddf:	48 8b 15 1a b3 00 00 	mov    0xb31a(%rip),%rdx        # e100 <stdout@GLIBC_2.2.5>
    2de6:	48 8b 85 58 ff ff ff 	mov    -0xa8(%rbp),%rax
    2ded:	48 8b 70 10          	mov    0x10(%rax),%rsi
    2df1:	48 8b 85 58 ff ff ff 	mov    -0xa8(%rbp),%rax
    2df8:	48 8b 08             	mov    (%rax),%rcx
    2dfb:	48 8b 85 78 ff ff ff 	mov    -0x88(%rbp),%rax
    2e02:	48 29 c1             	sub    %rax,%rcx
    2e05:	48 89 c8             	mov    %rcx,%rax
    2e08:	48 01 c0             	add    %rax,%rax
    2e0b:	48 01 c8             	add    %rcx,%rax
    2e0e:	48 c1 e0 03          	shl    $0x3,%rax
    2e12:	48 83 e8 18          	sub    $0x18,%rax
    2e16:	48 01 f0             	add    %rsi,%rax
    2e19:	48 89 d6             	mov    %rdx,%rsi
    2e1c:	48 89 c7             	mov    %rax,%rdi
    2e1f:	e8 13 72 00 00       	call   a037 <e_var_print>
    2e24:	48 83 ad 78 ff ff ff 	subq   $0x1,-0x88(%rbp)
    2e2b:	01 
    2e2c:	48 83 bd 78 ff ff ff 	cmpq   $0x0,-0x88(%rbp)
    2e33:	00 
    2e34:	79 a9                	jns    2ddf <call+0x7d>
    2e36:	48 8b 05 c3 b2 00 00 	mov    0xb2c3(%rip),%rax        # e100 <stdout@GLIBC_2.2.5>
    2e3d:	48 89 c6             	mov    %rax,%rsi
    2e40:	bf 0a 00 00 00       	mov    $0xa,%edi
    2e45:	e8 a6 e2 ff ff       	call   10f0 <fputc@plt>
    2e4a:	e9 3c 03 00 00       	jmp    318b <call+0x429>
    2e4f:	48 8d 05 ba 81 00 00 	lea    0x81ba(%rip),%rax        # b010 <_IO_stdin_used+0x10>
    2e56:	be 05 00 00 00       	mov    $0x5,%esi
    2e5b:	48 89 c7             	mov    %rax,%rdi
    2e5e:	e8 30 e5 ff ff       	call   1393 <e_hash_fnv>
    2e63:	39 85 54 ff ff ff    	cmp    %eax,-0xac(%rbp)
    2e69:	75 64                	jne    2ecf <call+0x16d>
    2e6b:	8b 85 50 ff ff ff    	mov    -0xb0(%rbp),%eax
    2e71:	83 e8 01             	sub    $0x1,%eax
    2e74:	89 c0                	mov    %eax,%eax
    2e76:	48 89 45 80          	mov    %rax,-0x80(%rbp)
    2e7a:	eb 47                	jmp    2ec3 <call+0x161>
    2e7c:	48 8b 15 7d b2 00 00 	mov    0xb27d(%rip),%rdx        # e100 <stdout@GLIBC_2.2.5>
    2e83:	48 8b 85 58 ff ff ff 	mov    -0xa8(%rbp),%rax
    2e8a:	48 8b 70 10          	mov    0x10(%rax),%rsi
    2e8e:	48 8b 85 58 ff ff ff 	mov    -0xa8(%rbp),%rax
    2e95:	48 8b 08             	mov    (%rax),%rcx
    2e98:	48 8b 45 80          	mov    -0x80(%rbp),%rax
    2e9c:	48 29 c1             	sub    %rax,%rcx
    2e9f:	48 89 c8             	mov    %rcx,%rax
    2ea2:	48 01 c0             	add    %rax,%rax
    2ea5:	48 01 c8             	add    %rcx,%rax
    2ea8:	48 c1 e0 03          	shl    $0x3,%rax
    2eac:	48 83 e8 18          	sub    $0x18,%rax
    2eb0:	48 01 f0             	add    %rsi,%rax
    2eb3:	48 89 d6             	mov    %rdx,%rsi
    2eb6:	48 89 c7             	mov    %rax,%rdi
    2eb9:	e8 79 71 00 00       	call   a037 <e_var_print>
    2ebe:	48 83 6d 80 01       	subq   $0x1,-0x80(%rbp)
    2ec3:	48 83 7d 80 00       	cmpq   $0x0,-0x80(%rbp)
    2ec8:	79 b2                	jns    2e7c <call+0x11a>
    2eca:	e9 bc 02 00 00       	jmp    318b <call+0x429>
    2ecf:	c7 85 70 ff ff ff 00 	movl   $0x0,-0x90(%rbp)
    2ed6:	00 00 00 
    2ed9:	e9 71 01 00 00       	jmp    304f <call+0x2ed>
    2ede:	48 8b 85 60 ff ff ff 	mov    -0xa0(%rbp),%rax
    2ee5:	48 8b 40 20          	mov    0x20(%rax),%rax
    2ee9:	8b 95 70 ff ff ff    	mov    -0x90(%rbp),%edx
    2eef:	48 63 d2             	movslq %edx,%rdx
    2ef2:	48 c1 e2 05          	shl    $0x5,%rdx
    2ef6:	48 01 d0             	add    %rdx,%rax
    2ef9:	8b 40 10             	mov    0x10(%rax),%eax
    2efc:	39 85 54 ff ff ff    	cmp    %eax,-0xac(%rbp)
    2f02:	0f 85 3f 01 00 00    	jne    3047 <call+0x2e5>
    2f08:	48 8b 85 60 ff ff ff 	mov    -0xa0(%rbp),%rax
    2f0f:	48 8b 40 20          	mov    0x20(%rax),%rax
    2f13:	8b 95 70 ff ff ff    	mov    -0x90(%rbp),%edx
    2f19:	48 63 d2             	movslq %edx,%rdx
    2f1c:	48 c1 e2 05          	shl    $0x5,%rdx
    2f20:	48 01 d0             	add    %rdx,%rax
    2f23:	48 8b 00             	mov    (%rax),%rax
    2f26:	48 89 45 b0          	mov    %rax,-0x50(%rbp)
    2f2a:	48 8b 85 58 ff ff ff 	mov    -0xa8(%rbp),%rax
    2f31:	48 8b 48 10          	mov    0x10(%rax),%rcx
    2f35:	48 8b 85 58 ff ff ff 	mov    -0xa8(%rbp),%rax
    2f3c:	48 8b 10             	mov    (%rax),%rdx
    2f3f:	48 8b 85 60 ff ff ff 	mov    -0xa0(%rbp),%rax
    2f46:	48 8b 40 20          	mov    0x20(%rax),%rax
    2f4a:	8b b5 70 ff ff ff    	mov    -0x90(%rbp),%esi
    2f50:	48 63 f6             	movslq %esi,%rsi
    2f53:	48 c1 e6 05          	shl    $0x5,%rsi
    2f57:	48 01 f0             	add    %rsi,%rax
    2f5a:	8b 40 18             	mov    0x18(%rax),%eax
    2f5d:	89 c0                	mov    %eax,%eax
    2f5f:	48 29 c2             	sub    %rax,%rdx
    2f62:	48 89 d0             	mov    %rdx,%rax
    2f65:	48 01 c0             	add    %rax,%rax
    2f68:	48 01 d0             	add    %rdx,%rax
    2f6b:	48 c1 e0 03          	shl    $0x3,%rax
    2f6f:	48 01 c8             	add    %rcx,%rax
    2f72:	48 89 45 b8          	mov    %rax,-0x48(%rbp)
    2f76:	48 8b 85 60 ff ff ff 	mov    -0xa0(%rbp),%rax
    2f7d:	48 8b 40 20          	mov    0x20(%rax),%rax
    2f81:	8b 95 70 ff ff ff    	mov    -0x90(%rbp),%edx
    2f87:	48 63 d2             	movslq %edx,%rdx
    2f8a:	48 c1 e2 05          	shl    $0x5,%rdx
    2f8e:	48 01 d0             	add    %rdx,%rax
    2f91:	48 8b 40 08          	mov    0x8(%rax),%rax
    2f95:	48 89 45 c0          	mov    %rax,-0x40(%rbp)
    2f99:	48 8b 85 60 ff ff ff 	mov    -0xa0(%rbp),%rax
    2fa0:	48 8b 40 18          	mov    0x18(%rax),%rax
    2fa4:	48 89 45 c8          	mov    %rax,-0x38(%rbp)
    2fa8:	48 8b 85 60 ff ff ff 	mov    -0xa0(%rbp),%rax
    2faf:	48 8b 40 20          	mov    0x20(%rax),%rax
    2fb3:	48 89 45 d0          	mov    %rax,-0x30(%rbp)
    2fb7:	48 8b 85 60 ff ff ff 	mov    -0xa0(%rbp),%rax
    2fbe:	48 8b 40 28          	mov    0x28(%rax),%rax
    2fc2:	48 89 45 d8          	mov    %rax,-0x28(%rbp)
    2fc6:	48 8b 85 60 ff ff ff 	mov    -0xa0(%rbp),%rax
    2fcd:	48 8b 40 20          	mov    0x20(%rax),%rax
    2fd1:	8b 95 70 ff ff ff    	mov    -0x90(%rbp),%edx
    2fd7:	48 63 d2             	movslq %edx,%rdx
    2fda:	48 c1 e2 05          	shl    $0x5,%rdx
    2fde:	48 01 d0             	add    %rdx,%rax
    2fe1:	8b 40 14             	mov    0x14(%rax),%eax
    2fe4:	89 45 e0             	mov    %eax,-0x20(%rbp)
    2fe7:	48 8b 85 60 ff ff ff 	mov    -0xa0(%rbp),%rax
    2fee:	48 8b 40 20          	mov    0x20(%rax),%rax
    2ff2:	8b 95 70 ff ff ff    	mov    -0x90(%rbp),%edx
    2ff8:	48 63 d2             	movslq %edx,%rdx
    2ffb:	48 c1 e2 05          	shl    $0x5,%rdx
    2fff:	48 01 d0             	add    %rdx,%rax
    3002:	8b 40 18             	mov    0x18(%rax),%eax
    3005:	89 45 e4             	mov    %eax,-0x1c(%rbp)
    3008:	48 8b 85 60 ff ff ff 	mov    -0xa0(%rbp),%rax
    300f:	8b 40 38             	mov    0x38(%rax),%eax
    3012:	89 45 e8             	mov    %eax,-0x18(%rbp)
    3015:	48 8b 85 60 ff ff ff 	mov    -0xa0(%rbp),%rax
    301c:	8b 40 3c             	mov    0x3c(%rax),%eax
    301f:	89 45 ec             	mov    %eax,-0x14(%rbp)
    3022:	48 8b 85 60 ff ff ff 	mov    -0xa0(%rbp),%rax
    3029:	8b 40 40             	mov    0x40(%rax),%eax
    302c:	89 45 f0             	mov    %eax,-0x10(%rbp)
    302f:	48 8d 45 90          	lea    -0x70(%rbp),%rax
    3033:	48 8d 55 b0          	lea    -0x50(%rbp),%rdx
    3037:	48 89 d6             	mov    %rdx,%rsi
    303a:	48 89 c7             	mov    %rax,%rdi
    303d:	e8 ae 01 00 00       	call   31f0 <e_exec>
    3042:	e9 44 01 00 00       	jmp    318b <call+0x429>
    3047:	90                   	nop
    3048:	83 85 70 ff ff ff 01 	addl   $0x1,-0x90(%rbp)
    304f:	48 8b 85 60 ff ff ff 	mov    -0xa0(%rbp),%rax
    3056:	8b 40 3c             	mov    0x3c(%rax),%eax
    3059:	8b 95 70 ff ff ff    	mov    -0x90(%rbp),%edx
    305f:	39 c2                	cmp    %eax,%edx
    3061:	0f 82 77 fe ff ff    	jb     2ede <call+0x17c>
    3067:	c7 85 74 ff ff ff 00 	movl   $0x0,-0x8c(%rbp)
    306e:	00 00 00 
    3071:	e9 d0 00 00 00       	jmp    3146 <call+0x3e4>
    3076:	48 8b 85 60 ff ff ff 	mov    -0xa0(%rbp),%rax
    307d:	48 8b 40 28          	mov    0x28(%rax),%rax
    3081:	8b 95 74 ff ff ff    	mov    -0x8c(%rbp),%edx
    3087:	48 c1 e2 04          	shl    $0x4,%rdx
    308b:	48 01 d0             	add    %rdx,%rax
    308e:	8b 00                	mov    (%rax),%eax
    3090:	39 85 54 ff ff ff    	cmp    %eax,-0xac(%rbp)
    3096:	0f 85 a2 00 00 00    	jne    313e <call+0x3dc>
    309c:	48 8b 85 60 ff ff ff 	mov    -0xa0(%rbp),%rax
    30a3:	48 8b 40 28          	mov    0x28(%rax),%rax
    30a7:	8b 95 74 ff ff ff    	mov    -0x8c(%rbp),%edx
    30ad:	48 c1 e2 04          	shl    $0x4,%rdx
    30b1:	48 01 d0             	add    %rdx,%rax
    30b4:	48 8b 40 08          	mov    0x8(%rax),%rax
    30b8:	48 85 c0             	test   %rax,%rax
    30bb:	0f 84 c9 00 00 00    	je     318a <call+0x428>
    30c1:	48 8b 85 60 ff ff ff 	mov    -0xa0(%rbp),%rax
    30c8:	48 8b 40 28          	mov    0x28(%rax),%rax
    30cc:	8b 95 74 ff ff ff    	mov    -0x8c(%rbp),%edx
    30d2:	48 c1 e2 04          	shl    $0x4,%rdx
    30d6:	48 01 d0             	add    %rdx,%rax
    30d9:	48 8b 48 08          	mov    0x8(%rax),%rcx
    30dd:	48 8b 85 58 ff ff ff 	mov    -0xa8(%rbp),%rax
    30e4:	48 8b 70 10          	mov    0x10(%rax),%rsi
    30e8:	48 8b 85 58 ff ff ff 	mov    -0xa8(%rbp),%rax
    30ef:	48 8b 10             	mov    (%rax),%rdx
    30f2:	8b 85 50 ff ff ff    	mov    -0xb0(%rbp),%eax
    30f8:	48 29 c2             	sub    %rax,%rdx
    30fb:	48 89 d0             	mov    %rdx,%rax
    30fe:	48 01 c0             	add    %rax,%rax
    3101:	48 01 d0             	add    %rdx,%rax
    3104:	48 c1 e0 03          	shl    $0x3,%rax
    3108:	48 8d 14 06          	lea    (%rsi,%rax,1),%rdx
    310c:	48 8d 85 30 ff ff ff 	lea    -0xd0(%rbp),%rax
    3113:	48 89 d6             	mov    %rdx,%rsi
    3116:	48 89 c7             	mov    %rax,%rdi
    3119:	ff d1                	call   *%rcx
    311b:	48 8b 85 30 ff ff ff 	mov    -0xd0(%rbp),%rax
    3122:	48 8b 95 38 ff ff ff 	mov    -0xc8(%rbp),%rdx
    3129:	48 89 45 90          	mov    %rax,-0x70(%rbp)
    312d:	48 89 55 98          	mov    %rdx,-0x68(%rbp)
    3131:	48 8b 85 40 ff ff ff 	mov    -0xc0(%rbp),%rax
    3138:	48 89 45 a0          	mov    %rax,-0x60(%rbp)
    313c:	eb 4c                	jmp    318a <call+0x428>
    313e:	90                   	nop
    313f:	83 85 74 ff ff ff 01 	addl   $0x1,-0x8c(%rbp)
    3146:	48 8b 85 60 ff ff ff 	mov    -0xa0(%rbp),%rax
    314d:	8b 40 40             	mov    0x40(%rax),%eax
    3150:	39 85 74 ff ff ff    	cmp    %eax,-0x8c(%rbp)
    3156:	0f 82 1a ff ff ff    	jb     3076 <call+0x314>
    315c:	48 8b 05 bd af 00 00 	mov    0xafbd(%rip),%rax        # e120 <stderr@GLIBC_2.2.5>
    3163:	8b 95 54 ff ff ff    	mov    -0xac(%rbp),%edx
    3169:	48 8d 0d a6 7e 00 00 	lea    0x7ea6(%rip),%rcx        # b016 <_IO_stdin_used+0x16>
    3170:	48 89 ce             	mov    %rcx,%rsi
    3173:	48 89 c7             	mov    %rax,%rdi
    3176:	b8 00 00 00 00       	mov    $0x0,%eax
    317b:	e8 90 df ff ff       	call   1110 <fprintf@plt>
    3180:	bf ff ff ff ff       	mov    $0xffffffff,%edi
    3185:	e8 16 e0 ff ff       	call   11a0 <exit@plt>
    318a:	90                   	nop
    318b:	48 c7 45 88 00 00 00 	movq   $0x0,-0x78(%rbp)
    3192:	00 
    3193:	eb 14                	jmp    31a9 <call+0x447>
    3195:	48 8b 85 58 ff ff ff 	mov    -0xa8(%rbp),%rax
    319c:	48 89 c7             	mov    %rax,%rdi
    319f:	e8 45 fb ff ff       	call   2ce9 <stack_pop>
    31a4:	48 83 45 88 01       	addq   $0x1,-0x78(%rbp)
    31a9:	8b 85 50 ff ff ff    	mov    -0xb0(%rbp),%eax
    31af:	48 39 45 88          	cmp    %rax,-0x78(%rbp)
    31b3:	72 e0                	jb     3195 <call+0x433>
    31b5:	48 8b 8d 68 ff ff ff 	mov    -0x98(%rbp),%rcx
    31bc:	48 8b 45 90          	mov    -0x70(%rbp),%rax
    31c0:	48 8b 55 98          	mov    -0x68(%rbp),%rdx
    31c4:	48 89 01             	mov    %rax,(%rcx)
    31c7:	48 89 51 08          	mov    %rdx,0x8(%rcx)
    31cb:	48 8b 45 a0          	mov    -0x60(%rbp),%rax
    31cf:	48 89 41 10          	mov    %rax,0x10(%rcx)
    31d3:	48 8b 45 f8          	mov    -0x8(%rbp),%rax
    31d7:	64 48 2b 04 25 28 00 	sub    %fs:0x28,%rax
    31de:	00 00 
    31e0:	74 05                	je     31e7 <call+0x485>
    31e2:	e8 a9 de ff ff       	call   1090 <__stack_chk_fail@plt>
    31e7:	48 8b 85 68 ff ff ff 	mov    -0x98(%rbp),%rax
    31ee:	c9                   	leave
    31ef:	c3                   	ret

00000000000031f0 <e_exec>:
    31f0:	55                   	push   %rbp
    31f1:	48 89 e5             	mov    %rsp,%rbp
    31f4:	53                   	push   %rbx
    31f5:	48 81 ec 58 01 00 00 	sub    $0x158,%rsp
    31fc:	48 89 bd a8 fe ff ff 	mov    %rdi,-0x158(%rbp)
    3203:	48 89 b5 a0 fe ff ff 	mov    %rsi,-0x160(%rbp)
    320a:	64 48 8b 04 25 28 00 	mov    %fs:0x28,%rax
    3211:	00 00 
    3213:	48 89 45 e8          	mov    %rax,-0x18(%rbp)
    3217:	31 c0                	xor    %eax,%eax
    3219:	48 8d 45 90          	lea    -0x70(%rbp),%rax
    321d:	48 89 c7             	mov    %rax,%rdi
    3220:	e8 69 f9 ff ff       	call   2b8e <stack_init>
    3225:	89 85 c0 fe ff ff    	mov    %eax,-0x140(%rbp)
    322b:	83 bd c0 fe ff ff 00 	cmpl   $0x0,-0x140(%rbp)
    3232:	74 30                	je     3264 <e_exec+0x74>
    3234:	e8 a0 e0 ff ff       	call   12d9 <e_refc_init>
    3239:	48 8b 95 a8 fe ff ff 	mov    -0x158(%rbp),%rdx
    3240:	c7 02 01 00 00 00    	movl   $0x1,(%rdx)
    3246:	48 8b 95 a8 fe ff ff 	mov    -0x158(%rbp),%rdx
    324d:	48 89 42 08          	mov    %rax,0x8(%rdx)
    3251:	48 8b 85 a8 fe ff ff 	mov    -0x158(%rbp),%rax
    3258:	c7 40 10 ff ff ff ff 	movl   $0xffffffff,0x10(%rax)
    325f:	e9 b1 10 00 00       	jmp    4315 <e_exec+0x1125>
    3264:	48 c7 85 e8 fe ff ff 	movq   $0x4,-0x118(%rbp)
    326b:	04 00 00 00 
    326f:	48 c7 85 f0 fe ff ff 	movq   $0x0,-0x110(%rbp)
    3276:	00 00 00 00 
    327a:	48 8b 85 e8 fe ff ff 	mov    -0x118(%rbp),%rax
    3281:	be 10 00 00 00       	mov    $0x10,%esi
    3286:	48 89 c7             	mov    %rax,%rdi
    3289:	e8 72 de ff ff       	call   1100 <calloc@plt>
    328e:	48 89 85 f8 fe ff ff 	mov    %rax,-0x108(%rbp)
    3295:	48 c7 85 00 ff ff ff 	movq   $0x0,-0x100(%rbp)
    329c:	00 00 00 00 
    32a0:	e9 73 01 00 00       	jmp    3418 <e_exec+0x228>
    32a5:	48 8b 85 f0 fe ff ff 	mov    -0x110(%rbp),%rax
    32ac:	48 3b 85 e8 fe ff ff 	cmp    -0x118(%rbp),%rax
    32b3:	0f 82 8a 00 00 00    	jb     3343 <e_exec+0x153>
    32b9:	48 8b 85 e8 fe ff ff 	mov    -0x118(%rbp),%rax
    32c0:	48 01 c0             	add    %rax,%rax
    32c3:	48 89 45 80          	mov    %rax,-0x80(%rbp)
    32c7:	48 8b 45 80          	mov    -0x80(%rbp),%rax
    32cb:	48 c1 e0 04          	shl    $0x4,%rax
    32cf:	48 89 c2             	mov    %rax,%rdx
    32d2:	48 8b 85 f8 fe ff ff 	mov    -0x108(%rbp),%rax
    32d9:	48 89 d6             	mov    %rdx,%rsi
    32dc:	48 89 c7             	mov    %rax,%rdi
    32df:	e8 7c de ff ff       	call   1160 <realloc@plt>
    32e4:	48 89 45 88          	mov    %rax,-0x78(%rbp)
    32e8:	48 83 7d 88 00       	cmpq   $0x0,-0x78(%rbp)
    32ed:	75 0a                	jne    32f9 <e_exec+0x109>
    32ef:	bf ff ff ff ff       	mov    $0xffffffff,%edi
    32f4:	e8 a7 de ff ff       	call   11a0 <exit@plt>
    32f9:	48 8b 45 80          	mov    -0x80(%rbp),%rax
    32fd:	48 2b 85 f0 fe ff ff 	sub    -0x110(%rbp),%rax
    3304:	48 c1 e0 04          	shl    $0x4,%rax
    3308:	48 89 c2             	mov    %rax,%rdx
    330b:	48 8b 85 f0 fe ff ff 	mov    -0x110(%rbp),%rax
    3312:	48 c1 e0 04          	shl    $0x4,%rax
    3316:	48 89 c1             	mov    %rax,%rcx
    3319:	48 8b 45 88          	mov    -0x78(%rbp),%rax
    331d:	48 01 c8             	add    %rcx,%rax
    3320:	be 00 00 00 00       	mov    $0x0,%esi
    3325:	48 89 c7             	mov    %rax,%rdi
    3328:	e8 b3 dd ff ff       	call   10e0 <memset@plt>
    332d:	48 8b 45 88          	mov    -0x78(%rbp),%rax
    3331:	48 89 85 f8 fe ff ff 	mov    %rax,-0x108(%rbp)
    3338:	48 8b 45 80          	mov    -0x80(%rbp),%rax
    333c:	48 89 85 e8 fe ff ff 	mov    %rax,-0x118(%rbp)
    3343:	48 8b 85 a0 fe ff ff 	mov    -0x160(%rbp),%rax
    334a:	48 8b 40 10          	mov    0x10(%rax),%rax
    334e:	48 8b 95 00 ff ff ff 	mov    -0x100(%rbp),%rdx
    3355:	48 c1 e2 02          	shl    $0x2,%rdx
    3359:	48 01 d0             	add    %rdx,%rax
    335c:	48 8b 95 f0 fe ff ff 	mov    -0x110(%rbp),%rdx
    3363:	48 89 d1             	mov    %rdx,%rcx
    3366:	48 c1 e1 04          	shl    $0x4,%rcx
    336a:	48 8b 95 f8 fe ff ff 	mov    -0x108(%rbp),%rdx
    3371:	48 01 ca             	add    %rcx,%rdx
    3374:	8b 00                	mov    (%rax),%eax
    3376:	89 42 08             	mov    %eax,0x8(%rdx)
    3379:	48 8b 85 f0 fe ff ff 	mov    -0x110(%rbp),%rax
    3380:	48 c1 e0 04          	shl    $0x4,%rax
    3384:	48 89 c2             	mov    %rax,%rdx
    3387:	48 8b 85 f8 fe ff ff 	mov    -0x108(%rbp),%rax
    338e:	48 01 c2             	add    %rax,%rdx
    3391:	48 8b 85 00 ff ff ff 	mov    -0x100(%rbp),%rax
    3398:	48 89 02             	mov    %rax,(%rdx)
    339b:	48 83 85 f0 fe ff ff 	addq   $0x1,-0x110(%rbp)
    33a2:	01 
    33a3:	48 8b 85 a0 fe ff ff 	mov    -0x160(%rbp),%rax
    33aa:	48 8b 48 08          	mov    0x8(%rax),%rcx
    33ae:	48 8b 95 00 ff ff ff 	mov    -0x100(%rbp),%rdx
    33b5:	48 89 d0             	mov    %rdx,%rax
    33b8:	48 01 c0             	add    %rax,%rax
    33bb:	48 01 d0             	add    %rdx,%rax
    33be:	48 c1 e0 03          	shl    $0x3,%rax
    33c2:	48 8d 14 01          	lea    (%rcx,%rax,1),%rdx
    33c6:	48 8d 45 d0          	lea    -0x30(%rbp),%rax
    33ca:	48 89 c6             	mov    %rax,%rsi
    33cd:	48 89 d7             	mov    %rdx,%rdi
    33d0:	e8 da 69 00 00       	call   9daf <e_var_shallow_cpy>
    33d5:	e8 ff de ff ff       	call   12d9 <e_refc_init>
    33da:	48 89 45 d8          	mov    %rax,-0x28(%rbp)
    33de:	48 8d 75 90          	lea    -0x70(%rbp),%rsi
    33e2:	48 83 ec 08          	sub    $0x8,%rsp
    33e6:	48 83 ec 18          	sub    $0x18,%rsp
    33ea:	48 89 e1             	mov    %rsp,%rcx
    33ed:	48 8b 45 d0          	mov    -0x30(%rbp),%rax
    33f1:	48 8b 55 d8          	mov    -0x28(%rbp),%rdx
    33f5:	48 89 01             	mov    %rax,(%rcx)
    33f8:	48 89 51 08          	mov    %rdx,0x8(%rcx)
    33fc:	48 8b 45 e0          	mov    -0x20(%rbp),%rax
    3400:	48 89 41 10          	mov    %rax,0x10(%rcx)
    3404:	48 89 f7             	mov    %rsi,%rdi
    3407:	e8 0b f8 ff ff       	call   2c17 <stack_push>
    340c:	48 83 c4 20          	add    $0x20,%rsp
    3410:	48 83 85 00 ff ff ff 	addq   $0x1,-0x100(%rbp)
    3417:	01 
    3418:	48 8b 85 a0 fe ff ff 	mov    -0x160(%rbp),%rax
    341f:	8b 40 34             	mov    0x34(%rax),%eax
    3422:	89 c0                	mov    %eax,%eax
    3424:	48 39 85 00 ff ff ff 	cmp    %rax,-0x100(%rbp)
    342b:	0f 82 74 fe ff ff    	jb     32a5 <e_exec+0xb5>
    3431:	48 8b 85 a0 fe ff ff 	mov    -0x160(%rbp),%rax
    3438:	48 8b 00             	mov    (%rax),%rax
    343b:	48 89 85 e0 fe ff ff 	mov    %rax,-0x120(%rbp)
    3442:	48 8b 85 a0 fe ff ff 	mov    -0x160(%rbp),%rax
    3449:	48 8b 10             	mov    (%rax),%rdx
    344c:	48 8b 85 a0 fe ff ff 	mov    -0x160(%rbp),%rax
    3453:	8b 40 30             	mov    0x30(%rax),%eax
    3456:	89 c0                	mov    %eax,%eax
    3458:	48 01 d0             	add    %rdx,%rax
    345b:	48 89 85 50 ff ff ff 	mov    %rax,-0xb0(%rbp)
    3462:	48 c7 85 08 ff ff ff 	movq   $0x0,-0xf8(%rbp)
    3469:	00 00 00 00 
    346d:	e9 09 0e 00 00       	jmp    427b <e_exec+0x108b>
    3472:	48 8b 85 e0 fe ff ff 	mov    -0x120(%rbp),%rax
    3479:	0f b6 00             	movzbl (%rax),%eax
    347c:	88 85 b5 fe ff ff    	mov    %al,-0x14b(%rbp)
    3482:	48 8b 85 e0 fe ff ff 	mov    -0x120(%rbp),%rax
    3489:	48 83 c0 01          	add    $0x1,%rax
    348d:	48 89 85 e0 fe ff ff 	mov    %rax,-0x120(%rbp)
    3494:	48 8b 85 e0 fe ff ff 	mov    -0x120(%rbp),%rax
    349b:	0f b6 00             	movzbl (%rax),%eax
    349e:	88 85 b6 fe ff ff    	mov    %al,-0x14a(%rbp)
    34a4:	48 8b 85 e0 fe ff ff 	mov    -0x120(%rbp),%rax
    34ab:	48 83 c0 01          	add    $0x1,%rax
    34af:	48 89 85 e0 fe ff ff 	mov    %rax,-0x120(%rbp)
    34b6:	0f b6 85 b5 fe ff ff 	movzbl -0x14b(%rbp),%eax
    34bd:	83 f8 25             	cmp    $0x25,%eax
    34c0:	0f 84 8d 0d 00 00    	je     4253 <e_exec+0x1063>
    34c6:	83 f8 25             	cmp    $0x25,%eax
    34c9:	0f 87 cb 0c 00 00    	ja     419a <e_exec+0xfaa>
    34cf:	83 f8 24             	cmp    $0x24,%eax
    34d2:	0f 84 db 0c 00 00    	je     41b3 <e_exec+0xfc3>
    34d8:	83 f8 24             	cmp    $0x24,%eax
    34db:	0f 87 b9 0c 00 00    	ja     419a <e_exec+0xfaa>
    34e1:	83 f8 23             	cmp    $0x23,%eax
    34e4:	0f 84 58 0c 00 00    	je     4142 <e_exec+0xf52>
    34ea:	83 f8 23             	cmp    $0x23,%eax
    34ed:	0f 87 a7 0c 00 00    	ja     419a <e_exec+0xfaa>
    34f3:	83 f8 22             	cmp    $0x22,%eax
    34f6:	0f 84 36 0c 00 00    	je     4132 <e_exec+0xf42>
    34fc:	83 f8 22             	cmp    $0x22,%eax
    34ff:	0f 87 95 0c 00 00    	ja     419a <e_exec+0xfaa>
    3505:	83 f8 21             	cmp    $0x21,%eax
    3508:	0f 84 0e 06 00 00    	je     3b1c <e_exec+0x92c>
    350e:	83 f8 21             	cmp    $0x21,%eax
    3511:	0f 87 83 0c 00 00    	ja     419a <e_exec+0xfaa>
    3517:	83 f8 20             	cmp    $0x20,%eax
    351a:	0f 84 87 05 00 00    	je     3aa7 <e_exec+0x8b7>
    3520:	83 f8 20             	cmp    $0x20,%eax
    3523:	0f 87 71 0c 00 00    	ja     419a <e_exec+0xfaa>
    3529:	83 f8 1d             	cmp    $0x1d,%eax
    352c:	0f 84 5f 06 00 00    	je     3b91 <e_exec+0x9a1>
    3532:	83 f8 1d             	cmp    $0x1d,%eax
    3535:	0f 87 5f 0c 00 00    	ja     419a <e_exec+0xfaa>
    353b:	83 f8 1c             	cmp    $0x1c,%eax
    353e:	0f 84 e8 00 00 00    	je     362c <e_exec+0x43c>
    3544:	83 f8 1c             	cmp    $0x1c,%eax
    3547:	0f 87 4d 0c 00 00    	ja     419a <e_exec+0xfaa>
    354d:	83 f8 1b             	cmp    $0x1b,%eax
    3550:	0f 84 65 06 00 00    	je     3bbb <e_exec+0x9cb>
    3556:	83 f8 1b             	cmp    $0x1b,%eax
    3559:	0f 87 3b 0c 00 00    	ja     419a <e_exec+0xfaa>
    355f:	83 f8 1a             	cmp    $0x1a,%eax
    3562:	0f 84 70 09 00 00    	je     3ed8 <e_exec+0xce8>
    3568:	83 f8 1a             	cmp    $0x1a,%eax
    356b:	0f 87 29 0c 00 00    	ja     419a <e_exec+0xfaa>
    3571:	83 f8 19             	cmp    $0x19,%eax
    3574:	0f 84 55 08 00 00    	je     3dcf <e_exec+0xbdf>
    357a:	83 f8 19             	cmp    $0x19,%eax
    357d:	0f 87 17 0c 00 00    	ja     419a <e_exec+0xfaa>
    3583:	83 f8 18             	cmp    $0x18,%eax
    3586:	0f 84 4b 01 00 00    	je     36d7 <e_exec+0x4e7>
    358c:	83 f8 18             	cmp    $0x18,%eax
    358f:	0f 87 05 0c 00 00    	ja     419a <e_exec+0xfaa>
    3595:	83 f8 17             	cmp    $0x17,%eax
    3598:	0f 84 4b 0a 00 00    	je     3fe9 <e_exec+0xdf9>
    359e:	83 f8 17             	cmp    $0x17,%eax
    35a1:	0f 87 f3 0b 00 00    	ja     419a <e_exec+0xfaa>
    35a7:	83 f8 16             	cmp    $0x16,%eax
    35aa:	0f 84 93 00 00 00    	je     3643 <e_exec+0x453>
    35b0:	83 f8 16             	cmp    $0x16,%eax
    35b3:	0f 87 e1 0b 00 00    	ja     419a <e_exec+0xfaa>
    35b9:	83 f8 15             	cmp    $0x15,%eax
    35bc:	0f 87 d8 0b 00 00    	ja     419a <e_exec+0xfaa>
    35c2:	83 f8 14             	cmp    $0x14,%eax
    35c5:	0f 83 a2 02 00 00    	jae    386d <e_exec+0x67d>
    35cb:	83 f8 13             	cmp    $0x13,%eax
    35ce:	0f 87 c6 0b 00 00    	ja     419a <e_exec+0xfaa>
    35d4:	83 f8 0e             	cmp    $0xe,%eax
    35d7:	0f 83 b3 01 00 00    	jae    3790 <e_exec+0x5a0>
    35dd:	83 f8 0d             	cmp    $0xd,%eax
    35e0:	0f 84 02 04 00 00    	je     39e8 <e_exec+0x7f8>
    35e6:	83 f8 0d             	cmp    $0xd,%eax
    35e9:	0f 87 ab 0b 00 00    	ja     419a <e_exec+0xfaa>
    35ef:	83 f8 0c             	cmp    $0xc,%eax
    35f2:	0f 87 a2 0b 00 00    	ja     419a <e_exec+0xfaa>
    35f8:	83 f8 0a             	cmp    $0xa,%eax
    35fb:	0f 83 8f 01 00 00    	jae    3790 <e_exec+0x5a0>
    3601:	83 f8 09             	cmp    $0x9,%eax
    3604:	0f 84 de 03 00 00    	je     39e8 <e_exec+0x7f8>
    360a:	83 f8 09             	cmp    $0x9,%eax
    360d:	0f 87 87 0b 00 00    	ja     419a <e_exec+0xfaa>
    3613:	85 c0                	test   %eax,%eax
    3615:	0f 84 56 0c 00 00    	je     4271 <e_exec+0x1081>
    361b:	83 e8 01             	sub    $0x1,%eax
    361e:	83 f8 07             	cmp    $0x7,%eax
    3621:	0f 87 73 0b 00 00    	ja     419a <e_exec+0xfaa>
    3627:	e9 64 01 00 00       	jmp    3790 <e_exec+0x5a0>
    362c:	48 8b 85 e0 fe ff ff 	mov    -0x120(%rbp),%rax
    3633:	48 83 c0 04          	add    $0x4,%rax
    3637:	48 89 85 e0 fe ff ff 	mov    %rax,-0x120(%rbp)
    363e:	e9 38 0c 00 00       	jmp    427b <e_exec+0x108b>
    3643:	48 8d 85 e0 fe ff ff 	lea    -0x120(%rbp),%rax
    364a:	48 89 c7             	mov    %rax,%rdi
    364d:	e8 9a dd ff ff       	call   13ec <e_read_u32>
    3652:	89 85 d8 fe ff ff    	mov    %eax,-0x128(%rbp)
    3658:	48 8d 85 e0 fe ff ff 	lea    -0x120(%rbp),%rax
    365f:	48 89 c7             	mov    %rax,%rdi
    3662:	e8 b0 dd ff ff       	call   1417 <e_read_u16>
    3667:	66 89 85 ba fe ff ff 	mov    %ax,-0x146(%rbp)
    366e:	0f b7 bd ba fe ff ff 	movzwl -0x146(%rbp),%edi
    3675:	48 8d 45 d0          	lea    -0x30(%rbp),%rax
    3679:	8b 8d d8 fe ff ff    	mov    -0x128(%rbp),%ecx
    367f:	48 8d 55 90          	lea    -0x70(%rbp),%rdx
    3683:	48 8b b5 a0 fe ff ff 	mov    -0x160(%rbp),%rsi
    368a:	41 89 f8             	mov    %edi,%r8d
    368d:	48 89 c7             	mov    %rax,%rdi
    3690:	e8 cd f6 ff ff       	call   2d62 <call>
    3695:	8b 45 d0             	mov    -0x30(%rbp),%eax
    3698:	85 c0                	test   %eax,%eax
    369a:	0f 84 d4 0b 00 00    	je     4274 <e_exec+0x1084>
    36a0:	48 8d 75 90          	lea    -0x70(%rbp),%rsi
    36a4:	48 83 ec 08          	sub    $0x8,%rsp
    36a8:	48 83 ec 18          	sub    $0x18,%rsp
    36ac:	48 89 e1             	mov    %rsp,%rcx
    36af:	48 8b 45 d0          	mov    -0x30(%rbp),%rax
    36b3:	48 8b 55 d8          	mov    -0x28(%rbp),%rdx
    36b7:	48 89 01             	mov    %rax,(%rcx)
    36ba:	48 89 51 08          	mov    %rdx,0x8(%rcx)
    36be:	48 8b 45 e0          	mov    -0x20(%rbp),%rax
    36c2:	48 89 41 10          	mov    %rax,0x10(%rcx)
    36c6:	48 89 f7             	mov    %rsi,%rdi
    36c9:	e8 49 f5 ff ff       	call   2c17 <stack_push>
    36ce:	48 83 c4 20          	add    $0x20,%rsp
    36d2:	e9 9d 0b 00 00       	jmp    4274 <e_exec+0x1084>
    36d7:	48 8d 85 e0 fe ff ff 	lea    -0x120(%rbp),%rax
    36de:	48 89 c7             	mov    %rax,%rdi
    36e1:	e8 31 dd ff ff       	call   1417 <e_read_u16>
    36e6:	66 89 85 b8 fe ff ff 	mov    %ax,-0x148(%rbp)
    36ed:	0f b7 95 b8 fe ff ff 	movzwl -0x148(%rbp),%edx
    36f4:	48 8b 85 a0 fe ff ff 	mov    -0x160(%rbp),%rax
    36fb:	8b 40 38             	mov    0x38(%rax),%eax
    36fe:	39 c2                	cmp    %eax,%edx
    3700:	72 25                	jb     3727 <e_exec+0x537>
    3702:	48 8d 15 6a 79 00 00 	lea    0x796a(%rip),%rdx        # b073 <__PRETTY_FUNCTION__.0>
    3709:	48 8d 35 1f 79 00 00 	lea    0x791f(%rip),%rsi        # b02f <_IO_stdin_used+0x2f>
    3710:	48 8d 05 1f 79 00 00 	lea    0x791f(%rip),%rax        # b036 <_IO_stdin_used+0x36>
    3717:	48 89 d1             	mov    %rdx,%rcx
    371a:	ba 1f 01 00 00       	mov    $0x11f,%edx
    371f:	48 89 c7             	mov    %rax,%rdi
    3722:	e8 89 d9 ff ff       	call   10b0 <__assert_fail@plt>
    3727:	48 8b 85 a0 fe ff ff 	mov    -0x160(%rbp),%rax
    372e:	48 8b 48 18          	mov    0x18(%rax),%rcx
    3732:	0f b7 95 b8 fe ff ff 	movzwl -0x148(%rbp),%edx
    3739:	48 89 d0             	mov    %rdx,%rax
    373c:	48 01 c0             	add    %rax,%rax
    373f:	48 01 d0             	add    %rdx,%rax
    3742:	48 c1 e0 03          	shl    $0x3,%rax
    3746:	48 8d 14 01          	lea    (%rcx,%rax,1),%rdx
    374a:	48 8d 45 d0          	lea    -0x30(%rbp),%rax
    374e:	48 89 c6             	mov    %rax,%rsi
    3751:	48 89 d7             	mov    %rdx,%rdi
    3754:	e8 aa 66 00 00       	call   9e03 <e_var_deep_cpy>
    3759:	48 8d 75 90          	lea    -0x70(%rbp),%rsi
    375d:	48 83 ec 08          	sub    $0x8,%rsp
    3761:	48 83 ec 18          	sub    $0x18,%rsp
    3765:	48 89 e1             	mov    %rsp,%rcx
    3768:	48 8b 45 d0          	mov    -0x30(%rbp),%rax
    376c:	48 8b 55 d8          	mov    -0x28(%rbp),%rdx
    3770:	48 89 01             	mov    %rax,(%rcx)
    3773:	48 89 51 08          	mov    %rdx,0x8(%rcx)
    3777:	48 8b 45 e0          	mov    -0x20(%rbp),%rax
    377b:	48 89 41 10          	mov    %rax,0x10(%rcx)
    377f:	48 89 f7             	mov    %rsi,%rdi
    3782:	e8 90 f4 ff ff       	call   2c17 <stack_push>
    3787:	48 83 c4 20          	add    $0x20,%rsp
    378b:	e9 eb 0a 00 00       	jmp    427b <e_exec+0x108b>
    3790:	44 0f b6 8d b5 fe ff 	movzbl -0x14b(%rbp),%r9d
    3797:	ff 
    3798:	48 8b 4d a0          	mov    -0x60(%rbp),%rcx
    379c:	48 8b 55 90          	mov    -0x70(%rbp),%rdx
    37a0:	48 89 d0             	mov    %rdx,%rax
    37a3:	48 01 c0             	add    %rax,%rax
    37a6:	48 01 d0             	add    %rdx,%rax
    37a9:	48 c1 e0 03          	shl    $0x3,%rax
    37ad:	48 83 e8 18          	sub    $0x18,%rax
    37b1:	48 8d 34 01          	lea    (%rcx,%rax,1),%rsi
    37b5:	48 8b 4d a0          	mov    -0x60(%rbp),%rcx
    37b9:	48 8b 55 90          	mov    -0x70(%rbp),%rdx
    37bd:	48 89 d0             	mov    %rdx,%rax
    37c0:	48 01 c0             	add    %rax,%rax
    37c3:	48 01 d0             	add    %rdx,%rax
    37c6:	48 c1 e0 03          	shl    $0x3,%rax
    37ca:	48 83 e8 30          	sub    $0x30,%rax
    37ce:	48 01 c1             	add    %rax,%rcx
    37d1:	4c 8d 45 d0          	lea    -0x30(%rbp),%r8
    37d5:	48 83 ec 18          	sub    $0x18,%rsp
    37d9:	48 89 e7             	mov    %rsp,%rdi
    37dc:	48 8b 06             	mov    (%rsi),%rax
    37df:	48 8b 56 08          	mov    0x8(%rsi),%rdx
    37e3:	48 89 07             	mov    %rax,(%rdi)
    37e6:	48 89 57 08          	mov    %rdx,0x8(%rdi)
    37ea:	48 8b 46 10          	mov    0x10(%rsi),%rax
    37ee:	48 89 47 10          	mov    %rax,0x10(%rdi)
    37f2:	48 83 ec 18          	sub    $0x18,%rsp
    37f6:	48 89 e6             	mov    %rsp,%rsi
    37f9:	48 8b 01             	mov    (%rcx),%rax
    37fc:	48 8b 51 08          	mov    0x8(%rcx),%rdx
    3800:	48 89 06             	mov    %rax,(%rsi)
    3803:	48 89 56 08          	mov    %rdx,0x8(%rsi)
    3807:	48 8b 41 10          	mov    0x10(%rcx),%rax
    380b:	48 89 46 10          	mov    %rax,0x10(%rsi)
    380f:	44 89 ce             	mov    %r9d,%esi
    3812:	4c 89 c7             	mov    %r8,%rdi
    3815:	e8 1a dd ff ff       	call   1534 <operate>
    381a:	48 83 c4 30          	add    $0x30,%rsp
    381e:	48 8d 45 90          	lea    -0x70(%rbp),%rax
    3822:	48 89 c7             	mov    %rax,%rdi
    3825:	e8 bf f4 ff ff       	call   2ce9 <stack_pop>
    382a:	48 8d 45 90          	lea    -0x70(%rbp),%rax
    382e:	48 89 c7             	mov    %rax,%rdi
    3831:	e8 b3 f4 ff ff       	call   2ce9 <stack_pop>
    3836:	48 8d 75 90          	lea    -0x70(%rbp),%rsi
    383a:	48 83 ec 08          	sub    $0x8,%rsp
    383e:	48 83 ec 18          	sub    $0x18,%rsp
    3842:	48 89 e1             	mov    %rsp,%rcx
    3845:	48 8b 45 d0          	mov    -0x30(%rbp),%rax
    3849:	48 8b 55 d8          	mov    -0x28(%rbp),%rdx
    384d:	48 89 01             	mov    %rax,(%rcx)
    3850:	48 89 51 08          	mov    %rdx,0x8(%rcx)
    3854:	48 8b 45 e0          	mov    -0x20(%rbp),%rax
    3858:	48 89 41 10          	mov    %rax,0x10(%rcx)
    385c:	48 89 f7             	mov    %rsi,%rdi
    385f:	e8 b3 f3 ff ff       	call   2c17 <stack_push>
    3864:	48 83 c4 20          	add    $0x20,%rsp
    3868:	e9 0e 0a 00 00       	jmp    427b <e_exec+0x108b>
    386d:	48 c7 85 10 ff ff ff 	movq   $0x0,-0xf0(%rbp)
    3874:	00 00 00 00 
    3878:	48 8d 85 e0 fe ff ff 	lea    -0x120(%rbp),%rax
    387f:	48 89 c7             	mov    %rax,%rdi
    3882:	e8 65 db ff ff       	call   13ec <e_read_u32>
    3887:	89 85 dc fe ff ff    	mov    %eax,-0x124(%rbp)
    388d:	48 c7 85 18 ff ff ff 	movq   $0x0,-0xe8(%rbp)
    3894:	00 00 00 00 
    3898:	eb 7c                	jmp    3916 <e_exec+0x726>
    389a:	48 8b 85 f0 fe ff ff 	mov    -0x110(%rbp),%rax
    38a1:	48 2b 85 18 ff ff ff 	sub    -0xe8(%rbp),%rax
    38a8:	48 83 e8 01          	sub    $0x1,%rax
    38ac:	48 89 85 78 ff ff ff 	mov    %rax,-0x88(%rbp)
    38b3:	48 8b 85 78 ff ff ff 	mov    -0x88(%rbp),%rax
    38ba:	48 c1 e0 04          	shl    $0x4,%rax
    38be:	48 89 c2             	mov    %rax,%rdx
    38c1:	48 8b 85 f8 fe ff ff 	mov    -0x108(%rbp),%rax
    38c8:	48 01 d0             	add    %rdx,%rax
    38cb:	8b 40 08             	mov    0x8(%rax),%eax
    38ce:	39 85 dc fe ff ff    	cmp    %eax,-0x124(%rbp)
    38d4:	75 38                	jne    390e <e_exec+0x71e>
    38d6:	48 8b 4d a0          	mov    -0x60(%rbp),%rcx
    38da:	48 8b 85 78 ff ff ff 	mov    -0x88(%rbp),%rax
    38e1:	48 c1 e0 04          	shl    $0x4,%rax
    38e5:	48 89 c2             	mov    %rax,%rdx
    38e8:	48 8b 85 f8 fe ff ff 	mov    -0x108(%rbp),%rax
    38ef:	48 01 d0             	add    %rdx,%rax
    38f2:	48 8b 10             	mov    (%rax),%rdx
    38f5:	48 89 d0             	mov    %rdx,%rax
    38f8:	48 01 c0             	add    %rax,%rax
    38fb:	48 01 d0             	add    %rdx,%rax
    38fe:	48 c1 e0 03          	shl    $0x3,%rax
    3902:	48 01 c8             	add    %rcx,%rax
    3905:	48 89 85 10 ff ff ff 	mov    %rax,-0xf0(%rbp)
    390c:	eb 1c                	jmp    392a <e_exec+0x73a>
    390e:	48 83 85 18 ff ff ff 	addq   $0x1,-0xe8(%rbp)
    3915:	01 
    3916:	48 8b 85 18 ff ff ff 	mov    -0xe8(%rbp),%rax
    391d:	48 3b 85 f0 fe ff ff 	cmp    -0x110(%rbp),%rax
    3924:	0f 82 70 ff ff ff    	jb     389a <e_exec+0x6aa>
    392a:	48 83 bd 10 ff ff ff 	cmpq   $0x0,-0xf0(%rbp)
    3931:	00 
    3932:	75 0a                	jne    393e <e_exec+0x74e>
    3934:	bf ff ff ff ff       	mov    $0xffffffff,%edi
    3939:	e8 62 d8 ff ff       	call   11a0 <exit@plt>
    393e:	48 8b 85 10 ff ff ff 	mov    -0xf0(%rbp),%rax
    3945:	8b 00                	mov    (%rax),%eax
    3947:	83 f8 01             	cmp    $0x1,%eax
    394a:	75 41                	jne    398d <e_exec+0x79d>
    394c:	80 bd b5 fe ff ff 14 	cmpb   $0x14,-0x14b(%rbp)
    3953:	75 1c                	jne    3971 <e_exec+0x781>
    3955:	48 8b 85 10 ff ff ff 	mov    -0xf0(%rbp),%rax
    395c:	8b 40 10             	mov    0x10(%rax),%eax
    395f:	8d 50 01             	lea    0x1(%rax),%edx
    3962:	48 8b 85 10 ff ff ff 	mov    -0xf0(%rbp),%rax
    3969:	89 50 10             	mov    %edx,0x10(%rax)
    396c:	e9 0a 09 00 00       	jmp    427b <e_exec+0x108b>
    3971:	48 8b 85 10 ff ff ff 	mov    -0xf0(%rbp),%rax
    3978:	8b 40 10             	mov    0x10(%rax),%eax
    397b:	8d 50 ff             	lea    -0x1(%rax),%edx
    397e:	48 8b 85 10 ff ff ff 	mov    -0xf0(%rbp),%rax
    3985:	89 50 10             	mov    %edx,0x10(%rax)
    3988:	e9 ee 08 00 00       	jmp    427b <e_exec+0x108b>
    398d:	80 bd b5 fe ff ff 14 	cmpb   $0x14,-0x14b(%rbp)
    3994:	75 29                	jne    39bf <e_exec+0x7cf>
    3996:	48 8b 85 10 ff ff ff 	mov    -0xf0(%rbp),%rax
    399d:	f2 0f 10 48 10       	movsd  0x10(%rax),%xmm1
    39a2:	f2 0f 10 05 d6 76 00 	movsd  0x76d6(%rip),%xmm0        # b080 <__PRETTY_FUNCTION__.0+0xd>
    39a9:	00 
    39aa:	f2 0f 58 c1          	addsd  %xmm1,%xmm0
    39ae:	48 8b 85 10 ff ff ff 	mov    -0xf0(%rbp),%rax
    39b5:	f2 0f 11 40 10       	movsd  %xmm0,0x10(%rax)
    39ba:	e9 bc 08 00 00       	jmp    427b <e_exec+0x108b>
    39bf:	48 8b 85 10 ff ff ff 	mov    -0xf0(%rbp),%rax
    39c6:	f2 0f 10 40 10       	movsd  0x10(%rax),%xmm0
    39cb:	f2 0f 10 0d ad 76 00 	movsd  0x76ad(%rip),%xmm1        # b080 <__PRETTY_FUNCTION__.0+0xd>
    39d2:	00 
    39d3:	f2 0f 5c c1          	subsd  %xmm1,%xmm0
    39d7:	48 8b 85 10 ff ff ff 	mov    -0xf0(%rbp),%rax
    39de:	f2 0f 11 40 10       	movsd  %xmm0,0x10(%rax)
    39e3:	e9 93 08 00 00       	jmp    427b <e_exec+0x108b>
    39e8:	44 0f b6 85 b5 fe ff 	movzbl -0x14b(%rbp),%r8d
    39ef:	ff 
    39f0:	48 8b 4d a0          	mov    -0x60(%rbp),%rcx
    39f4:	48 8b 55 90          	mov    -0x70(%rbp),%rdx
    39f8:	48 89 d0             	mov    %rdx,%rax
    39fb:	48 01 c0             	add    %rax,%rax
    39fe:	48 01 d0             	add    %rdx,%rax
    3a01:	48 c1 e0 03          	shl    $0x3,%rax
    3a05:	48 83 e8 18          	sub    $0x18,%rax
    3a09:	48 01 c1             	add    %rax,%rcx
    3a0c:	66 0f ef c0          	pxor   %xmm0,%xmm0
    3a10:	0f 29 45 d0          	movaps %xmm0,-0x30(%rbp)
    3a14:	66 0f d6 45 e0       	movq   %xmm0,-0x20(%rbp)
    3a19:	48 8d 7d b0          	lea    -0x50(%rbp),%rdi
    3a1d:	48 83 ec 18          	sub    $0x18,%rsp
    3a21:	48 89 e6             	mov    %rsp,%rsi
    3a24:	48 8b 01             	mov    (%rcx),%rax
    3a27:	48 8b 51 08          	mov    0x8(%rcx),%rdx
    3a2b:	48 89 06             	mov    %rax,(%rsi)
    3a2e:	48 89 56 08          	mov    %rdx,0x8(%rsi)
    3a32:	48 8b 41 10          	mov    0x10(%rcx),%rax
    3a36:	48 89 46 10          	mov    %rax,0x10(%rsi)
    3a3a:	48 83 ec 18          	sub    $0x18,%rsp
    3a3e:	48 89 e1             	mov    %rsp,%rcx
    3a41:	48 8b 45 d0          	mov    -0x30(%rbp),%rax
    3a45:	48 8b 55 d8          	mov    -0x28(%rbp),%rdx
    3a49:	48 89 01             	mov    %rax,(%rcx)
    3a4c:	48 89 51 08          	mov    %rdx,0x8(%rcx)
    3a50:	48 8b 45 e0          	mov    -0x20(%rbp),%rax
    3a54:	48 89 41 10          	mov    %rax,0x10(%rcx)
    3a58:	44 89 c6             	mov    %r8d,%esi
    3a5b:	e8 d4 da ff ff       	call   1534 <operate>
    3a60:	48 83 c4 30          	add    $0x30,%rsp
    3a64:	48 8d 45 90          	lea    -0x70(%rbp),%rax
    3a68:	48 89 c7             	mov    %rax,%rdi
    3a6b:	e8 79 f2 ff ff       	call   2ce9 <stack_pop>
    3a70:	48 8d 75 90          	lea    -0x70(%rbp),%rsi
    3a74:	48 83 ec 08          	sub    $0x8,%rsp
    3a78:	48 83 ec 18          	sub    $0x18,%rsp
    3a7c:	48 89 e1             	mov    %rsp,%rcx
    3a7f:	48 8b 45 b0          	mov    -0x50(%rbp),%rax
    3a83:	48 8b 55 b8          	mov    -0x48(%rbp),%rdx
    3a87:	48 89 01             	mov    %rax,(%rcx)
    3a8a:	48 89 51 08          	mov    %rdx,0x8(%rcx)
    3a8e:	48 8b 45 c0          	mov    -0x40(%rbp),%rax
    3a92:	48 89 41 10          	mov    %rax,0x10(%rcx)
    3a96:	48 89 f7             	mov    %rsi,%rdi
    3a99:	e8 79 f1 ff ff       	call   2c17 <stack_push>
    3a9e:	48 83 c4 20          	add    $0x20,%rsp
    3aa2:	e9 d4 07 00 00       	jmp    427b <e_exec+0x108b>
    3aa7:	48 8d 85 e0 fe ff ff 	lea    -0x120(%rbp),%rax
    3aae:	48 89 c7             	mov    %rax,%rdi
    3ab1:	e8 36 d9 ff ff       	call   13ec <e_read_u32>
    3ab6:	89 85 c8 fe ff ff    	mov    %eax,-0x138(%rbp)
    3abc:	48 8b 4d a0          	mov    -0x60(%rbp),%rcx
    3ac0:	48 8b 55 90          	mov    -0x70(%rbp),%rdx
    3ac4:	48 89 d0             	mov    %rdx,%rax
    3ac7:	48 01 c0             	add    %rax,%rax
    3aca:	48 01 d0             	add    %rdx,%rax
    3acd:	48 c1 e0 03          	shl    $0x3,%rax
    3ad1:	48 83 e8 18          	sub    $0x18,%rax
    3ad5:	48 01 c8             	add    %rcx,%rax
    3ad8:	8b 40 10             	mov    0x10(%rax),%eax
    3adb:	85 c0                	test   %eax,%eax
    3add:	75 1a                	jne    3af9 <e_exec+0x909>
    3adf:	48 8b 85 a0 fe ff ff 	mov    -0x160(%rbp),%rax
    3ae6:	48 8b 10             	mov    (%rax),%rdx
    3ae9:	8b 85 c8 fe ff ff    	mov    -0x138(%rbp),%eax
    3aef:	48 01 d0             	add    %rdx,%rax
    3af2:	48 89 85 e0 fe ff ff 	mov    %rax,-0x120(%rbp)
    3af9:	0f b6 85 b6 fe ff ff 	movzbl -0x14a(%rbp),%eax
    3b00:	83 e0 20             	and    $0x20,%eax
    3b03:	85 c0                	test   %eax,%eax
    3b05:	0f 84 6c 07 00 00    	je     4277 <e_exec+0x1087>
    3b0b:	48 8d 45 90          	lea    -0x70(%rbp),%rax
    3b0f:	48 89 c7             	mov    %rax,%rdi
    3b12:	e8 d2 f1 ff ff       	call   2ce9 <stack_pop>
    3b17:	e9 5b 07 00 00       	jmp    4277 <e_exec+0x1087>
    3b1c:	48 8d 85 e0 fe ff ff 	lea    -0x120(%rbp),%rax
    3b23:	48 89 c7             	mov    %rax,%rdi
    3b26:	e8 c1 d8 ff ff       	call   13ec <e_read_u32>
    3b2b:	89 85 c4 fe ff ff    	mov    %eax,-0x13c(%rbp)
    3b31:	48 8b 4d a0          	mov    -0x60(%rbp),%rcx
    3b35:	48 8b 55 90          	mov    -0x70(%rbp),%rdx
    3b39:	48 89 d0             	mov    %rdx,%rax
    3b3c:	48 01 c0             	add    %rax,%rax
    3b3f:	48 01 d0             	add    %rdx,%rax
    3b42:	48 c1 e0 03          	shl    $0x3,%rax
    3b46:	48 83 e8 18          	sub    $0x18,%rax
    3b4a:	48 01 c8             	add    %rcx,%rax
    3b4d:	8b 40 10             	mov    0x10(%rax),%eax
    3b50:	85 c0                	test   %eax,%eax
    3b52:	74 1a                	je     3b6e <e_exec+0x97e>
    3b54:	48 8b 85 a0 fe ff ff 	mov    -0x160(%rbp),%rax
    3b5b:	48 8b 10             	mov    (%rax),%rdx
    3b5e:	8b 85 c4 fe ff ff    	mov    -0x13c(%rbp),%eax
    3b64:	48 01 d0             	add    %rdx,%rax
    3b67:	48 89 85 e0 fe ff ff 	mov    %rax,-0x120(%rbp)
    3b6e:	0f b6 85 b6 fe ff ff 	movzbl -0x14a(%rbp),%eax
    3b75:	83 e0 20             	and    $0x20,%eax
    3b78:	85 c0                	test   %eax,%eax
    3b7a:	0f 84 fa 06 00 00    	je     427a <e_exec+0x108a>
    3b80:	48 8d 45 90          	lea    -0x70(%rbp),%rax
    3b84:	48 89 c7             	mov    %rax,%rdi
    3b87:	e8 5d f1 ff ff       	call   2ce9 <stack_pop>
    3b8c:	e9 e9 06 00 00       	jmp    427a <e_exec+0x108a>
    3b91:	48 8b 85 a0 fe ff ff 	mov    -0x160(%rbp),%rax
    3b98:	48 8b 18             	mov    (%rax),%rbx
    3b9b:	48 8d 85 e0 fe ff ff 	lea    -0x120(%rbp),%rax
    3ba2:	48 89 c7             	mov    %rax,%rdi
    3ba5:	e8 42 d8 ff ff       	call   13ec <e_read_u32>
    3baa:	89 c0                	mov    %eax,%eax
    3bac:	48 01 d8             	add    %rbx,%rax
    3baf:	48 89 85 e0 fe ff ff 	mov    %rax,-0x120(%rbp)
    3bb6:	e9 c0 06 00 00       	jmp    427b <e_exec+0x108b>
    3bbb:	48 8b 85 f0 fe ff ff 	mov    -0x110(%rbp),%rax
    3bc2:	48 3b 85 e8 fe ff ff 	cmp    -0x118(%rbp),%rax
    3bc9:	0f 82 a2 00 00 00    	jb     3c71 <e_exec+0xa81>
    3bcf:	48 8b 85 e8 fe ff ff 	mov    -0x118(%rbp),%rax
    3bd6:	48 01 c0             	add    %rax,%rax
    3bd9:	48 89 85 58 ff ff ff 	mov    %rax,-0xa8(%rbp)
    3be0:	48 8b 85 58 ff ff ff 	mov    -0xa8(%rbp),%rax
    3be7:	48 c1 e0 04          	shl    $0x4,%rax
    3beb:	48 89 c2             	mov    %rax,%rdx
    3bee:	48 8b 85 f8 fe ff ff 	mov    -0x108(%rbp),%rax
    3bf5:	48 89 d6             	mov    %rdx,%rsi
    3bf8:	48 89 c7             	mov    %rax,%rdi
    3bfb:	e8 60 d5 ff ff       	call   1160 <realloc@plt>
    3c00:	48 89 85 60 ff ff ff 	mov    %rax,-0xa0(%rbp)
    3c07:	48 83 bd 60 ff ff ff 	cmpq   $0x0,-0xa0(%rbp)
    3c0e:	00 
    3c0f:	75 0a                	jne    3c1b <e_exec+0xa2b>
    3c11:	bf ff ff ff ff       	mov    $0xffffffff,%edi
    3c16:	e8 85 d5 ff ff       	call   11a0 <exit@plt>
    3c1b:	48 8b 85 58 ff ff ff 	mov    -0xa8(%rbp),%rax
    3c22:	48 2b 85 f0 fe ff ff 	sub    -0x110(%rbp),%rax
    3c29:	48 c1 e0 04          	shl    $0x4,%rax
    3c2d:	48 89 c2             	mov    %rax,%rdx
    3c30:	48 8b 85 f0 fe ff ff 	mov    -0x110(%rbp),%rax
    3c37:	48 c1 e0 04          	shl    $0x4,%rax
    3c3b:	48 89 c1             	mov    %rax,%rcx
    3c3e:	48 8b 85 60 ff ff ff 	mov    -0xa0(%rbp),%rax
    3c45:	48 01 c8             	add    %rcx,%rax
    3c48:	be 00 00 00 00       	mov    $0x0,%esi
    3c4d:	48 89 c7             	mov    %rax,%rdi
    3c50:	e8 8b d4 ff ff       	call   10e0 <memset@plt>
    3c55:	48 8b 85 60 ff ff ff 	mov    -0xa0(%rbp),%rax
    3c5c:	48 89 85 f8 fe ff ff 	mov    %rax,-0x108(%rbp)
    3c63:	48 8b 85 58 ff ff ff 	mov    -0xa8(%rbp),%rax
    3c6a:	48 89 85 e8 fe ff ff 	mov    %rax,-0x118(%rbp)
    3c71:	48 8d 85 e0 fe ff ff 	lea    -0x120(%rbp),%rax
    3c78:	48 89 c7             	mov    %rax,%rdi
    3c7b:	e8 6c d7 ff ff       	call   13ec <e_read_u32>
    3c80:	89 85 cc fe ff ff    	mov    %eax,-0x134(%rbp)
    3c86:	48 8b 85 f0 fe ff ff 	mov    -0x110(%rbp),%rax
    3c8d:	48 c1 e0 04          	shl    $0x4,%rax
    3c91:	48 89 c2             	mov    %rax,%rdx
    3c94:	48 8b 85 f8 fe ff ff 	mov    -0x108(%rbp),%rax
    3c9b:	48 01 c2             	add    %rax,%rdx
    3c9e:	48 8b 45 90          	mov    -0x70(%rbp),%rax
    3ca2:	48 89 02             	mov    %rax,(%rdx)
    3ca5:	48 8b 85 f0 fe ff ff 	mov    -0x110(%rbp),%rax
    3cac:	48 c1 e0 04          	shl    $0x4,%rax
    3cb0:	48 89 c2             	mov    %rax,%rdx
    3cb3:	48 8b 85 f8 fe ff ff 	mov    -0x108(%rbp),%rax
    3cba:	48 01 c2             	add    %rax,%rdx
    3cbd:	8b 85 cc fe ff ff    	mov    -0x134(%rbp),%eax
    3cc3:	89 42 08             	mov    %eax,0x8(%rdx)
    3cc6:	48 83 85 f0 fe ff ff 	addq   $0x1,-0x110(%rbp)
    3ccd:	01 
    3cce:	0f b6 85 b6 fe ff ff 	movzbl -0x14a(%rbp),%eax
    3cd5:	83 e0 01             	and    $0x1,%eax
    3cd8:	85 c0                	test   %eax,%eax
    3cda:	0f 84 a2 00 00 00    	je     3d82 <e_exec+0xb92>
    3ce0:	48 8b 4d a0          	mov    -0x60(%rbp),%rcx
    3ce4:	48 8b 55 90          	mov    -0x70(%rbp),%rdx
    3ce8:	48 89 d0             	mov    %rdx,%rax
    3ceb:	48 01 c0             	add    %rax,%rax
    3cee:	48 01 d0             	add    %rdx,%rax
    3cf1:	48 c1 e0 03          	shl    $0x3,%rax
    3cf5:	48 83 e8 18          	sub    $0x18,%rax
    3cf9:	48 01 c1             	add    %rax,%rcx
    3cfc:	48 8b 01             	mov    (%rcx),%rax
    3cff:	48 8b 51 08          	mov    0x8(%rcx),%rdx
    3d03:	48 89 45 d0          	mov    %rax,-0x30(%rbp)
    3d07:	48 89 55 d8          	mov    %rdx,-0x28(%rbp)
    3d0b:	48 8b 41 10          	mov    0x10(%rcx),%rax
    3d0f:	48 89 45 e0          	mov    %rax,-0x20(%rbp)
    3d13:	48 8b 4d a0          	mov    -0x60(%rbp),%rcx
    3d17:	48 8b 55 90          	mov    -0x70(%rbp),%rdx
    3d1b:	48 89 d0             	mov    %rdx,%rax
    3d1e:	48 01 c0             	add    %rax,%rax
    3d21:	48 01 d0             	add    %rdx,%rax
    3d24:	48 c1 e0 03          	shl    $0x3,%rax
    3d28:	48 83 e8 18          	sub    $0x18,%rax
    3d2c:	48 8d 14 01          	lea    (%rcx,%rax,1),%rdx
    3d30:	48 8d 45 d0          	lea    -0x30(%rbp),%rax
    3d34:	48 89 c6             	mov    %rax,%rsi
    3d37:	48 89 d7             	mov    %rdx,%rdi
    3d3a:	e8 70 60 00 00       	call   9daf <e_var_shallow_cpy>
    3d3f:	48 8d 45 d0          	lea    -0x30(%rbp),%rax
    3d43:	48 89 c7             	mov    %rax,%rdi
    3d46:	e8 f1 d5 ff ff       	call   133c <e_var_acquire>
    3d4b:	48 8d 75 90          	lea    -0x70(%rbp),%rsi
    3d4f:	48 83 ec 08          	sub    $0x8,%rsp
    3d53:	48 83 ec 18          	sub    $0x18,%rsp
    3d57:	48 89 e1             	mov    %rsp,%rcx
    3d5a:	48 8b 45 d0          	mov    -0x30(%rbp),%rax
    3d5e:	48 8b 55 d8          	mov    -0x28(%rbp),%rdx
    3d62:	48 89 01             	mov    %rax,(%rcx)
    3d65:	48 89 51 08          	mov    %rdx,0x8(%rcx)
    3d69:	48 8b 45 e0          	mov    -0x20(%rbp),%rax
    3d6d:	48 89 41 10          	mov    %rax,0x10(%rcx)
    3d71:	48 89 f7             	mov    %rsi,%rdi
    3d74:	e8 9e ee ff ff       	call   2c17 <stack_push>
    3d79:	48 83 c4 20          	add    $0x20,%rsp
    3d7d:	e9 f9 04 00 00       	jmp    427b <e_exec+0x108b>
    3d82:	66 0f ef c0          	pxor   %xmm0,%xmm0
    3d86:	0f 29 45 d0          	movaps %xmm0,-0x30(%rbp)
    3d8a:	66 0f d6 45 e0       	movq   %xmm0,-0x20(%rbp)
    3d8f:	e8 45 d5 ff ff       	call   12d9 <e_refc_init>
    3d94:	48 89 45 d8          	mov    %rax,-0x28(%rbp)
    3d98:	48 8d 75 90          	lea    -0x70(%rbp),%rsi
    3d9c:	48 83 ec 08          	sub    $0x8,%rsp
    3da0:	48 83 ec 18          	sub    $0x18,%rsp
    3da4:	48 89 e1             	mov    %rsp,%rcx
    3da7:	48 8b 45 d0          	mov    -0x30(%rbp),%rax
    3dab:	48 8b 55 d8          	mov    -0x28(%rbp),%rdx
    3daf:	48 89 01             	mov    %rax,(%rcx)
    3db2:	48 89 51 08          	mov    %rdx,0x8(%rcx)
    3db6:	48 8b 45 e0          	mov    -0x20(%rbp),%rax
    3dba:	48 89 41 10          	mov    %rax,0x10(%rcx)
    3dbe:	48 89 f7             	mov    %rsi,%rdi
    3dc1:	e8 51 ee ff ff       	call   2c17 <stack_push>
    3dc6:	48 83 c4 20          	add    $0x20,%rsp
    3dca:	e9 ac 04 00 00       	jmp    427b <e_exec+0x108b>
    3dcf:	48 8d 85 e0 fe ff ff 	lea    -0x120(%rbp),%rax
    3dd6:	48 89 c7             	mov    %rax,%rdi
    3dd9:	e8 0e d6 ff ff       	call   13ec <e_read_u32>
    3dde:	89 85 d4 fe ff ff    	mov    %eax,-0x12c(%rbp)
    3de4:	48 c7 85 20 ff ff ff 	movq   $0x0,-0xe0(%rbp)
    3deb:	00 00 00 00 
    3def:	e9 cb 00 00 00       	jmp    3ebf <e_exec+0xccf>
    3df4:	48 8b 85 f0 fe ff ff 	mov    -0x110(%rbp),%rax
    3dfb:	48 2b 85 20 ff ff ff 	sub    -0xe0(%rbp),%rax
    3e02:	48 83 e8 01          	sub    $0x1,%rax
    3e06:	48 89 85 70 ff ff ff 	mov    %rax,-0x90(%rbp)
    3e0d:	48 8b 85 70 ff ff ff 	mov    -0x90(%rbp),%rax
    3e14:	48 c1 e0 04          	shl    $0x4,%rax
    3e18:	48 89 c2             	mov    %rax,%rdx
    3e1b:	48 8b 85 f8 fe ff ff 	mov    -0x108(%rbp),%rax
    3e22:	48 01 d0             	add    %rdx,%rax
    3e25:	8b 40 08             	mov    0x8(%rax),%eax
    3e28:	39 85 d4 fe ff ff    	cmp    %eax,-0x12c(%rbp)
    3e2e:	0f 85 83 00 00 00    	jne    3eb7 <e_exec+0xcc7>
    3e34:	48 8b 4d a0          	mov    -0x60(%rbp),%rcx
    3e38:	48 8b 85 70 ff ff ff 	mov    -0x90(%rbp),%rax
    3e3f:	48 c1 e0 04          	shl    $0x4,%rax
    3e43:	48 89 c2             	mov    %rax,%rdx
    3e46:	48 8b 85 f8 fe ff ff 	mov    -0x108(%rbp),%rax
    3e4d:	48 01 d0             	add    %rdx,%rax
    3e50:	48 8b 10             	mov    (%rax),%rdx
    3e53:	48 89 d0             	mov    %rdx,%rax
    3e56:	48 01 c0             	add    %rax,%rax
    3e59:	48 01 d0             	add    %rdx,%rax
    3e5c:	48 c1 e0 03          	shl    $0x3,%rax
    3e60:	48 8d 14 01          	lea    (%rcx,%rax,1),%rdx
    3e64:	48 8d 45 d0          	lea    -0x30(%rbp),%rax
    3e68:	48 89 c6             	mov    %rax,%rsi
    3e6b:	48 89 d7             	mov    %rdx,%rdi
    3e6e:	e8 3c 5f 00 00       	call   9daf <e_var_shallow_cpy>
    3e73:	48 8d 45 d0          	lea    -0x30(%rbp),%rax
    3e77:	48 89 c7             	mov    %rax,%rdi
    3e7a:	e8 bd d4 ff ff       	call   133c <e_var_acquire>
    3e7f:	48 8d 75 90          	lea    -0x70(%rbp),%rsi
    3e83:	48 83 ec 08          	sub    $0x8,%rsp
    3e87:	48 83 ec 18          	sub    $0x18,%rsp
    3e8b:	48 89 e1             	mov    %rsp,%rcx
    3e8e:	48 8b 45 d0          	mov    -0x30(%rbp),%rax
    3e92:	48 8b 55 d8          	mov    -0x28(%rbp),%rdx
    3e96:	48 89 01             	mov    %rax,(%rcx)
    3e99:	48 89 51 08          	mov    %rdx,0x8(%rcx)
    3e9d:	48 8b 45 e0          	mov    -0x20(%rbp),%rax
    3ea1:	48 89 41 10          	mov    %rax,0x10(%rcx)
    3ea5:	48 89 f7             	mov    %rsi,%rdi
    3ea8:	e8 6a ed ff ff       	call   2c17 <stack_push>
    3ead:	48 83 c4 20          	add    $0x20,%rsp
    3eb1:	90                   	nop
    3eb2:	e9 c4 03 00 00       	jmp    427b <e_exec+0x108b>
    3eb7:	48 83 85 20 ff ff ff 	addq   $0x1,-0xe0(%rbp)
    3ebe:	01 
    3ebf:	48 8b 85 20 ff ff ff 	mov    -0xe0(%rbp),%rax
    3ec6:	48 3b 85 f0 fe ff ff 	cmp    -0x110(%rbp),%rax
    3ecd:	0f 82 21 ff ff ff    	jb     3df4 <e_exec+0xc04>
    3ed3:	e9 a3 03 00 00       	jmp    427b <e_exec+0x108b>
    3ed8:	48 8d 85 e0 fe ff ff 	lea    -0x120(%rbp),%rax
    3edf:	48 89 c7             	mov    %rax,%rdi
    3ee2:	e8 05 d5 ff ff       	call   13ec <e_read_u32>
    3ee7:	89 85 d0 fe ff ff    	mov    %eax,-0x130(%rbp)
    3eed:	c7 85 bc fe ff ff 00 	movl   $0x0,-0x144(%rbp)
    3ef4:	00 00 00 
    3ef7:	e9 ce 00 00 00       	jmp    3fca <e_exec+0xdda>
    3efc:	8b 85 bc fe ff ff    	mov    -0x144(%rbp),%eax
    3f02:	48 98                	cltq
    3f04:	48 c1 e0 04          	shl    $0x4,%rax
    3f08:	48 89 c2             	mov    %rax,%rdx
    3f0b:	48 8b 85 f8 fe ff ff 	mov    -0x108(%rbp),%rax
    3f12:	48 01 d0             	add    %rdx,%rax
    3f15:	8b 40 08             	mov    0x8(%rax),%eax
    3f18:	39 85 d0 fe ff ff    	cmp    %eax,-0x130(%rbp)
    3f1e:	0f 85 9f 00 00 00    	jne    3fc3 <e_exec+0xdd3>
    3f24:	48 8b 4d a0          	mov    -0x60(%rbp),%rcx
    3f28:	8b 85 bc fe ff ff    	mov    -0x144(%rbp),%eax
    3f2e:	48 98                	cltq
    3f30:	48 c1 e0 04          	shl    $0x4,%rax
    3f34:	48 89 c2             	mov    %rax,%rdx
    3f37:	48 8b 85 f8 fe ff ff 	mov    -0x108(%rbp),%rax
    3f3e:	48 01 d0             	add    %rdx,%rax
    3f41:	48 8b 10             	mov    (%rax),%rdx
    3f44:	48 89 d0             	mov    %rdx,%rax
    3f47:	48 01 c0             	add    %rax,%rax
    3f4a:	48 01 d0             	add    %rdx,%rax
    3f4d:	48 c1 e0 03          	shl    $0x3,%rax
    3f51:	48 01 c8             	add    %rcx,%rax
    3f54:	48 89 85 68 ff ff ff 	mov    %rax,-0x98(%rbp)
    3f5b:	48 8b 85 68 ff ff ff 	mov    -0x98(%rbp),%rax
    3f62:	48 89 c7             	mov    %rax,%rdi
    3f65:	e8 f0 d3 ff ff       	call   135a <e_var_release>
    3f6a:	48 8d 45 90          	lea    -0x70(%rbp),%rax
    3f6e:	48 89 c7             	mov    %rax,%rdi
    3f71:	e8 bf ed ff ff       	call   2d35 <stack_top>
    3f76:	48 89 c1             	mov    %rax,%rcx
    3f79:	48 8b b5 68 ff ff ff 	mov    -0x98(%rbp),%rsi
    3f80:	48 8b 01             	mov    (%rcx),%rax
    3f83:	48 8b 51 08          	mov    0x8(%rcx),%rdx
    3f87:	48 89 06             	mov    %rax,(%rsi)
    3f8a:	48 89 56 08          	mov    %rdx,0x8(%rsi)
    3f8e:	48 8b 41 10          	mov    0x10(%rcx),%rax
    3f92:	48 89 46 10          	mov    %rax,0x10(%rsi)
    3f96:	0f b6 85 b6 fe ff ff 	movzbl -0x14a(%rbp),%eax
    3f9d:	83 e0 20             	and    $0x20,%eax
    3fa0:	85 c0                	test   %eax,%eax
    3fa2:	74 0e                	je     3fb2 <e_exec+0xdc2>
    3fa4:	48 8b 45 90          	mov    -0x70(%rbp),%rax
    3fa8:	48 83 e8 01          	sub    $0x1,%rax
    3fac:	48 89 45 90          	mov    %rax,-0x70(%rbp)
    3fb0:	eb 32                	jmp    3fe4 <e_exec+0xdf4>
    3fb2:	48 8b 85 68 ff ff ff 	mov    -0x98(%rbp),%rax
    3fb9:	48 89 c7             	mov    %rax,%rdi
    3fbc:	e8 7b d3 ff ff       	call   133c <e_var_acquire>
    3fc1:	eb 21                	jmp    3fe4 <e_exec+0xdf4>
    3fc3:	83 85 bc fe ff ff 01 	addl   $0x1,-0x144(%rbp)
    3fca:	8b 85 bc fe ff ff    	mov    -0x144(%rbp),%eax
    3fd0:	48 98                	cltq
    3fd2:	48 3b 85 f0 fe ff ff 	cmp    -0x110(%rbp),%rax
    3fd9:	0f 82 1d ff ff ff    	jb     3efc <e_exec+0xd0c>
    3fdf:	e9 97 02 00 00       	jmp    427b <e_exec+0x108b>
    3fe4:	e9 92 02 00 00       	jmp    427b <e_exec+0x108b>
    3fe9:	48 8d 85 e0 fe ff ff 	lea    -0x120(%rbp),%rax
    3ff0:	48 89 c7             	mov    %rax,%rdi
    3ff3:	e8 4d d4 ff ff       	call   1445 <e_read_u8>
    3ff8:	88 85 b7 fe ff ff    	mov    %al,-0x149(%rbp)
    3ffe:	80 bd b7 fe ff ff 00 	cmpb   $0x0,-0x149(%rbp)
    4005:	0f 84 af 00 00 00    	je     40ba <e_exec+0xeca>
    400b:	48 8b 4d a0          	mov    -0x60(%rbp),%rcx
    400f:	48 8b 55 90          	mov    -0x70(%rbp),%rdx
    4013:	48 89 d0             	mov    %rdx,%rax
    4016:	48 01 c0             	add    %rax,%rax
    4019:	48 01 d0             	add    %rdx,%rax
    401c:	48 c1 e0 03          	shl    $0x3,%rax
    4020:	48 83 e8 18          	sub    $0x18,%rax
    4024:	48 8d 14 01          	lea    (%rcx,%rax,1),%rdx
    4028:	48 8d 45 d0          	lea    -0x30(%rbp),%rax
    402c:	48 89 c6             	mov    %rax,%rsi
    402f:	48 89 d7             	mov    %rdx,%rdi
    4032:	e8 cc 5d 00 00       	call   9e03 <e_var_deep_cpy>
    4037:	48 c7 85 28 ff ff ff 	movq   $0x0,-0xd8(%rbp)
    403e:	00 00 00 00 
    4042:	eb 2b                	jmp    406f <e_exec+0xe7f>
    4044:	48 8b 4d a0          	mov    -0x60(%rbp),%rcx
    4048:	48 8b 95 28 ff ff ff 	mov    -0xd8(%rbp),%rdx
    404f:	48 89 d0             	mov    %rdx,%rax
    4052:	48 01 c0             	add    %rax,%rax
    4055:	48 01 d0             	add    %rdx,%rax
    4058:	48 c1 e0 03          	shl    $0x3,%rax
    405c:	48 01 c8             	add    %rcx,%rax
    405f:	48 89 c7             	mov    %rax,%rdi
    4062:	e8 f3 d2 ff ff       	call   135a <e_var_release>
    4067:	48 83 85 28 ff ff ff 	addq   $0x1,-0xd8(%rbp)
    406e:	01 
    406f:	48 8b 45 90          	mov    -0x70(%rbp),%rax
    4073:	48 39 85 28 ff ff ff 	cmp    %rax,-0xd8(%rbp)
    407a:	72 c8                	jb     4044 <e_exec+0xe54>
    407c:	48 8d 45 90          	lea    -0x70(%rbp),%rax
    4080:	48 89 c7             	mov    %rax,%rdi
    4083:	e8 70 eb ff ff       	call   2bf8 <stack_free>
    4088:	48 8b 85 f8 fe ff ff 	mov    -0x108(%rbp),%rax
    408f:	48 89 c7             	mov    %rax,%rdi
    4092:	e8 99 cf ff ff       	call   1030 <free@plt>
    4097:	48 8b 8d a8 fe ff ff 	mov    -0x158(%rbp),%rcx
    409e:	48 8b 45 d0          	mov    -0x30(%rbp),%rax
    40a2:	48 8b 55 d8          	mov    -0x28(%rbp),%rdx
    40a6:	48 89 01             	mov    %rax,(%rcx)
    40a9:	48 89 51 08          	mov    %rdx,0x8(%rcx)
    40ad:	48 8b 45 e0          	mov    -0x20(%rbp),%rax
    40b1:	48 89 41 10          	mov    %rax,0x10(%rcx)
    40b5:	e9 5b 02 00 00       	jmp    4315 <e_exec+0x1125>
    40ba:	48 c7 85 30 ff ff ff 	movq   $0x0,-0xd0(%rbp)
    40c1:	00 00 00 00 
    40c5:	eb 2b                	jmp    40f2 <e_exec+0xf02>
    40c7:	48 8b 4d a0          	mov    -0x60(%rbp),%rcx
    40cb:	48 8b 95 30 ff ff ff 	mov    -0xd0(%rbp),%rdx
    40d2:	48 89 d0             	mov    %rdx,%rax
    40d5:	48 01 c0             	add    %rax,%rax
    40d8:	48 01 d0             	add    %rdx,%rax
    40db:	48 c1 e0 03          	shl    $0x3,%rax
    40df:	48 01 c8             	add    %rcx,%rax
    40e2:	48 89 c7             	mov    %rax,%rdi
    40e5:	e8 70 d2 ff ff       	call   135a <e_var_release>
    40ea:	48 83 85 30 ff ff ff 	addq   $0x1,-0xd0(%rbp)
    40f1:	01 
    40f2:	48 8b 45 90          	mov    -0x70(%rbp),%rax
    40f6:	48 39 85 30 ff ff ff 	cmp    %rax,-0xd0(%rbp)
    40fd:	72 c8                	jb     40c7 <e_exec+0xed7>
    40ff:	48 8d 45 90          	lea    -0x70(%rbp),%rax
    4103:	48 89 c7             	mov    %rax,%rdi
    4106:	e8 ed ea ff ff       	call   2bf8 <stack_free>
    410b:	48 8b 85 f8 fe ff ff 	mov    -0x108(%rbp),%rax
    4112:	48 89 c7             	mov    %rax,%rdi
    4115:	e8 16 cf ff ff       	call   1030 <free@plt>
    411a:	48 8b 85 a8 fe ff ff 	mov    -0x158(%rbp),%rax
    4121:	66 0f ef c0          	pxor   %xmm0,%xmm0
    4125:	0f 11 00             	movups %xmm0,(%rax)
    4128:	66 0f d6 40 10       	movq   %xmm0,0x10(%rax)
    412d:	e9 e3 01 00 00       	jmp    4315 <e_exec+0x1125>
    4132:	48 8b 45 90          	mov    -0x70(%rbp),%rax
    4136:	48 89 85 08 ff ff ff 	mov    %rax,-0xf8(%rbp)
    413d:	e9 39 01 00 00       	jmp    427b <e_exec+0x108b>
    4142:	48 8b 85 08 ff ff ff 	mov    -0xf8(%rbp),%rax
    4149:	48 89 85 38 ff ff ff 	mov    %rax,-0xc8(%rbp)
    4150:	eb 2b                	jmp    417d <e_exec+0xf8d>
    4152:	48 8b 4d a0          	mov    -0x60(%rbp),%rcx
    4156:	48 8b 95 38 ff ff ff 	mov    -0xc8(%rbp),%rdx
    415d:	48 89 d0             	mov    %rdx,%rax
    4160:	48 01 c0             	add    %rax,%rax
    4163:	48 01 d0             	add    %rdx,%rax
    4166:	48 c1 e0 03          	shl    $0x3,%rax
    416a:	48 01 c8             	add    %rcx,%rax
    416d:	48 89 c7             	mov    %rax,%rdi
    4170:	e8 e5 d1 ff ff       	call   135a <e_var_release>
    4175:	48 83 85 38 ff ff ff 	addq   $0x1,-0xc8(%rbp)
    417c:	01 
    417d:	48 8b 45 90          	mov    -0x70(%rbp),%rax
    4181:	48 39 85 38 ff ff ff 	cmp    %rax,-0xc8(%rbp)
    4188:	72 c8                	jb     4152 <e_exec+0xf62>
    418a:	48 8b 85 08 ff ff ff 	mov    -0xf8(%rbp),%rax
    4191:	48 89 45 90          	mov    %rax,-0x70(%rbp)
    4195:	e9 e1 00 00 00       	jmp    427b <e_exec+0x108b>
    419a:	48 8d 05 aa 6e 00 00 	lea    0x6eaa(%rip),%rax        # b04b <_IO_stdin_used+0x4b>
    41a1:	48 89 c7             	mov    %rax,%rdi
    41a4:	e8 a7 ce ff ff       	call   1050 <puts@plt>
    41a9:	bf ff ff ff ff       	mov    $0xffffffff,%edi
    41ae:	e8 ed cf ff ff       	call   11a0 <exit@plt>
    41b3:	48 c7 85 40 ff ff ff 	movq   $0x0,-0xc0(%rbp)
    41ba:	00 00 00 00 
    41be:	eb 2b                	jmp    41eb <e_exec+0xffb>
    41c0:	48 8b 4d a0          	mov    -0x60(%rbp),%rcx
    41c4:	48 8b 95 40 ff ff ff 	mov    -0xc0(%rbp),%rdx
    41cb:	48 89 d0             	mov    %rdx,%rax
    41ce:	48 01 c0             	add    %rax,%rax
    41d1:	48 01 d0             	add    %rdx,%rax
    41d4:	48 c1 e0 03          	shl    $0x3,%rax
    41d8:	48 01 c8             	add    %rcx,%rax
    41db:	48 89 c7             	mov    %rax,%rdi
    41de:	e8 77 d1 ff ff       	call   135a <e_var_release>
    41e3:	48 83 85 40 ff ff ff 	addq   $0x1,-0xc0(%rbp)
    41ea:	01 
    41eb:	48 8b 45 90          	mov    -0x70(%rbp),%rax
    41ef:	48 39 85 40 ff ff ff 	cmp    %rax,-0xc0(%rbp)
    41f6:	72 c8                	jb     41c0 <e_exec+0xfd0>
    41f8:	48 8d 45 90          	lea    -0x70(%rbp),%rax
    41fc:	48 89 c7             	mov    %rax,%rdi
    41ff:	e8 f4 e9 ff ff       	call   2bf8 <stack_free>
    4204:	48 8b 85 f8 fe ff ff 	mov    -0x108(%rbp),%rax
    420b:	48 89 c7             	mov    %rax,%rdi
    420e:	e8 1d ce ff ff       	call   1030 <free@plt>
    4213:	e8 c1 d0 ff ff       	call   12d9 <e_refc_init>
    4218:	48 89 c3             	mov    %rax,%rbx
    421b:	48 8d 85 e0 fe ff ff 	lea    -0x120(%rbp),%rax
    4222:	48 89 c7             	mov    %rax,%rdi
    4225:	e8 c2 d1 ff ff       	call   13ec <e_read_u32>
    422a:	89 c2                	mov    %eax,%edx
    422c:	48 8b 85 a8 fe ff ff 	mov    -0x158(%rbp),%rax
    4233:	c7 00 01 00 00 00    	movl   $0x1,(%rax)
    4239:	48 8b 85 a8 fe ff ff 	mov    -0x158(%rbp),%rax
    4240:	48 89 58 08          	mov    %rbx,0x8(%rax)
    4244:	48 8b 85 a8 fe ff ff 	mov    -0x158(%rbp),%rax
    424b:	89 50 10             	mov    %edx,0x10(%rax)
    424e:	e9 c2 00 00 00       	jmp    4315 <e_exec+0x1125>
    4253:	48 8d 05 05 6e 00 00 	lea    0x6e05(%rip),%rax        # b05f <_IO_stdin_used+0x5f>
    425a:	48 89 c7             	mov    %rax,%rdi
    425d:	b8 00 00 00 00       	mov    $0x0,%eax
    4262:	e8 39 ce ff ff       	call   10a0 <printf@plt>
    4267:	bf ff ff ff ff       	mov    $0xffffffff,%edi
    426c:	e8 2f cf ff ff       	call   11a0 <exit@plt>
    4271:	90                   	nop
    4272:	eb 07                	jmp    427b <e_exec+0x108b>
    4274:	90                   	nop
    4275:	eb 04                	jmp    427b <e_exec+0x108b>
    4277:	90                   	nop
    4278:	eb 01                	jmp    427b <e_exec+0x108b>
    427a:	90                   	nop
    427b:	48 8b 85 e0 fe ff ff 	mov    -0x120(%rbp),%rax
    4282:	48 3b 85 50 ff ff ff 	cmp    -0xb0(%rbp),%rax
    4289:	0f 82 e3 f1 ff ff    	jb     3472 <e_exec+0x282>
    428f:	48 c7 85 48 ff ff ff 	movq   $0x0,-0xb8(%rbp)
    4296:	00 00 00 00 
    429a:	eb 2b                	jmp    42c7 <e_exec+0x10d7>
    429c:	48 8b 4d a0          	mov    -0x60(%rbp),%rcx
    42a0:	48 8b 95 48 ff ff ff 	mov    -0xb8(%rbp),%rdx
    42a7:	48 89 d0             	mov    %rdx,%rax
    42aa:	48 01 c0             	add    %rax,%rax
    42ad:	48 01 d0             	add    %rdx,%rax
    42b0:	48 c1 e0 03          	shl    $0x3,%rax
    42b4:	48 01 c8             	add    %rcx,%rax
    42b7:	48 89 c7             	mov    %rax,%rdi
    42ba:	e8 9b d0 ff ff       	call   135a <e_var_release>
    42bf:	48 83 85 48 ff ff ff 	addq   $0x1,-0xb8(%rbp)
    42c6:	01 
    42c7:	48 8b 45 90          	mov    -0x70(%rbp),%rax
    42cb:	48 39 85 48 ff ff ff 	cmp    %rax,-0xb8(%rbp)
    42d2:	72 c8                	jb     429c <e_exec+0x10ac>
    42d4:	48 8b 85 f8 fe ff ff 	mov    -0x108(%rbp),%rax
    42db:	48 89 c7             	mov    %rax,%rdi
    42de:	e8 4d cd ff ff       	call   1030 <free@plt>
    42e3:	48 8d 45 90          	lea    -0x70(%rbp),%rax
    42e7:	48 89 c7             	mov    %rax,%rdi
    42ea:	e8 09 e9 ff ff       	call   2bf8 <stack_free>
    42ef:	e8 e5 cf ff ff       	call   12d9 <e_refc_init>
    42f4:	48 89 c2             	mov    %rax,%rdx
    42f7:	48 8b 85 a8 fe ff ff 	mov    -0x158(%rbp),%rax
    42fe:	66 0f ef c0          	pxor   %xmm0,%xmm0
    4302:	0f 11 00             	movups %xmm0,(%rax)
    4305:	66 0f d6 40 10       	movq   %xmm0,0x10(%rax)
    430a:	48 8b 85 a8 fe ff ff 	mov    -0x158(%rbp),%rax
    4311:	48 89 50 08          	mov    %rdx,0x8(%rax)
    4315:	48 8b 45 e8          	mov    -0x18(%rbp),%rax
    4319:	64 48 2b 04 25 28 00 	sub    %fs:0x28,%rax
    4320:	00 00 
    4322:	74 05                	je     4329 <e_exec+0x1139>
    4324:	e8 67 cd ff ff       	call   1090 <__stack_chk_fail@plt>
    4329:	48 8b 85 a8 fe ff ff 	mov    -0x158(%rbp),%rax
    4330:	48 8b 5d f8          	mov    -0x8(%rbp),%rbx
    4334:	c9                   	leave
    4335:	c3                   	ret

0000000000004336 <e_refc_init>:
    4336:	55                   	push   %rbp
    4337:	48 89 e5             	mov    %rsp,%rbp
    433a:	48 83 ec 10          	sub    $0x10,%rsp
    433e:	bf 04 00 00 00       	mov    $0x4,%edi
    4343:	e8 f8 cd ff ff       	call   1140 <malloc@plt>
    4348:	48 89 45 f8          	mov    %rax,-0x8(%rbp)
    434c:	48 8b 45 f8          	mov    -0x8(%rbp),%rax
    4350:	c7 00 01 00 00 00    	movl   $0x1,(%rax)
    4356:	48 8b 45 f8          	mov    -0x8(%rbp),%rax
    435a:	c9                   	leave
    435b:	c3                   	ret

000000000000435c <e_refc_release>:
    435c:	55                   	push   %rbp
    435d:	48 89 e5             	mov    %rsp,%rbp
    4360:	48 89 7d f8          	mov    %rdi,-0x8(%rbp)
    4364:	48 8b 45 f8          	mov    -0x8(%rbp),%rax
    4368:	8b 00                	mov    (%rax),%eax
    436a:	85 c0                	test   %eax,%eax
    436c:	7e 0f                	jle    437d <e_refc_release+0x21>
    436e:	48 8b 45 f8          	mov    -0x8(%rbp),%rax
    4372:	8b 00                	mov    (%rax),%eax
    4374:	8d 50 ff             	lea    -0x1(%rax),%edx
    4377:	48 8b 45 f8          	mov    -0x8(%rbp),%rax
    437b:	89 10                	mov    %edx,(%rax)
    437d:	90                   	nop
    437e:	5d                   	pop    %rbp
    437f:	c3                   	ret

0000000000004380 <e_var_release>:
    4380:	55                   	push   %rbp
    4381:	48 89 e5             	mov    %rsp,%rbp
    4384:	48 83 ec 10          	sub    $0x10,%rsp
    4388:	48 89 7d f8          	mov    %rdi,-0x8(%rbp)
    438c:	48 8b 45 f8          	mov    -0x8(%rbp),%rax
    4390:	48 8b 40 08          	mov    0x8(%rax),%rax
    4394:	48 89 c7             	mov    %rax,%rdi
    4397:	e8 c0 ff ff ff       	call   435c <e_refc_release>
    439c:	48 8b 45 f8          	mov    -0x8(%rbp),%rax
    43a0:	48 8b 40 08          	mov    0x8(%rax),%rax
    43a4:	8b 00                	mov    (%rax),%eax
    43a6:	85 c0                	test   %eax,%eax
    43a8:	7f 0c                	jg     43b6 <e_var_release+0x36>
    43aa:	48 8b 45 f8          	mov    -0x8(%rbp),%rax
    43ae:	48 89 c7             	mov    %rax,%rdi
    43b1:	e8 fe 5a 00 00       	call   9eb4 <e_var_free>
    43b6:	90                   	nop
    43b7:	c9                   	leave
    43b8:	c3                   	ret

00000000000043b9 <e_hash_fnv>:
    43b9:	55                   	push   %rbp
    43ba:	48 89 e5             	mov    %rsp,%rbp
    43bd:	48 89 7d d8          	mov    %rdi,-0x28(%rbp)
    43c1:	48 89 75 d0          	mov    %rsi,-0x30(%rbp)
    43c5:	48 8b 45 d8          	mov    -0x28(%rbp),%rax
    43c9:	48 89 45 f8          	mov    %rax,-0x8(%rbp)
    43cd:	c7 45 ec c5 9d 1c 81 	movl   $0x811c9dc5,-0x14(%rbp)
    43d4:	48 c7 45 f0 00 00 00 	movq   $0x0,-0x10(%rbp)
    43db:	00 
    43dc:	eb 25                	jmp    4403 <e_hash_fnv+0x4a>
    43de:	48 8b 55 f8          	mov    -0x8(%rbp),%rdx
    43e2:	48 8b 45 f0          	mov    -0x10(%rbp),%rax
    43e6:	48 01 d0             	add    %rdx,%rax
    43e9:	0f b6 00             	movzbl (%rax),%eax
    43ec:	0f b6 c0             	movzbl %al,%eax
    43ef:	31 45 ec             	xor    %eax,-0x14(%rbp)
    43f2:	8b 45 ec             	mov    -0x14(%rbp),%eax
    43f5:	69 c0 93 01 00 01    	imul   $0x1000193,%eax,%eax
    43fb:	89 45 ec             	mov    %eax,-0x14(%rbp)
    43fe:	48 83 45 f0 01       	addq   $0x1,-0x10(%rbp)
    4403:	48 8b 45 f0          	mov    -0x10(%rbp),%rax
    4407:	48 3b 45 d0          	cmp    -0x30(%rbp),%rax
    440b:	72 d1                	jb     43de <e_hash_fnv+0x25>
    440d:	8b 45 ec             	mov    -0x14(%rbp),%eax
    4410:	5d                   	pop    %rbp
    4411:	c3                   	ret

0000000000004412 <e_file_load>:
    4412:	55                   	push   %rbp
    4413:	48 89 e5             	mov    %rsp,%rbp
    4416:	53                   	push   %rbx
    4417:	48 81 ec 98 00 00 00 	sub    $0x98,%rsp
    441e:	48 89 7d 98          	mov    %rdi,-0x68(%rbp)
    4422:	48 89 75 90          	mov    %rsi,-0x70(%rbp)
    4426:	48 89 55 88          	mov    %rdx,-0x78(%rbp)
    442a:	48 89 4d 80          	mov    %rcx,-0x80(%rbp)
    442e:	4c 89 85 78 ff ff ff 	mov    %r8,-0x88(%rbp)
    4435:	4c 89 8d 70 ff ff ff 	mov    %r9,-0x90(%rbp)
    443c:	48 8b 45 10          	mov    0x10(%rbp),%rax
    4440:	48 89 85 68 ff ff ff 	mov    %rax,-0x98(%rbp)
    4447:	64 48 8b 04 25 28 00 	mov    %fs:0x28,%rax
    444e:	00 00 
    4450:	48 89 45 e8          	mov    %rax,-0x18(%rbp)
    4454:	31 c0                	xor    %eax,%eax
    4456:	48 8b 55 98          	mov    -0x68(%rbp),%rdx
    445a:	48 8b 45 80          	mov    -0x80(%rbp),%rax
    445e:	48 89 d1             	mov    %rdx,%rcx
    4461:	ba 01 00 00 00       	mov    $0x1,%edx
    4466:	be 04 00 00 00       	mov    $0x4,%esi
    446b:	48 89 c7             	mov    %rax,%rdi
    446e:	e8 ed cb ff ff       	call   1060 <fread@plt>
    4473:	48 8b 45 80          	mov    -0x80(%rbp),%rax
    4477:	8b 00                	mov    (%rax),%eax
    4479:	89 c2                	mov    %eax,%edx
    447b:	48 89 d0             	mov    %rdx,%rax
    447e:	48 01 c0             	add    %rax,%rax
    4481:	48 01 d0             	add    %rdx,%rax
    4484:	48 c1 e0 03          	shl    $0x3,%rax
    4488:	48 89 c7             	mov    %rax,%rdi
    448b:	e8 b0 cc ff ff       	call   1140 <malloc@plt>
    4490:	48 89 45 b0          	mov    %rax,-0x50(%rbp)
    4494:	48 8b 85 78 ff ff ff 	mov    -0x88(%rbp),%rax
    449b:	48 8b 55 b0          	mov    -0x50(%rbp),%rdx
    449f:	48 89 10             	mov    %rdx,(%rax)
    44a2:	c7 45 a8 00 00 00 00 	movl   $0x0,-0x58(%rbp)
    44a9:	e9 5a 01 00 00       	jmp    4608 <e_file_load+0x1f6>
    44ae:	8b 45 a8             	mov    -0x58(%rbp),%eax
    44b1:	48 63 d0             	movslq %eax,%rdx
    44b4:	48 89 d0             	mov    %rdx,%rax
    44b7:	48 01 c0             	add    %rax,%rax
    44ba:	48 01 d0             	add    %rdx,%rax
    44bd:	48 c1 e0 03          	shl    $0x3,%rax
    44c1:	48 89 c2             	mov    %rax,%rdx
    44c4:	48 8b 45 b0          	mov    -0x50(%rbp),%rax
    44c8:	48 01 d0             	add    %rdx,%rax
    44cb:	48 89 c7             	mov    %rax,%rdi
    44ce:	48 8b 45 98          	mov    -0x68(%rbp),%rax
    44d2:	48 89 c1             	mov    %rax,%rcx
    44d5:	ba 01 00 00 00       	mov    $0x1,%edx
    44da:	be 04 00 00 00       	mov    $0x4,%esi
    44df:	e8 7c cb ff ff       	call   1060 <fread@plt>
    44e4:	8b 45 a8             	mov    -0x58(%rbp),%eax
    44e7:	48 63 d0             	movslq %eax,%rdx
    44ea:	48 89 d0             	mov    %rdx,%rax
    44ed:	48 01 c0             	add    %rax,%rax
    44f0:	48 01 d0             	add    %rdx,%rax
    44f3:	48 c1 e0 03          	shl    $0x3,%rax
    44f7:	48 89 c2             	mov    %rax,%rdx
    44fa:	48 8b 45 b0          	mov    -0x50(%rbp),%rax
    44fe:	48 01 d0             	add    %rdx,%rax
    4501:	48 89 45 b8          	mov    %rax,-0x48(%rbp)
    4505:	e8 2c fe ff ff       	call   4336 <e_refc_init>
    450a:	48 8b 55 b8          	mov    -0x48(%rbp),%rdx
    450e:	48 89 42 08          	mov    %rax,0x8(%rdx)
    4512:	8b 45 a8             	mov    -0x58(%rbp),%eax
    4515:	48 63 d0             	movslq %eax,%rdx
    4518:	48 89 d0             	mov    %rdx,%rax
    451b:	48 01 c0             	add    %rax,%rax
    451e:	48 01 d0             	add    %rdx,%rax
    4521:	48 c1 e0 03          	shl    $0x3,%rax
    4525:	48 89 c2             	mov    %rax,%rdx
    4528:	48 8b 45 b0          	mov    -0x50(%rbp),%rax
    452c:	48 01 d0             	add    %rdx,%rax
    452f:	8b 00                	mov    (%rax),%eax
    4531:	83 f8 05             	cmp    $0x5,%eax
    4534:	0f 85 93 00 00 00    	jne    45cd <e_file_load+0x1bb>
    453a:	c7 45 c0 00 00 00 00 	movl   $0x0,-0x40(%rbp)
    4541:	48 8b 55 98          	mov    -0x68(%rbp),%rdx
    4545:	48 8d 45 c0          	lea    -0x40(%rbp),%rax
    4549:	48 89 d1             	mov    %rdx,%rcx
    454c:	ba 01 00 00 00       	mov    $0x1,%edx
    4551:	be 04 00 00 00       	mov    $0x4,%esi
    4556:	48 89 c7             	mov    %rax,%rdi
    4559:	e8 02 cb ff ff       	call   1060 <fread@plt>
    455e:	bf 08 00 00 00       	mov    $0x8,%edi
    4563:	e8 d8 cb ff ff       	call   1140 <malloc@plt>
    4568:	48 89 c2             	mov    %rax,%rdx
    456b:	48 8b 45 b8          	mov    -0x48(%rbp),%rax
    456f:	48 89 50 10          	mov    %rdx,0x10(%rax)
    4573:	8b 45 c0             	mov    -0x40(%rbp),%eax
    4576:	83 c0 01             	add    $0x1,%eax
    4579:	89 c2                	mov    %eax,%edx
    457b:	48 8b 45 b8          	mov    -0x48(%rbp),%rax
    457f:	48 8b 58 10          	mov    0x10(%rax),%rbx
    4583:	48 89 d7             	mov    %rdx,%rdi
    4586:	e8 b5 cb ff ff       	call   1140 <malloc@plt>
    458b:	48 89 03             	mov    %rax,(%rbx)
    458e:	8b 45 c0             	mov    -0x40(%rbp),%eax
    4591:	89 c6                	mov    %eax,%esi
    4593:	48 8b 45 b8          	mov    -0x48(%rbp),%rax
    4597:	48 8b 40 10          	mov    0x10(%rax),%rax
    459b:	48 8b 00             	mov    (%rax),%rax
    459e:	48 8b 55 98          	mov    -0x68(%rbp),%rdx
    45a2:	48 89 d1             	mov    %rdx,%rcx
    45a5:	48 89 f2             	mov    %rsi,%rdx
    45a8:	be 01 00 00 00       	mov    $0x1,%esi
    45ad:	48 89 c7             	mov    %rax,%rdi
    45b0:	e8 ab ca ff ff       	call   1060 <fread@plt>
    45b5:	48 8b 45 b8          	mov    -0x48(%rbp),%rax
    45b9:	48 8b 40 10          	mov    0x10(%rax),%rax
    45bd:	48 8b 00             	mov    (%rax),%rax
    45c0:	8b 55 c0             	mov    -0x40(%rbp),%edx
    45c3:	89 d2                	mov    %edx,%edx
    45c5:	48 01 d0             	add    %rdx,%rax
    45c8:	c6 00 00             	movb   $0x0,(%rax)
    45cb:	eb 37                	jmp    4604 <e_file_load+0x1f2>
    45cd:	8b 45 a8             	mov    -0x58(%rbp),%eax
    45d0:	48 63 d0             	movslq %eax,%rdx
    45d3:	48 89 d0             	mov    %rdx,%rax
    45d6:	48 01 c0             	add    %rax,%rax
    45d9:	48 01 d0             	add    %rdx,%rax
    45dc:	48 c1 e0 03          	shl    $0x3,%rax
    45e0:	48 89 c2             	mov    %rax,%rdx
    45e3:	48 8b 45 b0          	mov    -0x50(%rbp),%rax
    45e7:	48 01 d0             	add    %rdx,%rax
    45ea:	48 8d 78 10          	lea    0x10(%rax),%rdi
    45ee:	48 8b 45 98          	mov    -0x68(%rbp),%rax
    45f2:	48 89 c1             	mov    %rax,%rcx
    45f5:	ba 01 00 00 00       	mov    $0x1,%edx
    45fa:	be 08 00 00 00       	mov    $0x8,%esi
    45ff:	e8 5c ca ff ff       	call   1060 <fread@plt>
    4604:	83 45 a8 01          	addl   $0x1,-0x58(%rbp)
    4608:	48 8b 45 80          	mov    -0x80(%rbp),%rax
    460c:	8b 00                	mov    (%rax),%eax
    460e:	8b 55 a8             	mov    -0x58(%rbp),%edx
    4611:	39 c2                	cmp    %eax,%edx
    4613:	0f 82 95 fe ff ff    	jb     44ae <e_file_load+0x9c>
    4619:	48 8b 55 98          	mov    -0x68(%rbp),%rdx
    461d:	48 8b 85 70 ff ff ff 	mov    -0x90(%rbp),%rax
    4624:	48 89 d1             	mov    %rdx,%rcx
    4627:	ba 01 00 00 00       	mov    $0x1,%edx
    462c:	be 04 00 00 00       	mov    $0x4,%esi
    4631:	48 89 c7             	mov    %rax,%rdi
    4634:	e8 27 ca ff ff       	call   1060 <fread@plt>
    4639:	48 8b 85 70 ff ff ff 	mov    -0x90(%rbp),%rax
    4640:	8b 00                	mov    (%rax),%eax
    4642:	89 c0                	mov    %eax,%eax
    4644:	48 c1 e0 05          	shl    $0x5,%rax
    4648:	48 89 c7             	mov    %rax,%rdi
    464b:	e8 f0 ca ff ff       	call   1140 <malloc@plt>
    4650:	48 89 c2             	mov    %rax,%rdx
    4653:	48 8b 85 68 ff ff ff 	mov    -0x98(%rbp),%rax
    465a:	48 89 10             	mov    %rdx,(%rax)
    465d:	c7 45 ac 00 00 00 00 	movl   $0x0,-0x54(%rbp)
    4664:	e9 fb 00 00 00       	jmp    4764 <e_file_load+0x352>
    4669:	48 8b 45 98          	mov    -0x68(%rbp),%rax
    466d:	48 8d 55 c0          	lea    -0x40(%rbp),%rdx
    4671:	48 8d 7a 14          	lea    0x14(%rdx),%rdi
    4675:	48 89 c1             	mov    %rax,%rcx
    4678:	ba 01 00 00 00       	mov    $0x1,%edx
    467d:	be 04 00 00 00       	mov    $0x4,%esi
    4682:	e8 d9 c9 ff ff       	call   1060 <fread@plt>
    4687:	48 8b 45 98          	mov    -0x68(%rbp),%rax
    468b:	48 8d 55 c0          	lea    -0x40(%rbp),%rdx
    468f:	48 8d 7a 18          	lea    0x18(%rdx),%rdi
    4693:	48 89 c1             	mov    %rax,%rcx
    4696:	ba 01 00 00 00       	mov    $0x1,%edx
    469b:	be 04 00 00 00       	mov    $0x4,%esi
    46a0:	e8 bb c9 ff ff       	call   1060 <fread@plt>
    46a5:	48 8b 45 98          	mov    -0x68(%rbp),%rax
    46a9:	48 8d 55 c0          	lea    -0x40(%rbp),%rdx
    46ad:	48 8d 7a 10          	lea    0x10(%rdx),%rdi
    46b1:	48 89 c1             	mov    %rax,%rcx
    46b4:	ba 01 00 00 00       	mov    $0x1,%edx
    46b9:	be 04 00 00 00       	mov    $0x4,%esi
    46be:	e8 9d c9 ff ff       	call   1060 <fread@plt>
    46c3:	8b 45 d8             	mov    -0x28(%rbp),%eax
    46c6:	89 c0                	mov    %eax,%eax
    46c8:	48 c1 e0 02          	shl    $0x2,%rax
    46cc:	48 89 c7             	mov    %rax,%rdi
    46cf:	e8 6c ca ff ff       	call   1140 <malloc@plt>
    46d4:	48 89 45 c8          	mov    %rax,-0x38(%rbp)
    46d8:	8b 45 d8             	mov    -0x28(%rbp),%eax
    46db:	89 c6                	mov    %eax,%esi
    46dd:	48 8b 45 c8          	mov    -0x38(%rbp),%rax
    46e1:	48 8b 55 98          	mov    -0x68(%rbp),%rdx
    46e5:	48 89 d1             	mov    %rdx,%rcx
    46e8:	48 89 f2             	mov    %rsi,%rdx
    46eb:	be 04 00 00 00       	mov    $0x4,%esi
    46f0:	48 89 c7             	mov    %rax,%rdi
    46f3:	e8 68 c9 ff ff       	call   1060 <fread@plt>
    46f8:	8b 45 d4             	mov    -0x2c(%rbp),%eax
    46fb:	89 c0                	mov    %eax,%eax
    46fd:	48 89 c7             	mov    %rax,%rdi
    4700:	e8 3b ca ff ff       	call   1140 <malloc@plt>
    4705:	48 89 45 c0          	mov    %rax,-0x40(%rbp)
    4709:	8b 45 d4             	mov    -0x2c(%rbp),%eax
    470c:	89 c6                	mov    %eax,%esi
    470e:	48 8b 45 c0          	mov    -0x40(%rbp),%rax
    4712:	48 8b 55 98          	mov    -0x68(%rbp),%rdx
    4716:	48 89 d1             	mov    %rdx,%rcx
    4719:	48 89 f2             	mov    %rsi,%rdx
    471c:	be 01 00 00 00       	mov    $0x1,%esi
    4721:	48 89 c7             	mov    %rax,%rdi
    4724:	e8 37 c9 ff ff       	call   1060 <fread@plt>
    4729:	48 8b 85 68 ff ff ff 	mov    -0x98(%rbp),%rax
    4730:	48 8b 00             	mov    (%rax),%rax
    4733:	8b 55 ac             	mov    -0x54(%rbp),%edx
    4736:	48 63 d2             	movslq %edx,%rdx
    4739:	48 c1 e2 05          	shl    $0x5,%rdx
    473d:	48 8d 0c 10          	lea    (%rax,%rdx,1),%rcx
    4741:	48 8b 45 c0          	mov    -0x40(%rbp),%rax
    4745:	48 8b 55 c8          	mov    -0x38(%rbp),%rdx
    4749:	48 89 01             	mov    %rax,(%rcx)
    474c:	48 89 51 08          	mov    %rdx,0x8(%rcx)
    4750:	48 8b 45 d0          	mov    -0x30(%rbp),%rax
    4754:	48 8b 55 d8          	mov    -0x28(%rbp),%rdx
    4758:	48 89 41 10          	mov    %rax,0x10(%rcx)
    475c:	48 89 51 18          	mov    %rdx,0x18(%rcx)
    4760:	83 45 ac 01          	addl   $0x1,-0x54(%rbp)
    4764:	48 8b 85 70 ff ff ff 	mov    -0x90(%rbp),%rax
    476b:	8b 00                	mov    (%rax),%eax
    476d:	8b 55 ac             	mov    -0x54(%rbp),%edx
    4770:	39 c2                	cmp    %eax,%edx
    4772:	0f 82 f1 fe ff ff    	jb     4669 <e_file_load+0x257>
    4778:	48 8b 55 98          	mov    -0x68(%rbp),%rdx
    477c:	48 8b 45 90          	mov    -0x70(%rbp),%rax
    4780:	48 89 d1             	mov    %rdx,%rcx
    4783:	ba 01 00 00 00       	mov    $0x1,%edx
    4788:	be 04 00 00 00       	mov    $0x4,%esi
    478d:	48 89 c7             	mov    %rax,%rdi
    4790:	e8 cb c8 ff ff       	call   1060 <fread@plt>
    4795:	48 8b 45 90          	mov    -0x70(%rbp),%rax
    4799:	8b 00                	mov    (%rax),%eax
    479b:	89 c0                	mov    %eax,%eax
    479d:	48 89 c7             	mov    %rax,%rdi
    47a0:	e8 9b c9 ff ff       	call   1140 <malloc@plt>
    47a5:	48 89 c2             	mov    %rax,%rdx
    47a8:	48 8b 45 88          	mov    -0x78(%rbp),%rax
    47ac:	48 89 10             	mov    %rdx,(%rax)
    47af:	48 8b 45 90          	mov    -0x70(%rbp),%rax
    47b3:	8b 00                	mov    (%rax),%eax
    47b5:	89 c6                	mov    %eax,%esi
    47b7:	48 8b 45 88          	mov    -0x78(%rbp),%rax
    47bb:	48 8b 00             	mov    (%rax),%rax
    47be:	48 8b 55 98          	mov    -0x68(%rbp),%rdx
    47c2:	48 89 d1             	mov    %rdx,%rcx
    47c5:	48 89 f2             	mov    %rsi,%rdx
    47c8:	be 01 00 00 00       	mov    $0x1,%esi
    47cd:	48 89 c7             	mov    %rax,%rdi
    47d0:	e8 8b c8 ff ff       	call   1060 <fread@plt>
    47d5:	90                   	nop
    47d6:	48 8b 45 e8          	mov    -0x18(%rbp),%rax
    47da:	64 48 2b 04 25 28 00 	sub    %fs:0x28,%rax
    47e1:	00 00 
    47e3:	74 05                	je     47ea <e_file_load+0x3d8>
    47e5:	e8 a6 c8 ff ff       	call   1090 <__stack_chk_fail@plt>
    47ea:	48 8b 5d f8          	mov    -0x8(%rbp),%rbx
    47ee:	c9                   	leave
    47ef:	c3                   	ret

00000000000047f0 <say_hello_from_c>:
    47f0:	55                   	push   %rbp
    47f1:	48 89 e5             	mov    %rsp,%rbp
    47f4:	48 83 ec 30          	sub    $0x30,%rsp
    47f8:	48 89 7d d8          	mov    %rdi,-0x28(%rbp)
    47fc:	48 89 75 d0          	mov    %rsi,-0x30(%rbp)
    4800:	48 8d 05 81 68 00 00 	lea    0x6881(%rip),%rax        # b088 <__PRETTY_FUNCTION__.0+0x15>
    4807:	48 89 c7             	mov    %rax,%rdi
    480a:	e8 41 c8 ff ff       	call   1050 <puts@plt>
    480f:	48 8b 45 d8          	mov    -0x28(%rbp),%rax
    4813:	66 0f ef c0          	pxor   %xmm0,%xmm0
    4817:	0f 11 00             	movups %xmm0,(%rax)
    481a:	66 0f d6 40 10       	movq   %xmm0,0x10(%rax)
    481f:	48 8b 45 d8          	mov    -0x28(%rbp),%rax
    4823:	c9                   	leave
    4824:	c3                   	ret

0000000000004825 <main>:
    4825:	55                   	push   %rbp
    4826:	48 89 e5             	mov    %rsp,%rbp
    4829:	48 81 ec f0 00 00 00 	sub    $0xf0,%rsp
    4830:	89 bd 1c ff ff ff    	mov    %edi,-0xe4(%rbp)
    4836:	48 89 b5 10 ff ff ff 	mov    %rsi,-0xf0(%rbp)
    483d:	64 48 8b 04 25 28 00 	mov    %fs:0x28,%rax
    4844:	00 00 
    4846:	48 89 45 f8          	mov    %rax,-0x8(%rbp)
    484a:	31 c0                	xor    %eax,%eax
    484c:	83 bd 1c ff ff ff 02 	cmpl   $0x2,-0xe4(%rbp)
    4853:	74 25                	je     487a <main+0x55>
    4855:	48 8d 15 a8 68 00 00 	lea    0x68a8(%rip),%rdx        # b104 <__PRETTY_FUNCTION__.0>
    485c:	48 8d 35 5d 68 00 00 	lea    0x685d(%rip),%rsi        # b0c0 <__PRETTY_FUNCTION__.0+0x4d>
    4863:	48 8d 05 61 68 00 00 	lea    0x6861(%rip),%rax        # b0cb <__PRETTY_FUNCTION__.0+0x58>
    486a:	48 89 d1             	mov    %rdx,%rcx
    486d:	ba 14 00 00 00       	mov    $0x14,%edx
    4872:	48 89 c7             	mov    %rax,%rdi
    4875:	e8 36 c8 ff ff       	call   10b0 <__assert_fail@plt>
    487a:	48 8b 85 10 ff ff ff 	mov    -0xf0(%rbp),%rax
    4881:	48 83 c0 08          	add    $0x8,%rax
    4885:	48 8b 00             	mov    (%rax),%rax
    4888:	48 8d 15 46 68 00 00 	lea    0x6846(%rip),%rdx        # b0d5 <__PRETTY_FUNCTION__.0+0x62>
    488f:	48 89 d6             	mov    %rdx,%rsi
    4892:	48 89 c7             	mov    %rax,%rdi
    4895:	e8 d6 c8 ff ff       	call   1170 <fopen@plt>
    489a:	48 89 85 58 ff ff ff 	mov    %rax,-0xa8(%rbp)
    48a1:	48 83 bd 58 ff ff ff 	cmpq   $0x0,-0xa8(%rbp)
    48a8:	00 
    48a9:	75 19                	jne    48c4 <main+0x9f>
    48ab:	48 8d 05 26 68 00 00 	lea    0x6826(%rip),%rax        # b0d8 <__PRETTY_FUNCTION__.0+0x65>
    48b2:	48 89 c7             	mov    %rax,%rdi
    48b5:	e8 c6 c8 ff ff       	call   1180 <perror@plt>
    48ba:	b8 ff ff ff ff       	mov    $0xffffffff,%eax
    48bf:	e9 17 02 00 00       	jmp    4adb <main+0x2b6>
    48c4:	4c 8d 8d 30 ff ff ff 	lea    -0xd0(%rbp),%r9
    48cb:	4c 8d 85 40 ff ff ff 	lea    -0xc0(%rbp),%r8
    48d2:	48 8d 8d 28 ff ff ff 	lea    -0xd8(%rbp),%rcx
    48d9:	48 8d 95 48 ff ff ff 	lea    -0xb8(%rbp),%rdx
    48e0:	48 8d b5 2c ff ff ff 	lea    -0xd4(%rbp),%rsi
    48e7:	48 8b 85 58 ff ff ff 	mov    -0xa8(%rbp),%rax
    48ee:	48 83 ec 08          	sub    $0x8,%rsp
    48f2:	48 8d bd 50 ff ff ff 	lea    -0xb0(%rbp),%rdi
    48f9:	57                   	push   %rdi
    48fa:	48 89 c7             	mov    %rax,%rdi
    48fd:	e8 10 fb ff ff       	call   4412 <e_file_load>
    4902:	48 83 c4 10          	add    $0x10,%rsp
    4906:	48 8d 05 e6 67 00 00 	lea    0x67e6(%rip),%rax        # b0f3 <__PRETTY_FUNCTION__.0+0x80>
    490d:	be 10 00 00 00       	mov    $0x10,%esi
    4912:	48 89 c7             	mov    %rax,%rdi
    4915:	e8 9f fa ff ff       	call   43b9 <e_hash_fnv>
    491a:	89 85 60 ff ff ff    	mov    %eax,-0xa0(%rbp)
    4920:	c7 85 64 ff ff ff 00 	movl   $0x0,-0x9c(%rbp)
    4927:	00 00 00 
    492a:	48 8d 05 bf fe ff ff 	lea    -0x141(%rip),%rax        # 47f0 <say_hello_from_c>
    4931:	48 89 85 68 ff ff ff 	mov    %rax,-0x98(%rbp)
    4938:	48 8b 85 48 ff ff ff 	mov    -0xb8(%rbp),%rax
    493f:	48 89 45 90          	mov    %rax,-0x70(%rbp)
    4943:	48 c7 45 98 00 00 00 	movq   $0x0,-0x68(%rbp)
    494a:	00 
    494b:	48 c7 45 a0 00 00 00 	movq   $0x0,-0x60(%rbp)
    4952:	00 
    4953:	48 8b 85 40 ff ff ff 	mov    -0xc0(%rbp),%rax
    495a:	48 89 45 a8          	mov    %rax,-0x58(%rbp)
    495e:	48 8b 85 50 ff ff ff 	mov    -0xb0(%rbp),%rax
    4965:	48 89 45 b0          	mov    %rax,-0x50(%rbp)
    4969:	48 8b 85 60 ff ff ff 	mov    -0xa0(%rbp),%rax
    4970:	48 8b 95 68 ff ff ff 	mov    -0x98(%rbp),%rdx
    4977:	48 89 45 e0          	mov    %rax,-0x20(%rbp)
    497b:	48 89 55 e8          	mov    %rdx,-0x18(%rbp)
    497f:	48 8d 45 e0          	lea    -0x20(%rbp),%rax
    4983:	48 89 45 b8          	mov    %rax,-0x48(%rbp)
    4987:	8b 85 2c ff ff ff    	mov    -0xd4(%rbp),%eax
    498d:	89 45 c0             	mov    %eax,-0x40(%rbp)
    4990:	c7 45 c4 00 00 00 00 	movl   $0x0,-0x3c(%rbp)
    4997:	8b 85 28 ff ff ff    	mov    -0xd8(%rbp),%eax
    499d:	89 45 c8             	mov    %eax,-0x38(%rbp)
    49a0:	8b 85 30 ff ff ff    	mov    -0xd0(%rbp),%eax
    49a6:	89 45 cc             	mov    %eax,-0x34(%rbp)
    49a9:	c7 45 d0 01 00 00 00 	movl   $0x1,-0x30(%rbp)
    49b0:	48 8d 85 70 ff ff ff 	lea    -0x90(%rbp),%rax
    49b7:	48 8d 55 90          	lea    -0x70(%rbp),%rdx
    49bb:	48 89 d6             	mov    %rdx,%rsi
    49be:	48 89 c7             	mov    %rax,%rdi
    49c1:	e8 2a e8 ff ff       	call   31f0 <e_exec>
    49c6:	48 8b 85 58 ff ff ff 	mov    -0xa8(%rbp),%rax
    49cd:	48 89 c7             	mov    %rax,%rdi
    49d0:	e8 9b c6 ff ff       	call   1070 <fclose@plt>
    49d5:	c7 85 34 ff ff ff 00 	movl   $0x0,-0xcc(%rbp)
    49dc:	00 00 00 
    49df:	eb 2c                	jmp    4a0d <main+0x1e8>
    49e1:	48 8b 8d 40 ff ff ff 	mov    -0xc0(%rbp),%rcx
    49e8:	8b 95 34 ff ff ff    	mov    -0xcc(%rbp),%edx
    49ee:	48 89 d0             	mov    %rdx,%rax
    49f1:	48 01 c0             	add    %rax,%rax
    49f4:	48 01 d0             	add    %rdx,%rax
    49f7:	48 c1 e0 03          	shl    $0x3,%rax
    49fb:	48 01 c8             	add    %rcx,%rax
    49fe:	48 89 c7             	mov    %rax,%rdi
    4a01:	e8 7a f9 ff ff       	call   4380 <e_var_release>
    4a06:	83 85 34 ff ff ff 01 	addl   $0x1,-0xcc(%rbp)
    4a0d:	8b 85 28 ff ff ff    	mov    -0xd8(%rbp),%eax
    4a13:	39 85 34 ff ff ff    	cmp    %eax,-0xcc(%rbp)
    4a19:	72 c6                	jb     49e1 <main+0x1bc>
    4a1b:	48 8b 85 40 ff ff ff 	mov    -0xc0(%rbp),%rax
    4a22:	48 89 c7             	mov    %rax,%rdi
    4a25:	e8 06 c6 ff ff       	call   1030 <free@plt>
    4a2a:	48 8b 85 48 ff ff ff 	mov    -0xb8(%rbp),%rax
    4a31:	48 89 c7             	mov    %rax,%rdi
    4a34:	e8 f7 c5 ff ff       	call   1030 <free@plt>
    4a39:	c7 85 38 ff ff ff 00 	movl   $0x0,-0xc8(%rbp)
    4a40:	00 00 00 
    4a43:	eb 46                	jmp    4a8b <main+0x266>
    4a45:	48 8b 85 50 ff ff ff 	mov    -0xb0(%rbp),%rax
    4a4c:	8b 95 38 ff ff ff    	mov    -0xc8(%rbp),%edx
    4a52:	48 c1 e2 05          	shl    $0x5,%rdx
    4a56:	48 01 d0             	add    %rdx,%rax
    4a59:	48 8b 40 08          	mov    0x8(%rax),%rax
    4a5d:	48 89 c7             	mov    %rax,%rdi
    4a60:	e8 cb c5 ff ff       	call   1030 <free@plt>
    4a65:	48 8b 85 50 ff ff ff 	mov    -0xb0(%rbp),%rax
    4a6c:	8b 95 38 ff ff ff    	mov    -0xc8(%rbp),%edx
    4a72:	48 c1 e2 05          	shl    $0x5,%rdx
    4a76:	48 01 d0             	add    %rdx,%rax
    4a79:	48 8b 00             	mov    (%rax),%rax
    4a7c:	48 89 c7             	mov    %rax,%rdi
    4a7f:	e8 ac c5 ff ff       	call   1030 <free@plt>
    4a84:	83 85 38 ff ff ff 01 	addl   $0x1,-0xc8(%rbp)
    4a8b:	8b 85 30 ff ff ff    	mov    -0xd0(%rbp),%eax
    4a91:	39 85 38 ff ff ff    	cmp    %eax,-0xc8(%rbp)
    4a97:	72 ac                	jb     4a45 <main+0x220>
    4a99:	48 8b 85 50 ff ff ff 	mov    -0xb0(%rbp),%rax
    4aa0:	48 89 c7             	mov    %rax,%rdi
    4aa3:	e8 88 c5 ff ff       	call   1030 <free@plt>
    4aa8:	c7 85 3c ff ff ff 00 	movl   $0x0,-0xc4(%rbp)
    4aaf:	00 00 00 
    4ab2:	8b 85 70 ff ff ff    	mov    -0x90(%rbp),%eax
    4ab8:	83 f8 01             	cmp    $0x1,%eax
    4abb:	75 09                	jne    4ac6 <main+0x2a1>
    4abd:	8b 45 80             	mov    -0x80(%rbp),%eax
    4ac0:	89 85 3c ff ff ff    	mov    %eax,-0xc4(%rbp)
    4ac6:	48 8d 85 70 ff ff ff 	lea    -0x90(%rbp),%rax
    4acd:	48 89 c7             	mov    %rax,%rdi
    4ad0:	e8 ab f8 ff ff       	call   4380 <e_var_release>
    4ad5:	8b 85 3c ff ff ff    	mov    -0xc4(%rbp),%eax
    4adb:	48 8b 55 f8          	mov    -0x8(%rbp),%rdx
    4adf:	64 48 2b 14 25 28 00 	sub    %fs:0x28,%rdx
    4ae6:	00 00 
    4ae8:	74 05                	je     4aef <main+0x2ca>
    4aea:	e8 a1 c5 ff ff       	call   1090 <__stack_chk_fail@plt>
    4aef:	c9                   	leave
    4af0:	c3                   	ret

0000000000004af1 <e_tokentype_to_string>:
    4af1:	55                   	push   %rbp
    4af2:	48 89 e5             	mov    %rsp,%rbp
    4af5:	89 7d fc             	mov    %edi,-0x4(%rbp)
    4af8:	83 7d fc 2c          	cmpl   $0x2c,-0x4(%rbp)
    4afc:	0f 84 03 04 00 00    	je     4f05 <e_tokentype_to_string+0x414>
    4b02:	83 7d fc 2c          	cmpl   $0x2c,-0x4(%rbp)
    4b06:	0f 87 e3 04 00 00    	ja     4fef <e_tokentype_to_string+0x4fe>
    4b0c:	83 7d fc 2b          	cmpl   $0x2b,-0x4(%rbp)
    4b10:	0f 84 d0 04 00 00    	je     4fe6 <e_tokentype_to_string+0x4f5>
    4b16:	83 7d fc 2b          	cmpl   $0x2b,-0x4(%rbp)
    4b1a:	0f 87 cf 04 00 00    	ja     4fef <e_tokentype_to_string+0x4fe>
    4b20:	83 7d fc 2a          	cmpl   $0x2a,-0x4(%rbp)
    4b24:	0f 84 b3 04 00 00    	je     4fdd <e_tokentype_to_string+0x4ec>
    4b2a:	83 7d fc 2a          	cmpl   $0x2a,-0x4(%rbp)
    4b2e:	0f 87 bb 04 00 00    	ja     4fef <e_tokentype_to_string+0x4fe>
    4b34:	83 7d fc 29          	cmpl   $0x29,-0x4(%rbp)
    4b38:	0f 84 96 04 00 00    	je     4fd4 <e_tokentype_to_string+0x4e3>
    4b3e:	83 7d fc 29          	cmpl   $0x29,-0x4(%rbp)
    4b42:	0f 87 a7 04 00 00    	ja     4fef <e_tokentype_to_string+0x4fe>
    4b48:	83 7d fc 28          	cmpl   $0x28,-0x4(%rbp)
    4b4c:	0f 84 79 04 00 00    	je     4fcb <e_tokentype_to_string+0x4da>
    4b52:	83 7d fc 28          	cmpl   $0x28,-0x4(%rbp)
    4b56:	0f 87 93 04 00 00    	ja     4fef <e_tokentype_to_string+0x4fe>
    4b5c:	83 7d fc 27          	cmpl   $0x27,-0x4(%rbp)
    4b60:	0f 84 93 03 00 00    	je     4ef9 <e_tokentype_to_string+0x408>
    4b66:	83 7d fc 27          	cmpl   $0x27,-0x4(%rbp)
    4b6a:	0f 87 7f 04 00 00    	ja     4fef <e_tokentype_to_string+0x4fe>
    4b70:	83 7d fc 26          	cmpl   $0x26,-0x4(%rbp)
    4b74:	0f 84 48 04 00 00    	je     4fc2 <e_tokentype_to_string+0x4d1>
    4b7a:	83 7d fc 26          	cmpl   $0x26,-0x4(%rbp)
    4b7e:	0f 87 6b 04 00 00    	ja     4fef <e_tokentype_to_string+0x4fe>
    4b84:	83 7d fc 25          	cmpl   $0x25,-0x4(%rbp)
    4b88:	0f 84 5f 03 00 00    	je     4eed <e_tokentype_to_string+0x3fc>
    4b8e:	83 7d fc 25          	cmpl   $0x25,-0x4(%rbp)
    4b92:	0f 87 57 04 00 00    	ja     4fef <e_tokentype_to_string+0x4fe>
    4b98:	83 7d fc 24          	cmpl   $0x24,-0x4(%rbp)
    4b9c:	0f 84 17 04 00 00    	je     4fb9 <e_tokentype_to_string+0x4c8>
    4ba2:	83 7d fc 24          	cmpl   $0x24,-0x4(%rbp)
    4ba6:	0f 87 43 04 00 00    	ja     4fef <e_tokentype_to_string+0x4fe>
    4bac:	83 7d fc 20          	cmpl   $0x20,-0x4(%rbp)
    4bb0:	0f 84 fa 03 00 00    	je     4fb0 <e_tokentype_to_string+0x4bf>
    4bb6:	83 7d fc 20          	cmpl   $0x20,-0x4(%rbp)
    4bba:	0f 87 2f 04 00 00    	ja     4fef <e_tokentype_to_string+0x4fe>
    4bc0:	83 7d fc 1f          	cmpl   $0x1f,-0x4(%rbp)
    4bc4:	0f 84 17 03 00 00    	je     4ee1 <e_tokentype_to_string+0x3f0>
    4bca:	83 7d fc 1f          	cmpl   $0x1f,-0x4(%rbp)
    4bce:	0f 87 1b 04 00 00    	ja     4fef <e_tokentype_to_string+0x4fe>
    4bd4:	83 7d fc 1e          	cmpl   $0x1e,-0x4(%rbp)
    4bd8:	0f 84 f7 02 00 00    	je     4ed5 <e_tokentype_to_string+0x3e4>
    4bde:	83 7d fc 1e          	cmpl   $0x1e,-0x4(%rbp)
    4be2:	0f 87 07 04 00 00    	ja     4fef <e_tokentype_to_string+0x4fe>
    4be8:	83 7d fc 1d          	cmpl   $0x1d,-0x4(%rbp)
    4bec:	0f 84 b5 03 00 00    	je     4fa7 <e_tokentype_to_string+0x4b6>
    4bf2:	83 7d fc 1d          	cmpl   $0x1d,-0x4(%rbp)
    4bf6:	0f 87 f3 03 00 00    	ja     4fef <e_tokentype_to_string+0x4fe>
    4bfc:	83 7d fc 1c          	cmpl   $0x1c,-0x4(%rbp)
    4c00:	0f 84 98 03 00 00    	je     4f9e <e_tokentype_to_string+0x4ad>
    4c06:	83 7d fc 1c          	cmpl   $0x1c,-0x4(%rbp)
    4c0a:	0f 87 df 03 00 00    	ja     4fef <e_tokentype_to_string+0x4fe>
    4c10:	83 7d fc 1b          	cmpl   $0x1b,-0x4(%rbp)
    4c14:	0f 84 af 02 00 00    	je     4ec9 <e_tokentype_to_string+0x3d8>
    4c1a:	83 7d fc 1b          	cmpl   $0x1b,-0x4(%rbp)
    4c1e:	0f 87 cb 03 00 00    	ja     4fef <e_tokentype_to_string+0x4fe>
    4c24:	83 7d fc 1a          	cmpl   $0x1a,-0x4(%rbp)
    4c28:	0f 84 8f 02 00 00    	je     4ebd <e_tokentype_to_string+0x3cc>
    4c2e:	83 7d fc 1a          	cmpl   $0x1a,-0x4(%rbp)
    4c32:	0f 87 b7 03 00 00    	ja     4fef <e_tokentype_to_string+0x4fe>
    4c38:	83 7d fc 19          	cmpl   $0x19,-0x4(%rbp)
    4c3c:	0f 84 6f 02 00 00    	je     4eb1 <e_tokentype_to_string+0x3c0>
    4c42:	83 7d fc 19          	cmpl   $0x19,-0x4(%rbp)
    4c46:	0f 87 a3 03 00 00    	ja     4fef <e_tokentype_to_string+0x4fe>
    4c4c:	83 7d fc 18          	cmpl   $0x18,-0x4(%rbp)
    4c50:	0f 84 4f 02 00 00    	je     4ea5 <e_tokentype_to_string+0x3b4>
    4c56:	83 7d fc 18          	cmpl   $0x18,-0x4(%rbp)
    4c5a:	0f 87 8f 03 00 00    	ja     4fef <e_tokentype_to_string+0x4fe>
    4c60:	83 7d fc 17          	cmpl   $0x17,-0x4(%rbp)
    4c64:	0f 84 2f 02 00 00    	je     4e99 <e_tokentype_to_string+0x3a8>
    4c6a:	83 7d fc 17          	cmpl   $0x17,-0x4(%rbp)
    4c6e:	0f 87 7b 03 00 00    	ja     4fef <e_tokentype_to_string+0x4fe>
    4c74:	83 7d fc 16          	cmpl   $0x16,-0x4(%rbp)
    4c78:	0f 84 0f 02 00 00    	je     4e8d <e_tokentype_to_string+0x39c>
    4c7e:	83 7d fc 16          	cmpl   $0x16,-0x4(%rbp)
    4c82:	0f 87 67 03 00 00    	ja     4fef <e_tokentype_to_string+0x4fe>
    4c88:	83 7d fc 15          	cmpl   $0x15,-0x4(%rbp)
    4c8c:	0f 84 03 03 00 00    	je     4f95 <e_tokentype_to_string+0x4a4>
    4c92:	83 7d fc 15          	cmpl   $0x15,-0x4(%rbp)
    4c96:	0f 87 53 03 00 00    	ja     4fef <e_tokentype_to_string+0x4fe>
    4c9c:	83 7d fc 14          	cmpl   $0x14,-0x4(%rbp)
    4ca0:	0f 84 e6 02 00 00    	je     4f8c <e_tokentype_to_string+0x49b>
    4ca6:	83 7d fc 14          	cmpl   $0x14,-0x4(%rbp)
    4caa:	0f 87 3f 03 00 00    	ja     4fef <e_tokentype_to_string+0x4fe>
    4cb0:	83 7d fc 13          	cmpl   $0x13,-0x4(%rbp)
    4cb4:	0f 84 c9 02 00 00    	je     4f83 <e_tokentype_to_string+0x492>
    4cba:	83 7d fc 13          	cmpl   $0x13,-0x4(%rbp)
    4cbe:	0f 87 2b 03 00 00    	ja     4fef <e_tokentype_to_string+0x4fe>
    4cc4:	83 7d fc 12          	cmpl   $0x12,-0x4(%rbp)
    4cc8:	0f 84 ac 02 00 00    	je     4f7a <e_tokentype_to_string+0x489>
    4cce:	83 7d fc 12          	cmpl   $0x12,-0x4(%rbp)
    4cd2:	0f 87 17 03 00 00    	ja     4fef <e_tokentype_to_string+0x4fe>
    4cd8:	83 7d fc 11          	cmpl   $0x11,-0x4(%rbp)
    4cdc:	0f 84 8f 02 00 00    	je     4f71 <e_tokentype_to_string+0x480>
    4ce2:	83 7d fc 11          	cmpl   $0x11,-0x4(%rbp)
    4ce6:	0f 87 03 03 00 00    	ja     4fef <e_tokentype_to_string+0x4fe>
    4cec:	83 7d fc 10          	cmpl   $0x10,-0x4(%rbp)
    4cf0:	0f 84 6f 02 00 00    	je     4f65 <e_tokentype_to_string+0x474>
    4cf6:	83 7d fc 10          	cmpl   $0x10,-0x4(%rbp)
    4cfa:	0f 87 ef 02 00 00    	ja     4fef <e_tokentype_to_string+0x4fe>
    4d00:	83 7d fc 0f          	cmpl   $0xf,-0x4(%rbp)
    4d04:	0f 84 4f 02 00 00    	je     4f59 <e_tokentype_to_string+0x468>
    4d0a:	83 7d fc 0f          	cmpl   $0xf,-0x4(%rbp)
    4d0e:	0f 87 db 02 00 00    	ja     4fef <e_tokentype_to_string+0x4fe>
    4d14:	83 7d fc 0e          	cmpl   $0xe,-0x4(%rbp)
    4d18:	0f 84 63 01 00 00    	je     4e81 <e_tokentype_to_string+0x390>
    4d1e:	83 7d fc 0e          	cmpl   $0xe,-0x4(%rbp)
    4d22:	0f 87 c7 02 00 00    	ja     4fef <e_tokentype_to_string+0x4fe>
    4d28:	83 7d fc 0d          	cmpl   $0xd,-0x4(%rbp)
    4d2c:	0f 84 43 01 00 00    	je     4e75 <e_tokentype_to_string+0x384>
    4d32:	83 7d fc 0d          	cmpl   $0xd,-0x4(%rbp)
    4d36:	0f 87 b3 02 00 00    	ja     4fef <e_tokentype_to_string+0x4fe>
    4d3c:	83 7d fc 0c          	cmpl   $0xc,-0x4(%rbp)
    4d40:	0f 84 23 01 00 00    	je     4e69 <e_tokentype_to_string+0x378>
    4d46:	83 7d fc 0c          	cmpl   $0xc,-0x4(%rbp)
    4d4a:	0f 87 9f 02 00 00    	ja     4fef <e_tokentype_to_string+0x4fe>
    4d50:	83 7d fc 0b          	cmpl   $0xb,-0x4(%rbp)
    4d54:	0f 84 03 01 00 00    	je     4e5d <e_tokentype_to_string+0x36c>
    4d5a:	83 7d fc 0b          	cmpl   $0xb,-0x4(%rbp)
    4d5e:	0f 87 8b 02 00 00    	ja     4fef <e_tokentype_to_string+0x4fe>
    4d64:	83 7d fc 0a          	cmpl   $0xa,-0x4(%rbp)
    4d68:	0f 84 df 01 00 00    	je     4f4d <e_tokentype_to_string+0x45c>
    4d6e:	83 7d fc 0a          	cmpl   $0xa,-0x4(%rbp)
    4d72:	0f 87 77 02 00 00    	ja     4fef <e_tokentype_to_string+0x4fe>
    4d78:	83 7d fc 09          	cmpl   $0x9,-0x4(%rbp)
    4d7c:	0f 84 bf 01 00 00    	je     4f41 <e_tokentype_to_string+0x450>
    4d82:	83 7d fc 09          	cmpl   $0x9,-0x4(%rbp)
    4d86:	0f 87 63 02 00 00    	ja     4fef <e_tokentype_to_string+0x4fe>
    4d8c:	83 7d fc 08          	cmpl   $0x8,-0x4(%rbp)
    4d90:	0f 84 bb 00 00 00    	je     4e51 <e_tokentype_to_string+0x360>
    4d96:	83 7d fc 08          	cmpl   $0x8,-0x4(%rbp)
    4d9a:	0f 87 4f 02 00 00    	ja     4fef <e_tokentype_to_string+0x4fe>
    4da0:	83 7d fc 07          	cmpl   $0x7,-0x4(%rbp)
    4da4:	0f 84 8b 01 00 00    	je     4f35 <e_tokentype_to_string+0x444>
    4daa:	83 7d fc 07          	cmpl   $0x7,-0x4(%rbp)
    4dae:	0f 87 3b 02 00 00    	ja     4fef <e_tokentype_to_string+0x4fe>
    4db4:	83 7d fc 06          	cmpl   $0x6,-0x4(%rbp)
    4db8:	0f 84 6b 01 00 00    	je     4f29 <e_tokentype_to_string+0x438>
    4dbe:	83 7d fc 06          	cmpl   $0x6,-0x4(%rbp)
    4dc2:	0f 87 27 02 00 00    	ja     4fef <e_tokentype_to_string+0x4fe>
    4dc8:	83 7d fc 05          	cmpl   $0x5,-0x4(%rbp)
    4dcc:	0f 84 4b 01 00 00    	je     4f1d <e_tokentype_to_string+0x42c>
    4dd2:	83 7d fc 05          	cmpl   $0x5,-0x4(%rbp)
    4dd6:	0f 87 13 02 00 00    	ja     4fef <e_tokentype_to_string+0x4fe>
    4ddc:	83 7d fc 04          	cmpl   $0x4,-0x4(%rbp)
    4de0:	0f 84 2b 01 00 00    	je     4f11 <e_tokentype_to_string+0x420>
    4de6:	83 7d fc 04          	cmpl   $0x4,-0x4(%rbp)
    4dea:	0f 87 ff 01 00 00    	ja     4fef <e_tokentype_to_string+0x4fe>
    4df0:	83 7d fc 03          	cmpl   $0x3,-0x4(%rbp)
    4df4:	74 4f                	je     4e45 <e_tokentype_to_string+0x354>
    4df6:	83 7d fc 03          	cmpl   $0x3,-0x4(%rbp)
    4dfa:	0f 87 ef 01 00 00    	ja     4fef <e_tokentype_to_string+0x4fe>
    4e00:	83 7d fc 02          	cmpl   $0x2,-0x4(%rbp)
    4e04:	74 33                	je     4e39 <e_tokentype_to_string+0x348>
    4e06:	83 7d fc 02          	cmpl   $0x2,-0x4(%rbp)
    4e0a:	0f 87 df 01 00 00    	ja     4fef <e_tokentype_to_string+0x4fe>
    4e10:	83 7d fc 00          	cmpl   $0x0,-0x4(%rbp)
    4e14:	74 0b                	je     4e21 <e_tokentype_to_string+0x330>
    4e16:	83 7d fc 01          	cmpl   $0x1,-0x4(%rbp)
    4e1a:	74 11                	je     4e2d <e_tokentype_to_string+0x33c>
    4e1c:	e9 ce 01 00 00       	jmp    4fef <e_tokentype_to_string+0x4fe>
    4e21:	48 8d 05 e8 62 00 00 	lea    0x62e8(%rip),%rax        # b110 <__PRETTY_FUNCTION__.0+0xc>
    4e28:	e9 c9 01 00 00       	jmp    4ff6 <e_tokentype_to_string+0x505>
    4e2d:	48 8d 05 e0 62 00 00 	lea    0x62e0(%rip),%rax        # b114 <__PRETTY_FUNCTION__.0+0x10>
    4e34:	e9 bd 01 00 00       	jmp    4ff6 <e_tokentype_to_string+0x505>
    4e39:	48 8d 05 de 62 00 00 	lea    0x62de(%rip),%rax        # b11e <__PRETTY_FUNCTION__.0+0x1a>
    4e40:	e9 b1 01 00 00       	jmp    4ff6 <e_tokentype_to_string+0x505>
    4e45:	48 8d 05 d8 62 00 00 	lea    0x62d8(%rip),%rax        # b124 <__PRETTY_FUNCTION__.0+0x20>
    4e4c:	e9 a5 01 00 00       	jmp    4ff6 <e_tokentype_to_string+0x505>
    4e51:	48 8d 05 d2 62 00 00 	lea    0x62d2(%rip),%rax        # b12a <__PRETTY_FUNCTION__.0+0x26>
    4e58:	e9 99 01 00 00       	jmp    4ff6 <e_tokentype_to_string+0x505>
    4e5d:	48 8d 05 ca 62 00 00 	lea    0x62ca(%rip),%rax        # b12e <__PRETTY_FUNCTION__.0+0x2a>
    4e64:	e9 8d 01 00 00       	jmp    4ff6 <e_tokentype_to_string+0x505>
    4e69:	48 8d 05 c4 62 00 00 	lea    0x62c4(%rip),%rax        # b134 <__PRETTY_FUNCTION__.0+0x30>
    4e70:	e9 81 01 00 00       	jmp    4ff6 <e_tokentype_to_string+0x505>
    4e75:	48 8d 05 bf 62 00 00 	lea    0x62bf(%rip),%rax        # b13b <__PRETTY_FUNCTION__.0+0x37>
    4e7c:	e9 75 01 00 00       	jmp    4ff6 <e_tokentype_to_string+0x505>
    4e81:	48 8d 05 b6 62 00 00 	lea    0x62b6(%rip),%rax        # b13e <__PRETTY_FUNCTION__.0+0x3a>
    4e88:	e9 69 01 00 00       	jmp    4ff6 <e_tokentype_to_string+0x505>
    4e8d:	48 8d 05 ae 62 00 00 	lea    0x62ae(%rip),%rax        # b142 <__PRETTY_FUNCTION__.0+0x3e>
    4e94:	e9 5d 01 00 00       	jmp    4ff6 <e_tokentype_to_string+0x505>
    4e99:	48 8d 05 a7 62 00 00 	lea    0x62a7(%rip),%rax        # b147 <__PRETTY_FUNCTION__.0+0x43>
    4ea0:	e9 51 01 00 00       	jmp    4ff6 <e_tokentype_to_string+0x505>
    4ea5:	48 8d 05 a1 62 00 00 	lea    0x62a1(%rip),%rax        # b14d <__PRETTY_FUNCTION__.0+0x49>
    4eac:	e9 45 01 00 00       	jmp    4ff6 <e_tokentype_to_string+0x505>
    4eb1:	48 8d 05 9e 62 00 00 	lea    0x629e(%rip),%rax        # b156 <__PRETTY_FUNCTION__.0+0x52>
    4eb8:	e9 39 01 00 00       	jmp    4ff6 <e_tokentype_to_string+0x505>
    4ebd:	48 8d 05 99 62 00 00 	lea    0x6299(%rip),%rax        # b15d <__PRETTY_FUNCTION__.0+0x59>
    4ec4:	e9 2d 01 00 00       	jmp    4ff6 <e_tokentype_to_string+0x505>
    4ec9:	48 8d 05 96 62 00 00 	lea    0x6296(%rip),%rax        # b166 <__PRETTY_FUNCTION__.0+0x62>
    4ed0:	e9 21 01 00 00       	jmp    4ff6 <e_tokentype_to_string+0x505>
    4ed5:	48 8d 05 8e 62 00 00 	lea    0x628e(%rip),%rax        # b16a <__PRETTY_FUNCTION__.0+0x66>
    4edc:	e9 15 01 00 00       	jmp    4ff6 <e_tokentype_to_string+0x505>
    4ee1:	48 8d 05 86 62 00 00 	lea    0x6286(%rip),%rax        # b16e <__PRETTY_FUNCTION__.0+0x6a>
    4ee8:	e9 09 01 00 00       	jmp    4ff6 <e_tokentype_to_string+0x505>
    4eed:	48 8d 05 7d 62 00 00 	lea    0x627d(%rip),%rax        # b171 <__PRETTY_FUNCTION__.0+0x6d>
    4ef4:	e9 fd 00 00 00       	jmp    4ff6 <e_tokentype_to_string+0x505>
    4ef9:	48 8d 05 77 62 00 00 	lea    0x6277(%rip),%rax        # b177 <__PRETTY_FUNCTION__.0+0x73>
    4f00:	e9 f1 00 00 00       	jmp    4ff6 <e_tokentype_to_string+0x505>
    4f05:	48 8d 05 77 62 00 00 	lea    0x6277(%rip),%rax        # b183 <__PRETTY_FUNCTION__.0+0x7f>
    4f0c:	e9 e5 00 00 00       	jmp    4ff6 <e_tokentype_to_string+0x505>
    4f11:	48 8d 05 71 62 00 00 	lea    0x6271(%rip),%rax        # b189 <__PRETTY_FUNCTION__.0+0x85>
    4f18:	e9 d9 00 00 00       	jmp    4ff6 <e_tokentype_to_string+0x505>
    4f1d:	48 8d 05 6f 62 00 00 	lea    0x626f(%rip),%rax        # b193 <__PRETTY_FUNCTION__.0+0x8f>
    4f24:	e9 cd 00 00 00       	jmp    4ff6 <e_tokentype_to_string+0x505>
    4f29:	48 8d 05 6e 62 00 00 	lea    0x626e(%rip),%rax        # b19e <__PRETTY_FUNCTION__.0+0x9a>
    4f30:	e9 c1 00 00 00       	jmp    4ff6 <e_tokentype_to_string+0x505>
    4f35:	48 8d 05 6c 62 00 00 	lea    0x626c(%rip),%rax        # b1a8 <__PRETTY_FUNCTION__.0+0xa4>
    4f3c:	e9 b5 00 00 00       	jmp    4ff6 <e_tokentype_to_string+0x505>
    4f41:	48 8d 05 6b 62 00 00 	lea    0x626b(%rip),%rax        # b1b3 <__PRETTY_FUNCTION__.0+0xaf>
    4f48:	e9 a9 00 00 00       	jmp    4ff6 <e_tokentype_to_string+0x505>
    4f4d:	48 8d 05 64 62 00 00 	lea    0x6264(%rip),%rax        # b1b8 <__PRETTY_FUNCTION__.0+0xb4>
    4f54:	e9 9d 00 00 00       	jmp    4ff6 <e_tokentype_to_string+0x505>
    4f59:	48 8d 05 5d 62 00 00 	lea    0x625d(%rip),%rax        # b1bd <__PRETTY_FUNCTION__.0+0xb9>
    4f60:	e9 91 00 00 00       	jmp    4ff6 <e_tokentype_to_string+0x505>
    4f65:	48 8d 05 54 62 00 00 	lea    0x6254(%rip),%rax        # b1c0 <__PRETTY_FUNCTION__.0+0xbc>
    4f6c:	e9 85 00 00 00       	jmp    4ff6 <e_tokentype_to_string+0x505>
    4f71:	48 8d 05 4d 62 00 00 	lea    0x624d(%rip),%rax        # b1c5 <__PRETTY_FUNCTION__.0+0xc1>
    4f78:	eb 7c                	jmp    4ff6 <e_tokentype_to_string+0x505>
    4f7a:	48 8d 05 4a 62 00 00 	lea    0x624a(%rip),%rax        # b1cb <__PRETTY_FUNCTION__.0+0xc7>
    4f81:	eb 73                	jmp    4ff6 <e_tokentype_to_string+0x505>
    4f83:	48 8d 05 45 62 00 00 	lea    0x6245(%rip),%rax        # b1cf <__PRETTY_FUNCTION__.0+0xcb>
    4f8a:	eb 6a                	jmp    4ff6 <e_tokentype_to_string+0x505>
    4f8c:	48 8d 05 42 62 00 00 	lea    0x6242(%rip),%rax        # b1d5 <__PRETTY_FUNCTION__.0+0xd1>
    4f93:	eb 61                	jmp    4ff6 <e_tokentype_to_string+0x505>
    4f95:	48 8d 05 42 62 00 00 	lea    0x6242(%rip),%rax        # b1de <__PRETTY_FUNCTION__.0+0xda>
    4f9c:	eb 58                	jmp    4ff6 <e_tokentype_to_string+0x505>
    4f9e:	48 8d 05 40 62 00 00 	lea    0x6240(%rip),%rax        # b1e5 <__PRETTY_FUNCTION__.0+0xe1>
    4fa5:	eb 4f                	jmp    4ff6 <e_tokentype_to_string+0x505>
    4fa7:	48 8d 05 40 62 00 00 	lea    0x6240(%rip),%rax        # b1ee <__PRETTY_FUNCTION__.0+0xea>
    4fae:	eb 46                	jmp    4ff6 <e_tokentype_to_string+0x505>
    4fb0:	48 8d 05 42 62 00 00 	lea    0x6242(%rip),%rax        # b1f9 <__PRETTY_FUNCTION__.0+0xf5>
    4fb7:	eb 3d                	jmp    4ff6 <e_tokentype_to_string+0x505>
    4fb9:	48 8d 05 3d 62 00 00 	lea    0x623d(%rip),%rax        # b1fd <__PRETTY_FUNCTION__.0+0xf9>
    4fc0:	eb 34                	jmp    4ff6 <e_tokentype_to_string+0x505>
    4fc2:	48 8d 05 39 62 00 00 	lea    0x6239(%rip),%rax        # b202 <__PRETTY_FUNCTION__.0+0xfe>
    4fc9:	eb 2b                	jmp    4ff6 <e_tokentype_to_string+0x505>
    4fcb:	48 8d 05 39 62 00 00 	lea    0x6239(%rip),%rax        # b20b <__PRETTY_FUNCTION__.0+0x107>
    4fd2:	eb 22                	jmp    4ff6 <e_tokentype_to_string+0x505>
    4fd4:	48 8d 05 33 62 00 00 	lea    0x6233(%rip),%rax        # b20e <__PRETTY_FUNCTION__.0+0x10a>
    4fdb:	eb 19                	jmp    4ff6 <e_tokentype_to_string+0x505>
    4fdd:	48 8d 05 2e 62 00 00 	lea    0x622e(%rip),%rax        # b212 <__PRETTY_FUNCTION__.0+0x10e>
    4fe4:	eb 10                	jmp    4ff6 <e_tokentype_to_string+0x505>
    4fe6:	48 8d 05 28 62 00 00 	lea    0x6228(%rip),%rax        # b215 <__PRETTY_FUNCTION__.0+0x111>
    4fed:	eb 07                	jmp    4ff6 <e_tokentype_to_string+0x505>
    4fef:	48 8d 05 23 62 00 00 	lea    0x6223(%rip),%rax        # b219 <__PRETTY_FUNCTION__.0+0x115>
    4ff6:	5d                   	pop    %rbp
    4ff7:	c3                   	ret

0000000000004ff8 <e_ast_next>:
    4ff8:	55                   	push   %rbp
    4ff9:	48 89 e5             	mov    %rsp,%rbp
    4ffc:	48 89 7d f8          	mov    %rdi,-0x8(%rbp)
    5000:	48 8b 45 f8          	mov    -0x8(%rbp),%rax
    5004:	8b 50 1c             	mov    0x1c(%rax),%edx
    5007:	48 8b 45 f8          	mov    -0x8(%rbp),%rax
    500b:	8b 40 18             	mov    0x18(%rax),%eax
    500e:	39 c2                	cmp    %eax,%edx
    5010:	7c 07                	jl     5019 <e_ast_next+0x21>
    5012:	b8 00 00 00 00       	mov    $0x0,%eax
    5017:	eb 22                	jmp    503b <e_ast_next+0x43>
    5019:	48 8b 45 f8          	mov    -0x8(%rbp),%rax
    501d:	48 8b 70 10          	mov    0x10(%rax),%rsi
    5021:	48 8b 45 f8          	mov    -0x8(%rbp),%rax
    5025:	8b 40 1c             	mov    0x1c(%rax),%eax
    5028:	8d 48 01             	lea    0x1(%rax),%ecx
    502b:	48 8b 55 f8          	mov    -0x8(%rbp),%rdx
    502f:	89 4a 1c             	mov    %ecx,0x1c(%rdx)
    5032:	48 98                	cltq
    5034:	48 c1 e0 05          	shl    $0x5,%rax
    5038:	48 01 f0             	add    %rsi,%rax
    503b:	5d                   	pop    %rbp
    503c:	c3                   	ret

000000000000503d <e_ast_peek>:
    503d:	55                   	push   %rbp
    503e:	48 89 e5             	mov    %rsp,%rbp
    5041:	48 89 7d f8          	mov    %rdi,-0x8(%rbp)
    5045:	48 8b 45 f8          	mov    -0x8(%rbp),%rax
    5049:	8b 50 1c             	mov    0x1c(%rax),%edx
    504c:	48 8b 45 f8          	mov    -0x8(%rbp),%rax
    5050:	8b 40 18             	mov    0x18(%rax),%eax
    5053:	39 c2                	cmp    %eax,%edx
    5055:	7c 07                	jl     505e <e_ast_peek+0x21>
    5057:	b8 00 00 00 00       	mov    $0x0,%eax
    505c:	eb 18                	jmp    5076 <e_ast_peek+0x39>
    505e:	48 8b 45 f8          	mov    -0x8(%rbp),%rax
    5062:	48 8b 50 10          	mov    0x10(%rax),%rdx
    5066:	48 8b 45 f8          	mov    -0x8(%rbp),%rax
    506a:	8b 40 1c             	mov    0x1c(%rax),%eax
    506d:	48 98                	cltq
    506f:	48 c1 e0 05          	shl    $0x5,%rax
    5073:	48 01 d0             	add    %rdx,%rax
    5076:	5d                   	pop    %rbp
    5077:	c3                   	ret

0000000000005078 <e_getbp>:
    5078:	55                   	push   %rbp
    5079:	48 89 e5             	mov    %rsp,%rbp
    507c:	89 7d fc             	mov    %edi,-0x4(%rbp)
    507f:	48 89 75 f0          	mov    %rsi,-0x10(%rbp)
    5083:	48 89 55 e8          	mov    %rdx,-0x18(%rbp)
    5087:	83 7d fc 2b          	cmpl   $0x2b,-0x4(%rbp)
    508b:	0f 87 62 02 00 00    	ja     52f3 <e_getbp+0x27b>
    5091:	83 7d fc 26          	cmpl   $0x26,-0x4(%rbp)
    5095:	0f 83 b8 01 00 00    	jae    5253 <e_getbp+0x1db>
    509b:	83 7d fc 25          	cmpl   $0x25,-0x4(%rbp)
    509f:	0f 84 ff 00 00 00    	je     51a4 <e_getbp+0x12c>
    50a5:	83 7d fc 25          	cmpl   $0x25,-0x4(%rbp)
    50a9:	0f 87 44 02 00 00    	ja     52f3 <e_getbp+0x27b>
    50af:	83 7d fc 24          	cmpl   $0x24,-0x4(%rbp)
    50b3:	0f 84 e2 01 00 00    	je     529b <e_getbp+0x223>
    50b9:	83 7d fc 24          	cmpl   $0x24,-0x4(%rbp)
    50bd:	0f 87 30 02 00 00    	ja     52f3 <e_getbp+0x27b>
    50c3:	83 7d fc 23          	cmpl   $0x23,-0x4(%rbp)
    50c7:	0f 84 54 01 00 00    	je     5221 <e_getbp+0x1a9>
    50cd:	83 7d fc 23          	cmpl   $0x23,-0x4(%rbp)
    50d1:	0f 87 1c 02 00 00    	ja     52f3 <e_getbp+0x27b>
    50d7:	83 7d fc 22          	cmpl   $0x22,-0x4(%rbp)
    50db:	0f 84 27 01 00 00    	je     5208 <e_getbp+0x190>
    50e1:	83 7d fc 22          	cmpl   $0x22,-0x4(%rbp)
    50e5:	0f 87 08 02 00 00    	ja     52f3 <e_getbp+0x27b>
    50eb:	83 7d fc 21          	cmpl   $0x21,-0x4(%rbp)
    50ef:	0f 84 45 01 00 00    	je     523a <e_getbp+0x1c2>
    50f5:	83 7d fc 21          	cmpl   $0x21,-0x4(%rbp)
    50f9:	0f 87 f4 01 00 00    	ja     52f3 <e_getbp+0x27b>
    50ff:	83 7d fc 20          	cmpl   $0x20,-0x4(%rbp)
    5103:	0f 84 e6 00 00 00    	je     51ef <e_getbp+0x177>
    5109:	83 7d fc 20          	cmpl   $0x20,-0x4(%rbp)
    510d:	0f 87 e0 01 00 00    	ja     52f3 <e_getbp+0x27b>
    5113:	83 7d fc 1f          	cmpl   $0x1f,-0x4(%rbp)
    5117:	0f 84 a0 00 00 00    	je     51bd <e_getbp+0x145>
    511d:	83 7d fc 1f          	cmpl   $0x1f,-0x4(%rbp)
    5121:	0f 87 cc 01 00 00    	ja     52f3 <e_getbp+0x27b>
    5127:	83 7d fc 1e          	cmpl   $0x1e,-0x4(%rbp)
    512b:	0f 84 a5 00 00 00    	je     51d6 <e_getbp+0x15e>
    5131:	83 7d fc 1e          	cmpl   $0x1e,-0x4(%rbp)
    5135:	0f 87 b8 01 00 00    	ja     52f3 <e_getbp+0x27b>
    513b:	83 7d fc 1d          	cmpl   $0x1d,-0x4(%rbp)
    513f:	0f 87 ae 01 00 00    	ja     52f3 <e_getbp+0x27b>
    5145:	83 7d fc 1c          	cmpl   $0x1c,-0x4(%rbp)
    5149:	0f 83 8e 01 00 00    	jae    52dd <e_getbp+0x265>
    514f:	83 7d fc 1b          	cmpl   $0x1b,-0x4(%rbp)
    5153:	0f 84 2c 01 00 00    	je     5285 <e_getbp+0x20d>
    5159:	83 7d fc 1b          	cmpl   $0x1b,-0x4(%rbp)
    515d:	0f 87 90 01 00 00    	ja     52f3 <e_getbp+0x27b>
    5163:	83 7d fc 19          	cmpl   $0x19,-0x4(%rbp)
    5167:	0f 87 86 01 00 00    	ja     52f3 <e_getbp+0x27b>
    516d:	83 7d fc 18          	cmpl   $0x18,-0x4(%rbp)
    5171:	0f 83 0e 01 00 00    	jae    5285 <e_getbp+0x20d>
    5177:	83 7d fc 17          	cmpl   $0x17,-0x4(%rbp)
    517b:	0f 87 72 01 00 00    	ja     52f3 <e_getbp+0x27b>
    5181:	83 7d fc 16          	cmpl   $0x16,-0x4(%rbp)
    5185:	0f 83 e1 00 00 00    	jae    526c <e_getbp+0x1f4>
    518b:	83 7d fc 04          	cmpl   $0x4,-0x4(%rbp)
    518f:	0f 84 32 01 00 00    	je     52c7 <e_getbp+0x24f>
    5195:	83 7d fc 06          	cmpl   $0x6,-0x4(%rbp)
    5199:	0f 84 12 01 00 00    	je     52b1 <e_getbp+0x239>
    519f:	e9 4f 01 00 00       	jmp    52f3 <e_getbp+0x27b>
    51a4:	48 8b 45 f0          	mov    -0x10(%rbp),%rax
    51a8:	c7 00 0a 00 00 00    	movl   $0xa,(%rax)
    51ae:	48 8b 45 e8          	mov    -0x18(%rbp),%rax
    51b2:	c7 00 09 00 00 00    	movl   $0x9,(%rax)
    51b8:	e9 53 01 00 00       	jmp    5310 <e_getbp+0x298>
    51bd:	48 8b 45 f0          	mov    -0x10(%rbp),%rax
    51c1:	c7 00 14 00 00 00    	movl   $0x14,(%rax)
    51c7:	48 8b 45 e8          	mov    -0x18(%rbp),%rax
    51cb:	c7 00 15 00 00 00    	movl   $0x15,(%rax)
    51d1:	e9 3a 01 00 00       	jmp    5310 <e_getbp+0x298>
    51d6:	48 8b 45 f0          	mov    -0x10(%rbp),%rax
    51da:	c7 00 1e 00 00 00    	movl   $0x1e,(%rax)
    51e0:	48 8b 45 e8          	mov    -0x18(%rbp),%rax
    51e4:	c7 00 1f 00 00 00    	movl   $0x1f,(%rax)
    51ea:	e9 21 01 00 00       	jmp    5310 <e_getbp+0x298>
    51ef:	48 8b 45 f0          	mov    -0x10(%rbp),%rax
    51f3:	c7 00 00 00 00 00    	movl   $0x0,(%rax)
    51f9:	48 8b 45 e8          	mov    -0x18(%rbp),%rax
    51fd:	c7 00 09 00 00 00    	movl   $0x9,(%rax)
    5203:	e9 08 01 00 00       	jmp    5310 <e_getbp+0x298>
    5208:	48 8b 45 f0          	mov    -0x10(%rbp),%rax
    520c:	c7 00 20 00 00 00    	movl   $0x20,(%rax)
    5212:	48 8b 45 e8          	mov    -0x18(%rbp),%rax
    5216:	c7 00 21 00 00 00    	movl   $0x21,(%rax)
    521c:	e9 ef 00 00 00       	jmp    5310 <e_getbp+0x298>
    5221:	48 8b 45 f0          	mov    -0x10(%rbp),%rax
    5225:	c7 00 22 00 00 00    	movl   $0x22,(%rax)
    522b:	48 8b 45 e8          	mov    -0x18(%rbp),%rax
    522f:	c7 00 23 00 00 00    	movl   $0x23,(%rax)
    5235:	e9 d6 00 00 00       	jmp    5310 <e_getbp+0x298>
    523a:	48 8b 45 f0          	mov    -0x10(%rbp),%rax
    523e:	c7 00 24 00 00 00    	movl   $0x24,(%rax)
    5244:	48 8b 45 e8          	mov    -0x18(%rbp),%rax
    5248:	c7 00 25 00 00 00    	movl   $0x25,(%rax)
    524e:	e9 bd 00 00 00       	jmp    5310 <e_getbp+0x298>
    5253:	48 8b 45 f0          	mov    -0x10(%rbp),%rax
    5257:	c7 00 28 00 00 00    	movl   $0x28,(%rax)
    525d:	48 8b 45 e8          	mov    -0x18(%rbp),%rax
    5261:	c7 00 29 00 00 00    	movl   $0x29,(%rax)
    5267:	e9 a4 00 00 00       	jmp    5310 <e_getbp+0x298>
    526c:	48 8b 45 f0          	mov    -0x10(%rbp),%rax
    5270:	c7 00 32 00 00 00    	movl   $0x32,(%rax)
    5276:	48 8b 45 e8          	mov    -0x18(%rbp),%rax
    527a:	c7 00 33 00 00 00    	movl   $0x33,(%rax)
    5280:	e9 8b 00 00 00       	jmp    5310 <e_getbp+0x298>
    5285:	48 8b 45 f0          	mov    -0x10(%rbp),%rax
    5289:	c7 00 3c 00 00 00    	movl   $0x3c,(%rax)
    528f:	48 8b 45 e8          	mov    -0x18(%rbp),%rax
    5293:	c7 00 3d 00 00 00    	movl   $0x3d,(%rax)
    5299:	eb 75                	jmp    5310 <e_getbp+0x298>
    529b:	48 8b 45 f0          	mov    -0x10(%rbp),%rax
    529f:	c7 00 00 00 00 00    	movl   $0x0,(%rax)
    52a5:	48 8b 45 e8          	mov    -0x18(%rbp),%rax
    52a9:	c7 00 41 00 00 00    	movl   $0x41,(%rax)
    52af:	eb 5f                	jmp    5310 <e_getbp+0x298>
    52b1:	48 8b 45 f0          	mov    -0x10(%rbp),%rax
    52b5:	c7 00 5a 00 00 00    	movl   $0x5a,(%rax)
    52bb:	48 8b 45 e8          	mov    -0x18(%rbp),%rax
    52bf:	c7 00 64 00 00 00    	movl   $0x64,(%rax)
    52c5:	eb 49                	jmp    5310 <e_getbp+0x298>
    52c7:	48 8b 45 f0          	mov    -0x10(%rbp),%rax
    52cb:	c7 00 64 00 00 00    	movl   $0x64,(%rax)
    52d1:	48 8b 45 e8          	mov    -0x18(%rbp),%rax
    52d5:	c7 00 63 00 00 00    	movl   $0x63,(%rax)
    52db:	eb 33                	jmp    5310 <e_getbp+0x298>
    52dd:	48 8b 45 f0          	mov    -0x10(%rbp),%rax
    52e1:	c7 00 50 00 00 00    	movl   $0x50,(%rax)
    52e7:	48 8b 45 e8          	mov    -0x18(%rbp),%rax
    52eb:	c7 00 00 00 00 00    	movl   $0x0,(%rax)
    52f1:	eb 1d                	jmp    5310 <e_getbp+0x298>
    52f3:	48 8b 45 e8          	mov    -0x18(%rbp),%rax
    52f7:	c7 00 00 00 00 00    	movl   $0x0,(%rax)
    52fd:	48 8b 45 e8          	mov    -0x18(%rbp),%rax
    5301:	8b 10                	mov    (%rax),%edx
    5303:	48 8b 45 f0          	mov    -0x10(%rbp),%rax
    5307:	89 10                	mov    %edx,(%rax)
    5309:	b8 00 00 00 00       	mov    $0x0,%eax
    530e:	eb 05                	jmp    5315 <e_getbp+0x29d>
    5310:	b8 01 00 00 00       	mov    $0x1,%eax
    5315:	5d                   	pop    %rbp
    5316:	c3                   	ret

0000000000005317 <e_ast_make_node>:
    5317:	55                   	push   %rbp
    5318:	48 89 e5             	mov    %rsp,%rbp
    531b:	48 83 ec 20          	sub    $0x20,%rsp
    531f:	48 89 7d e8          	mov    %rdi,-0x18(%rbp)
    5323:	48 8b 45 e8          	mov    -0x18(%rbp),%rax
    5327:	8b 40 08             	mov    0x8(%rax),%eax
    532a:	8d 50 01             	lea    0x1(%rax),%edx
    532d:	48 8b 45 e8          	mov    -0x18(%rbp),%rax
    5331:	8b 40 0c             	mov    0xc(%rax),%eax
    5334:	39 c2                	cmp    %eax,%edx
    5336:	7c 6a                	jl     53a2 <e_ast_make_node+0x8b>
    5338:	48 8b 45 e8          	mov    -0x18(%rbp),%rax
    533c:	8b 40 0c             	mov    0xc(%rax),%eax
    533f:	01 c0                	add    %eax,%eax
    5341:	ba 01 00 00 00       	mov    $0x1,%edx
    5346:	85 c0                	test   %eax,%eax
    5348:	0f 4e c2             	cmovle %edx,%eax
    534b:	89 45 f0             	mov    %eax,-0x10(%rbp)
    534e:	8b 45 f0             	mov    -0x10(%rbp),%eax
    5351:	48 98                	cltq
    5353:	48 c1 e0 06          	shl    $0x6,%rax
    5357:	48 89 c2             	mov    %rax,%rdx
    535a:	48 8b 45 e8          	mov    -0x18(%rbp),%rax
    535e:	48 8b 00             	mov    (%rax),%rax
    5361:	48 89 d6             	mov    %rdx,%rsi
    5364:	48 89 c7             	mov    %rax,%rdi
    5367:	e8 f4 bd ff ff       	call   1160 <realloc@plt>
    536c:	48 89 45 f8          	mov    %rax,-0x8(%rbp)
    5370:	48 83 7d f8 00       	cmpq   $0x0,-0x8(%rbp)
    5375:	75 16                	jne    538d <e_ast_make_node+0x76>
    5377:	48 8d 05 a3 5e 00 00 	lea    0x5ea3(%rip),%rax        # b221 <__PRETTY_FUNCTION__.0+0x11d>
    537e:	48 89 c7             	mov    %rax,%rdi
    5381:	e8 fa bd ff ff       	call   1180 <perror@plt>
    5386:	b8 ff ff ff ff       	mov    $0xffffffff,%eax
    538b:	eb 52                	jmp    53df <e_ast_make_node+0xc8>
    538d:	48 8b 45 e8          	mov    -0x18(%rbp),%rax
    5391:	48 8b 55 f8          	mov    -0x8(%rbp),%rdx
    5395:	48 89 10             	mov    %rdx,(%rax)
    5398:	48 8b 45 e8          	mov    -0x18(%rbp),%rax
    539c:	8b 55 f0             	mov    -0x10(%rbp),%edx
    539f:	89 50 0c             	mov    %edx,0xc(%rax)
    53a2:	48 8b 45 e8          	mov    -0x18(%rbp),%rax
    53a6:	8b 40 08             	mov    0x8(%rax),%eax
    53a9:	8d 48 01             	lea    0x1(%rax),%ecx
    53ac:	48 8b 55 e8          	mov    -0x18(%rbp),%rdx
    53b0:	89 4a 08             	mov    %ecx,0x8(%rdx)
    53b3:	89 45 f4             	mov    %eax,-0xc(%rbp)
    53b6:	48 8b 45 e8          	mov    -0x18(%rbp),%rax
    53ba:	48 8b 00             	mov    (%rax),%rax
    53bd:	8b 55 f4             	mov    -0xc(%rbp),%edx
    53c0:	48 63 d2             	movslq %edx,%rdx
    53c3:	48 c1 e2 06          	shl    $0x6,%rdx
    53c7:	48 01 d0             	add    %rdx,%rax
    53ca:	ba 40 00 00 00       	mov    $0x40,%edx
    53cf:	be 00 00 00 00       	mov    $0x0,%esi
    53d4:	48 89 c7             	mov    %rax,%rdi
    53d7:	e8 04 bd ff ff       	call   10e0 <memset@plt>
    53dc:	8b 45 f4             	mov    -0xc(%rbp),%eax
    53df:	c9                   	leave
    53e0:	c3                   	ret

00000000000053e1 <e_ast_get_node>:
    53e1:	55                   	push   %rbp
    53e2:	48 89 e5             	mov    %rsp,%rbp
    53e5:	48 89 7d f8          	mov    %rdi,-0x8(%rbp)
    53e9:	89 75 f4             	mov    %esi,-0xc(%rbp)
    53ec:	83 7d f4 00          	cmpl   $0x0,-0xc(%rbp)
    53f0:	79 07                	jns    53f9 <e_ast_get_node+0x18>
    53f2:	b8 00 00 00 00       	mov    $0x0,%eax
    53f7:	eb 14                	jmp    540d <e_ast_get_node+0x2c>
    53f9:	48 8b 45 f8          	mov    -0x8(%rbp),%rax
    53fd:	48 8b 00             	mov    (%rax),%rax
    5400:	8b 55 f4             	mov    -0xc(%rbp),%edx
    5403:	48 63 d2             	movslq %edx,%rdx
    5406:	48 c1 e2 06          	shl    $0x6,%rdx
    540a:	48 01 d0             	add    %rdx,%rax
    540d:	5d                   	pop    %rbp
    540e:	c3                   	ret

000000000000540f <e_ast_is_limiter_exempt>:
    540f:	55                   	push   %rbp
    5410:	48 89 e5             	mov    %rsp,%rbp
    5413:	89 7d fc             	mov    %edi,-0x4(%rbp)
    5416:	83 7d fc 09          	cmpl   $0x9,-0x4(%rbp)
    541a:	74 18                	je     5434 <e_ast_is_limiter_exempt+0x25>
    541c:	83 7d fc 05          	cmpl   $0x5,-0x4(%rbp)
    5420:	74 12                	je     5434 <e_ast_is_limiter_exempt+0x25>
    5422:	83 7d fc 04          	cmpl   $0x4,-0x4(%rbp)
    5426:	74 0c                	je     5434 <e_ast_is_limiter_exempt+0x25>
    5428:	83 7d fc 0a          	cmpl   $0xa,-0x4(%rbp)
    542c:	74 06                	je     5434 <e_ast_is_limiter_exempt+0x25>
    542e:	83 7d fc 03          	cmpl   $0x3,-0x4(%rbp)
    5432:	75 07                	jne    543b <e_ast_is_limiter_exempt+0x2c>
    5434:	b8 01 00 00 00       	mov    $0x1,%eax
    5439:	eb 05                	jmp    5440 <e_ast_is_limiter_exempt+0x31>
    543b:	b8 00 00 00 00       	mov    $0x0,%eax
    5440:	83 e0 01             	and    $0x1,%eax
    5443:	5d                   	pop    %rbp
    5444:	c3                   	ret

0000000000005445 <e_asnode_free>:
    5445:	55                   	push   %rbp
    5446:	48 89 e5             	mov    %rsp,%rbp
    5449:	48 83 ec 40          	sub    $0x40,%rsp
    544d:	48 89 7d c8          	mov    %rdi,-0x38(%rbp)
    5451:	89 75 c4             	mov    %esi,-0x3c(%rbp)
    5454:	83 7d c4 00          	cmpl   $0x0,-0x3c(%rbp)
    5458:	0f 88 f7 07 00 00    	js     5c55 <e_asnode_free+0x810>
    545e:	8b 55 c4             	mov    -0x3c(%rbp),%edx
    5461:	48 8b 45 c8          	mov    -0x38(%rbp),%rax
    5465:	89 d6                	mov    %edx,%esi
    5467:	48 89 c7             	mov    %rax,%rdi
    546a:	e8 72 ff ff ff       	call   53e1 <e_ast_get_node>
    546f:	48 8b 40 30          	mov    0x30(%rax),%rax
    5473:	48 89 c7             	mov    %rax,%rdi
    5476:	e8 b5 bb ff ff       	call   1030 <free@plt>
    547b:	8b 55 c4             	mov    -0x3c(%rbp),%edx
    547e:	48 8b 45 c8          	mov    -0x38(%rbp),%rax
    5482:	89 d6                	mov    %edx,%esi
    5484:	48 89 c7             	mov    %rax,%rdi
    5487:	e8 55 ff ff ff       	call   53e1 <e_ast_get_node>
    548c:	8b 00                	mov    (%rax),%eax
    548e:	83 f8 17             	cmp    $0x17,%eax
    5491:	0f 87 ce 07 00 00    	ja     5c65 <e_asnode_free+0x820>
    5497:	83 f8 15             	cmp    $0x15,%eax
    549a:	0f 83 b8 07 00 00    	jae    5c58 <e_asnode_free+0x813>
    54a0:	83 f8 14             	cmp    $0x14,%eax
    54a3:	0f 84 8d 07 00 00    	je     5c36 <e_asnode_free+0x7f1>
    54a9:	83 f8 14             	cmp    $0x14,%eax
    54ac:	0f 87 b3 07 00 00    	ja     5c65 <e_asnode_free+0x820>
    54b2:	83 f8 13             	cmp    $0x13,%eax
    54b5:	0f 87 aa 07 00 00    	ja     5c65 <e_asnode_free+0x820>
    54bb:	83 f8 11             	cmp    $0x11,%eax
    54be:	0f 83 94 07 00 00    	jae    5c58 <e_asnode_free+0x813>
    54c4:	83 f8 10             	cmp    $0x10,%eax
    54c7:	0f 84 d5 06 00 00    	je     5ba2 <e_asnode_free+0x75d>
    54cd:	83 f8 10             	cmp    $0x10,%eax
    54d0:	0f 87 8f 07 00 00    	ja     5c65 <e_asnode_free+0x820>
    54d6:	83 f8 0f             	cmp    $0xf,%eax
    54d9:	0f 87 86 07 00 00    	ja     5c65 <e_asnode_free+0x820>
    54df:	83 f8 0e             	cmp    $0xe,%eax
    54e2:	0f 83 73 07 00 00    	jae    5c5b <e_asnode_free+0x816>
    54e8:	83 f8 0d             	cmp    $0xd,%eax
    54eb:	0f 84 68 06 00 00    	je     5b59 <e_asnode_free+0x714>
    54f1:	83 f8 0d             	cmp    $0xd,%eax
    54f4:	0f 87 6b 07 00 00    	ja     5c65 <e_asnode_free+0x820>
    54fa:	83 f8 0c             	cmp    $0xc,%eax
    54fd:	0f 84 12 06 00 00    	je     5b15 <e_asnode_free+0x6d0>
    5503:	83 f8 0c             	cmp    $0xc,%eax
    5506:	0f 87 59 07 00 00    	ja     5c65 <e_asnode_free+0x820>
    550c:	83 f8 0b             	cmp    $0xb,%eax
    550f:	0f 84 de 05 00 00    	je     5af3 <e_asnode_free+0x6ae>
    5515:	83 f8 0b             	cmp    $0xb,%eax
    5518:	0f 87 47 07 00 00    	ja     5c65 <e_asnode_free+0x820>
    551e:	83 f8 0a             	cmp    $0xa,%eax
    5521:	0f 84 d9 02 00 00    	je     5800 <e_asnode_free+0x3bb>
    5527:	83 f8 0a             	cmp    $0xa,%eax
    552a:	0f 87 35 07 00 00    	ja     5c65 <e_asnode_free+0x820>
    5530:	83 f8 09             	cmp    $0x9,%eax
    5533:	0f 84 ce 03 00 00    	je     5907 <e_asnode_free+0x4c2>
    5539:	83 f8 09             	cmp    $0x9,%eax
    553c:	0f 87 23 07 00 00    	ja     5c65 <e_asnode_free+0x820>
    5542:	83 f8 08             	cmp    $0x8,%eax
    5545:	0f 84 71 02 00 00    	je     57bc <e_asnode_free+0x377>
    554b:	83 f8 08             	cmp    $0x8,%eax
    554e:	0f 87 11 07 00 00    	ja     5c65 <e_asnode_free+0x820>
    5554:	83 f8 07             	cmp    $0x7,%eax
    5557:	0f 87 08 07 00 00    	ja     5c65 <e_asnode_free+0x820>
    555d:	83 f8 06             	cmp    $0x6,%eax
    5560:	0f 83 f8 06 00 00    	jae    5c5e <e_asnode_free+0x819>
    5566:	83 f8 05             	cmp    $0x5,%eax
    5569:	0f 84 b1 01 00 00    	je     5720 <e_asnode_free+0x2db>
    556f:	83 f8 05             	cmp    $0x5,%eax
    5572:	0f 87 ed 06 00 00    	ja     5c65 <e_asnode_free+0x820>
    5578:	83 f8 04             	cmp    $0x4,%eax
    557b:	0f 84 e0 06 00 00    	je     5c61 <e_asnode_free+0x81c>
    5581:	83 f8 04             	cmp    $0x4,%eax
    5584:	0f 87 db 06 00 00    	ja     5c65 <e_asnode_free+0x820>
    558a:	83 f8 03             	cmp    $0x3,%eax
    558d:	0f 84 13 01 00 00    	je     56a6 <e_asnode_free+0x261>
    5593:	83 f8 03             	cmp    $0x3,%eax
    5596:	0f 87 c9 06 00 00    	ja     5c65 <e_asnode_free+0x820>
    559c:	83 f8 02             	cmp    $0x2,%eax
    559f:	0f 84 da 00 00 00    	je     567f <e_asnode_free+0x23a>
    55a5:	83 f8 02             	cmp    $0x2,%eax
    55a8:	0f 87 b7 06 00 00    	ja     5c65 <e_asnode_free+0x820>
    55ae:	85 c0                	test   %eax,%eax
    55b0:	74 0a                	je     55bc <e_asnode_free+0x177>
    55b2:	83 f8 01             	cmp    $0x1,%eax
    55b5:	74 7f                	je     5636 <e_asnode_free+0x1f1>
    55b7:	e9 a9 06 00 00       	jmp    5c65 <e_asnode_free+0x820>
    55bc:	c7 45 d0 00 00 00 00 	movl   $0x0,-0x30(%rbp)
    55c3:	eb 36                	jmp    55fb <e_asnode_free+0x1b6>
    55c5:	8b 55 c4             	mov    -0x3c(%rbp),%edx
    55c8:	48 8b 45 c8          	mov    -0x38(%rbp),%rax
    55cc:	89 d6                	mov    %edx,%esi
    55ce:	48 89 c7             	mov    %rax,%rdi
    55d1:	e8 0b fe ff ff       	call   53e1 <e_ast_get_node>
    55d6:	48 8b 40 08          	mov    0x8(%rax),%rax
    55da:	8b 55 d0             	mov    -0x30(%rbp),%edx
    55dd:	48 63 d2             	movslq %edx,%rdx
    55e0:	48 c1 e2 02          	shl    $0x2,%rdx
    55e4:	48 01 d0             	add    %rdx,%rax
    55e7:	8b 10                	mov    (%rax),%edx
    55e9:	48 8b 45 c8          	mov    -0x38(%rbp),%rax
    55ed:	89 d6                	mov    %edx,%esi
    55ef:	48 89 c7             	mov    %rax,%rdi
    55f2:	e8 4e fe ff ff       	call   5445 <e_asnode_free>
    55f7:	83 45 d0 01          	addl   $0x1,-0x30(%rbp)
    55fb:	8b 55 c4             	mov    -0x3c(%rbp),%edx
    55fe:	48 8b 45 c8          	mov    -0x38(%rbp),%rax
    5602:	89 d6                	mov    %edx,%esi
    5604:	48 89 c7             	mov    %rax,%rdi
    5607:	e8 d5 fd ff ff       	call   53e1 <e_ast_get_node>
    560c:	8b 40 10             	mov    0x10(%rax),%eax
    560f:	39 45 d0             	cmp    %eax,-0x30(%rbp)
    5612:	7c b1                	jl     55c5 <e_asnode_free+0x180>
    5614:	8b 55 c4             	mov    -0x3c(%rbp),%edx
    5617:	48 8b 45 c8          	mov    -0x38(%rbp),%rax
    561b:	89 d6                	mov    %edx,%esi
    561d:	48 89 c7             	mov    %rax,%rdi
    5620:	e8 bc fd ff ff       	call   53e1 <e_ast_get_node>
    5625:	48 8b 40 08          	mov    0x8(%rax),%rax
    5629:	48 89 c7             	mov    %rax,%rdi
    562c:	e8 ff b9 ff ff       	call   1030 <free@plt>
    5631:	e9 2f 06 00 00       	jmp    5c65 <e_asnode_free+0x820>
    5636:	8b 55 c4             	mov    -0x3c(%rbp),%edx
    5639:	48 8b 45 c8          	mov    -0x38(%rbp),%rax
    563d:	89 d6                	mov    %edx,%esi
    563f:	48 89 c7             	mov    %rax,%rdi
    5642:	e8 9a fd ff ff       	call   53e1 <e_ast_get_node>
    5647:	8b 50 08             	mov    0x8(%rax),%edx
    564a:	48 8b 45 c8          	mov    -0x38(%rbp),%rax
    564e:	89 d6                	mov    %edx,%esi
    5650:	48 89 c7             	mov    %rax,%rdi
    5653:	e8 ed fd ff ff       	call   5445 <e_asnode_free>
    5658:	8b 55 c4             	mov    -0x3c(%rbp),%edx
    565b:	48 8b 45 c8          	mov    -0x38(%rbp),%rax
    565f:	89 d6                	mov    %edx,%esi
    5661:	48 89 c7             	mov    %rax,%rdi
    5664:	e8 78 fd ff ff       	call   53e1 <e_ast_get_node>
    5669:	8b 50 0c             	mov    0xc(%rax),%edx
    566c:	48 8b 45 c8          	mov    -0x38(%rbp),%rax
    5670:	89 d6                	mov    %edx,%esi
    5672:	48 89 c7             	mov    %rax,%rdi
    5675:	e8 cb fd ff ff       	call   5445 <e_asnode_free>
    567a:	e9 e6 05 00 00       	jmp    5c65 <e_asnode_free+0x820>
    567f:	8b 55 c4             	mov    -0x3c(%rbp),%edx
    5682:	48 8b 45 c8          	mov    -0x38(%rbp),%rax
    5686:	89 d6                	mov    %edx,%esi
    5688:	48 89 c7             	mov    %rax,%rdi
    568b:	e8 51 fd ff ff       	call   53e1 <e_ast_get_node>
    5690:	8b 50 08             	mov    0x8(%rax),%edx
    5693:	48 8b 45 c8          	mov    -0x38(%rbp),%rax
    5697:	89 d6                	mov    %edx,%esi
    5699:	48 89 c7             	mov    %rax,%rdi
    569c:	e8 a4 fd ff ff       	call   5445 <e_asnode_free>
    56a1:	e9 bf 05 00 00       	jmp    5c65 <e_asnode_free+0x820>
    56a6:	c7 45 d4 00 00 00 00 	movl   $0x0,-0x2c(%rbp)
    56ad:	eb 36                	jmp    56e5 <e_asnode_free+0x2a0>
    56af:	8b 55 c4             	mov    -0x3c(%rbp),%edx
    56b2:	48 8b 45 c8          	mov    -0x38(%rbp),%rax
    56b6:	89 d6                	mov    %edx,%esi
    56b8:	48 89 c7             	mov    %rax,%rdi
    56bb:	e8 21 fd ff ff       	call   53e1 <e_ast_get_node>
    56c0:	48 8b 40 08          	mov    0x8(%rax),%rax
    56c4:	8b 55 d4             	mov    -0x2c(%rbp),%edx
    56c7:	48 63 d2             	movslq %edx,%rdx
    56ca:	48 c1 e2 02          	shl    $0x2,%rdx
    56ce:	48 01 d0             	add    %rdx,%rax
    56d1:	8b 10                	mov    (%rax),%edx
    56d3:	48 8b 45 c8          	mov    -0x38(%rbp),%rax
    56d7:	89 d6                	mov    %edx,%esi
    56d9:	48 89 c7             	mov    %rax,%rdi
    56dc:	e8 64 fd ff ff       	call   5445 <e_asnode_free>
    56e1:	83 45 d4 01          	addl   $0x1,-0x2c(%rbp)
    56e5:	8b 55 c4             	mov    -0x3c(%rbp),%edx
    56e8:	48 8b 45 c8          	mov    -0x38(%rbp),%rax
    56ec:	89 d6                	mov    %edx,%esi
    56ee:	48 89 c7             	mov    %rax,%rdi
    56f1:	e8 eb fc ff ff       	call   53e1 <e_ast_get_node>
    56f6:	8b 40 10             	mov    0x10(%rax),%eax
    56f9:	39 45 d4             	cmp    %eax,-0x2c(%rbp)
    56fc:	7c b1                	jl     56af <e_asnode_free+0x26a>
    56fe:	8b 55 c4             	mov    -0x3c(%rbp),%edx
    5701:	48 8b 45 c8          	mov    -0x38(%rbp),%rax
    5705:	89 d6                	mov    %edx,%esi
    5707:	48 89 c7             	mov    %rax,%rdi
    570a:	e8 d2 fc ff ff       	call   53e1 <e_ast_get_node>
    570f:	48 8b 40 08          	mov    0x8(%rax),%rax
    5713:	48 89 c7             	mov    %rax,%rdi
    5716:	e8 15 b9 ff ff       	call   1030 <free@plt>
    571b:	e9 45 05 00 00       	jmp    5c65 <e_asnode_free+0x820>
    5720:	c7 45 d8 00 00 00 00 	movl   $0x0,-0x28(%rbp)
    5727:	eb 36                	jmp    575f <e_asnode_free+0x31a>
    5729:	8b 55 c4             	mov    -0x3c(%rbp),%edx
    572c:	48 8b 45 c8          	mov    -0x38(%rbp),%rax
    5730:	89 d6                	mov    %edx,%esi
    5732:	48 89 c7             	mov    %rax,%rdi
    5735:	e8 a7 fc ff ff       	call   53e1 <e_ast_get_node>
    573a:	48 8b 40 10          	mov    0x10(%rax),%rax
    573e:	8b 55 d8             	mov    -0x28(%rbp),%edx
    5741:	48 63 d2             	movslq %edx,%rdx
    5744:	48 c1 e2 02          	shl    $0x2,%rdx
    5748:	48 01 d0             	add    %rdx,%rax
    574b:	8b 10                	mov    (%rax),%edx
    574d:	48 8b 45 c8          	mov    -0x38(%rbp),%rax
    5751:	89 d6                	mov    %edx,%esi
    5753:	48 89 c7             	mov    %rax,%rdi
    5756:	e8 ea fc ff ff       	call   5445 <e_asnode_free>
    575b:	83 45 d8 01          	addl   $0x1,-0x28(%rbp)
    575f:	8b 55 c4             	mov    -0x3c(%rbp),%edx
    5762:	48 8b 45 c8          	mov    -0x38(%rbp),%rax
    5766:	89 d6                	mov    %edx,%esi
    5768:	48 89 c7             	mov    %rax,%rdi
    576b:	e8 71 fc ff ff       	call   53e1 <e_ast_get_node>
    5770:	8b 40 18             	mov    0x18(%rax),%eax
    5773:	39 45 d8             	cmp    %eax,-0x28(%rbp)
    5776:	7c b1                	jl     5729 <e_asnode_free+0x2e4>
    5778:	8b 55 c4             	mov    -0x3c(%rbp),%edx
    577b:	48 8b 45 c8          	mov    -0x38(%rbp),%rax
    577f:	89 d6                	mov    %edx,%esi
    5781:	48 89 c7             	mov    %rax,%rdi
    5784:	e8 58 fc ff ff       	call   53e1 <e_ast_get_node>
    5789:	8b 50 08             	mov    0x8(%rax),%edx
    578c:	48 8b 45 c8          	mov    -0x38(%rbp),%rax
    5790:	89 d6                	mov    %edx,%esi
    5792:	48 89 c7             	mov    %rax,%rdi
    5795:	e8 ab fc ff ff       	call   5445 <e_asnode_free>
    579a:	8b 55 c4             	mov    -0x3c(%rbp),%edx
    579d:	48 8b 45 c8          	mov    -0x38(%rbp),%rax
    57a1:	89 d6                	mov    %edx,%esi
    57a3:	48 89 c7             	mov    %rax,%rdi
    57a6:	e8 36 fc ff ff       	call   53e1 <e_ast_get_node>
    57ab:	48 8b 40 10          	mov    0x10(%rax),%rax
    57af:	48 89 c7             	mov    %rax,%rdi
    57b2:	e8 79 b8 ff ff       	call   1030 <free@plt>
    57b7:	e9 a9 04 00 00       	jmp    5c65 <e_asnode_free+0x820>
    57bc:	8b 55 c4             	mov    -0x3c(%rbp),%edx
    57bf:	48 8b 45 c8          	mov    -0x38(%rbp),%rax
    57c3:	89 d6                	mov    %edx,%esi
    57c5:	48 89 c7             	mov    %rax,%rdi
    57c8:	e8 14 fc ff ff       	call   53e1 <e_ast_get_node>
    57cd:	0f b6 40 0c          	movzbl 0xc(%rax),%eax
    57d1:	84 c0                	test   %al,%al
    57d3:	0f 84 8b 04 00 00    	je     5c64 <e_asnode_free+0x81f>
    57d9:	8b 55 c4             	mov    -0x3c(%rbp),%edx
    57dc:	48 8b 45 c8          	mov    -0x38(%rbp),%rax
    57e0:	89 d6                	mov    %edx,%esi
    57e2:	48 89 c7             	mov    %rax,%rdi
    57e5:	e8 f7 fb ff ff       	call   53e1 <e_ast_get_node>
    57ea:	8b 50 08             	mov    0x8(%rax),%edx
    57ed:	48 8b 45 c8          	mov    -0x38(%rbp),%rax
    57f1:	89 d6                	mov    %edx,%esi
    57f3:	48 89 c7             	mov    %rax,%rdi
    57f6:	e8 4a fc ff ff       	call   5445 <e_asnode_free>
    57fb:	e9 64 04 00 00       	jmp    5c64 <e_asnode_free+0x81f>
    5800:	c7 45 dc 00 00 00 00 	movl   $0x0,-0x24(%rbp)
    5807:	eb 36                	jmp    583f <e_asnode_free+0x3fa>
    5809:	8b 55 c4             	mov    -0x3c(%rbp),%edx
    580c:	48 8b 45 c8          	mov    -0x38(%rbp),%rax
    5810:	89 d6                	mov    %edx,%esi
    5812:	48 89 c7             	mov    %rax,%rdi
    5815:	e8 c7 fb ff ff       	call   53e1 <e_ast_get_node>
    581a:	48 8b 40 18          	mov    0x18(%rax),%rax
    581e:	8b 55 dc             	mov    -0x24(%rbp),%edx
    5821:	48 63 d2             	movslq %edx,%rdx
    5824:	48 c1 e2 02          	shl    $0x2,%rdx
    5828:	48 01 d0             	add    %rdx,%rax
    582b:	8b 10                	mov    (%rax),%edx
    582d:	48 8b 45 c8          	mov    -0x38(%rbp),%rax
    5831:	89 d6                	mov    %edx,%esi
    5833:	48 89 c7             	mov    %rax,%rdi
    5836:	e8 0a fc ff ff       	call   5445 <e_asnode_free>
    583b:	83 45 dc 01          	addl   $0x1,-0x24(%rbp)
    583f:	8b 55 c4             	mov    -0x3c(%rbp),%edx
    5842:	48 8b 45 c8          	mov    -0x38(%rbp),%rax
    5846:	89 d6                	mov    %edx,%esi
    5848:	48 89 c7             	mov    %rax,%rdi
    584b:	e8 91 fb ff ff       	call   53e1 <e_ast_get_node>
    5850:	8b 40 24             	mov    0x24(%rax),%eax
    5853:	39 45 dc             	cmp    %eax,-0x24(%rbp)
    5856:	7c b1                	jl     5809 <e_asnode_free+0x3c4>
    5858:	c7 45 e0 00 00 00 00 	movl   $0x0,-0x20(%rbp)
    585f:	eb 31                	jmp    5892 <e_asnode_free+0x44d>
    5861:	8b 55 c4             	mov    -0x3c(%rbp),%edx
    5864:	48 8b 45 c8          	mov    -0x38(%rbp),%rax
    5868:	89 d6                	mov    %edx,%esi
    586a:	48 89 c7             	mov    %rax,%rdi
    586d:	e8 6f fb ff ff       	call   53e1 <e_ast_get_node>
    5872:	48 8b 40 10          	mov    0x10(%rax),%rax
    5876:	8b 55 e0             	mov    -0x20(%rbp),%edx
    5879:	48 63 d2             	movslq %edx,%rdx
    587c:	48 c1 e2 03          	shl    $0x3,%rdx
    5880:	48 01 d0             	add    %rdx,%rax
    5883:	48 8b 00             	mov    (%rax),%rax
    5886:	48 89 c7             	mov    %rax,%rdi
    5889:	e8 a2 b7 ff ff       	call   1030 <free@plt>
    588e:	83 45 e0 01          	addl   $0x1,-0x20(%rbp)
    5892:	8b 55 c4             	mov    -0x3c(%rbp),%edx
    5895:	48 8b 45 c8          	mov    -0x38(%rbp),%rax
    5899:	89 d6                	mov    %edx,%esi
    589b:	48 89 c7             	mov    %rax,%rdi
    589e:	e8 3e fb ff ff       	call   53e1 <e_ast_get_node>
    58a3:	8b 40 20             	mov    0x20(%rax),%eax
    58a6:	39 45 e0             	cmp    %eax,-0x20(%rbp)
    58a9:	7c b6                	jl     5861 <e_asnode_free+0x41c>
    58ab:	8b 55 c4             	mov    -0x3c(%rbp),%edx
    58ae:	48 8b 45 c8          	mov    -0x38(%rbp),%rax
    58b2:	89 d6                	mov    %edx,%esi
    58b4:	48 89 c7             	mov    %rax,%rdi
    58b7:	e8 25 fb ff ff       	call   53e1 <e_ast_get_node>
    58bc:	48 8b 40 10          	mov    0x10(%rax),%rax
    58c0:	48 89 c7             	mov    %rax,%rdi
    58c3:	e8 68 b7 ff ff       	call   1030 <free@plt>
    58c8:	8b 55 c4             	mov    -0x3c(%rbp),%edx
    58cb:	48 8b 45 c8          	mov    -0x38(%rbp),%rax
    58cf:	89 d6                	mov    %edx,%esi
    58d1:	48 89 c7             	mov    %rax,%rdi
    58d4:	e8 08 fb ff ff       	call   53e1 <e_ast_get_node>
    58d9:	48 8b 40 08          	mov    0x8(%rax),%rax
    58dd:	48 89 c7             	mov    %rax,%rdi
    58e0:	e8 4b b7 ff ff       	call   1030 <free@plt>
    58e5:	8b 55 c4             	mov    -0x3c(%rbp),%edx
    58e8:	48 8b 45 c8          	mov    -0x38(%rbp),%rax
    58ec:	89 d6                	mov    %edx,%esi
    58ee:	48 89 c7             	mov    %rax,%rdi
    58f1:	e8 eb fa ff ff       	call   53e1 <e_ast_get_node>
    58f6:	48 8b 40 18          	mov    0x18(%rax),%rax
    58fa:	48 89 c7             	mov    %rax,%rdi
    58fd:	e8 2e b7 ff ff       	call   1030 <free@plt>
    5902:	e9 5e 03 00 00       	jmp    5c65 <e_asnode_free+0x820>
    5907:	8b 55 c4             	mov    -0x3c(%rbp),%edx
    590a:	48 8b 45 c8          	mov    -0x38(%rbp),%rax
    590e:	89 d6                	mov    %edx,%esi
    5910:	48 89 c7             	mov    %rax,%rdi
    5913:	e8 c9 fa ff ff       	call   53e1 <e_ast_get_node>
    5918:	8b 50 20             	mov    0x20(%rax),%edx
    591b:	48 8b 45 c8          	mov    -0x38(%rbp),%rax
    591f:	89 d6                	mov    %edx,%esi
    5921:	48 89 c7             	mov    %rax,%rdi
    5924:	e8 1c fb ff ff       	call   5445 <e_asnode_free>
    5929:	c7 45 e4 00 00 00 00 	movl   $0x0,-0x1c(%rbp)
    5930:	eb 36                	jmp    5968 <e_asnode_free+0x523>
    5932:	8b 55 c4             	mov    -0x3c(%rbp),%edx
    5935:	48 8b 45 c8          	mov    -0x38(%rbp),%rax
    5939:	89 d6                	mov    %edx,%esi
    593b:	48 89 c7             	mov    %rax,%rdi
    593e:	e8 9e fa ff ff       	call   53e1 <e_ast_get_node>
    5943:	48 8b 40 08          	mov    0x8(%rax),%rax
    5947:	8b 55 e4             	mov    -0x1c(%rbp),%edx
    594a:	48 63 d2             	movslq %edx,%rdx
    594d:	48 c1 e2 02          	shl    $0x2,%rdx
    5951:	48 01 d0             	add    %rdx,%rax
    5954:	8b 10                	mov    (%rax),%edx
    5956:	48 8b 45 c8          	mov    -0x38(%rbp),%rax
    595a:	89 d6                	mov    %edx,%esi
    595c:	48 89 c7             	mov    %rax,%rdi
    595f:	e8 e1 fa ff ff       	call   5445 <e_asnode_free>
    5964:	83 45 e4 01          	addl   $0x1,-0x1c(%rbp)
    5968:	8b 55 c4             	mov    -0x3c(%rbp),%edx
    596b:	48 8b 45 c8          	mov    -0x38(%rbp),%rax
    596f:	89 d6                	mov    %edx,%esi
    5971:	48 89 c7             	mov    %rax,%rdi
    5974:	e8 68 fa ff ff       	call   53e1 <e_ast_get_node>
    5979:	8b 40 24             	mov    0x24(%rax),%eax
    597c:	39 45 e4             	cmp    %eax,-0x1c(%rbp)
    597f:	7c b1                	jl     5932 <e_asnode_free+0x4ed>
    5981:	c7 45 e8 00 00 00 00 	movl   $0x0,-0x18(%rbp)
    5988:	eb 36                	jmp    59c0 <e_asnode_free+0x57b>
    598a:	8b 55 c4             	mov    -0x3c(%rbp),%edx
    598d:	48 8b 45 c8          	mov    -0x38(%rbp),%rax
    5991:	89 d6                	mov    %edx,%esi
    5993:	48 89 c7             	mov    %rax,%rdi
    5996:	e8 46 fa ff ff       	call   53e1 <e_ast_get_node>
    599b:	48 8b 40 10          	mov    0x10(%rax),%rax
    599f:	8b 55 e8             	mov    -0x18(%rbp),%edx
    59a2:	48 63 d2             	movslq %edx,%rdx
    59a5:	48 c1 e2 02          	shl    $0x2,%rdx
    59a9:	48 01 d0             	add    %rdx,%rax
    59ac:	8b 10                	mov    (%rax),%edx
    59ae:	48 8b 45 c8          	mov    -0x38(%rbp),%rax
    59b2:	89 d6                	mov    %edx,%esi
    59b4:	48 89 c7             	mov    %rax,%rdi
    59b7:	e8 89 fa ff ff       	call   5445 <e_asnode_free>
    59bc:	83 45 e8 01          	addl   $0x1,-0x18(%rbp)
    59c0:	8b 55 c4             	mov    -0x3c(%rbp),%edx
    59c3:	48 8b 45 c8          	mov    -0x38(%rbp),%rax
    59c7:	89 d6                	mov    %edx,%esi
    59c9:	48 89 c7             	mov    %rax,%rdi
    59cc:	e8 10 fa ff ff       	call   53e1 <e_ast_get_node>
    59d1:	8b 40 28             	mov    0x28(%rax),%eax
    59d4:	39 45 e8             	cmp    %eax,-0x18(%rbp)
    59d7:	7c b1                	jl     598a <e_asnode_free+0x545>
    59d9:	c7 45 ec 00 00 00 00 	movl   $0x0,-0x14(%rbp)
    59e0:	e9 95 00 00 00       	jmp    5a7a <e_asnode_free+0x635>
    59e5:	8b 55 c4             	mov    -0x3c(%rbp),%edx
    59e8:	48 8b 45 c8          	mov    -0x38(%rbp),%rax
    59ec:	89 d6                	mov    %edx,%esi
    59ee:	48 89 c7             	mov    %rax,%rdi
    59f1:	e8 eb f9 ff ff       	call   53e1 <e_ast_get_node>
    59f6:	48 8b 48 18          	mov    0x18(%rax),%rcx
    59fa:	8b 45 ec             	mov    -0x14(%rbp),%eax
    59fd:	48 63 d0             	movslq %eax,%rdx
    5a00:	48 89 d0             	mov    %rdx,%rax
    5a03:	48 c1 e0 02          	shl    $0x2,%rax
    5a07:	48 01 d0             	add    %rdx,%rax
    5a0a:	48 c1 e0 03          	shl    $0x3,%rax
    5a0e:	48 01 c8             	add    %rcx,%rax
    5a11:	48 89 45 f8          	mov    %rax,-0x8(%rbp)
    5a15:	48 8b 45 f8          	mov    -0x8(%rbp),%rax
    5a19:	8b 50 18             	mov    0x18(%rax),%edx
    5a1c:	48 8b 45 c8          	mov    -0x38(%rbp),%rax
    5a20:	89 d6                	mov    %edx,%esi
    5a22:	48 89 c7             	mov    %rax,%rdi
    5a25:	e8 1b fa ff ff       	call   5445 <e_asnode_free>
    5a2a:	c7 45 f0 00 00 00 00 	movl   $0x0,-0x10(%rbp)
    5a31:	eb 28                	jmp    5a5b <e_asnode_free+0x616>
    5a33:	48 8b 45 f8          	mov    -0x8(%rbp),%rax
    5a37:	48 8b 00             	mov    (%rax),%rax
    5a3a:	8b 55 f0             	mov    -0x10(%rbp),%edx
    5a3d:	48 63 d2             	movslq %edx,%rdx
    5a40:	48 c1 e2 02          	shl    $0x2,%rdx
    5a44:	48 01 d0             	add    %rdx,%rax
    5a47:	8b 10                	mov    (%rax),%edx
    5a49:	48 8b 45 c8          	mov    -0x38(%rbp),%rax
    5a4d:	89 d6                	mov    %edx,%esi
    5a4f:	48 89 c7             	mov    %rax,%rdi
    5a52:	e8 ee f9 ff ff       	call   5445 <e_asnode_free>
    5a57:	83 45 f0 01          	addl   $0x1,-0x10(%rbp)
    5a5b:	48 8b 45 f8          	mov    -0x8(%rbp),%rax
    5a5f:	8b 40 1c             	mov    0x1c(%rax),%eax
    5a62:	39 45 f0             	cmp    %eax,-0x10(%rbp)
    5a65:	7c cc                	jl     5a33 <e_asnode_free+0x5ee>
    5a67:	48 8b 45 f8          	mov    -0x8(%rbp),%rax
    5a6b:	48 8b 00             	mov    (%rax),%rax
    5a6e:	48 89 c7             	mov    %rax,%rdi
    5a71:	e8 ba b5 ff ff       	call   1030 <free@plt>
    5a76:	83 45 ec 01          	addl   $0x1,-0x14(%rbp)
    5a7a:	8b 55 c4             	mov    -0x3c(%rbp),%edx
    5a7d:	48 8b 45 c8          	mov    -0x38(%rbp),%rax
    5a81:	89 d6                	mov    %edx,%esi
    5a83:	48 89 c7             	mov    %rax,%rdi
    5a86:	e8 56 f9 ff ff       	call   53e1 <e_ast_get_node>
    5a8b:	8b 40 2c             	mov    0x2c(%rax),%eax
    5a8e:	39 45 ec             	cmp    %eax,-0x14(%rbp)
    5a91:	0f 8c 4e ff ff ff    	jl     59e5 <e_asnode_free+0x5a0>
    5a97:	8b 55 c4             	mov    -0x3c(%rbp),%edx
    5a9a:	48 8b 45 c8          	mov    -0x38(%rbp),%rax
    5a9e:	89 d6                	mov    %edx,%esi
    5aa0:	48 89 c7             	mov    %rax,%rdi
    5aa3:	e8 39 f9 ff ff       	call   53e1 <e_ast_get_node>
    5aa8:	48 8b 40 18          	mov    0x18(%rax),%rax
    5aac:	48 89 c7             	mov    %rax,%rdi
    5aaf:	e8 7c b5 ff ff       	call   1030 <free@plt>
    5ab4:	8b 55 c4             	mov    -0x3c(%rbp),%edx
    5ab7:	48 8b 45 c8          	mov    -0x38(%rbp),%rax
    5abb:	89 d6                	mov    %edx,%esi
    5abd:	48 89 c7             	mov    %rax,%rdi
    5ac0:	e8 1c f9 ff ff       	call   53e1 <e_ast_get_node>
    5ac5:	48 8b 40 10          	mov    0x10(%rax),%rax
    5ac9:	48 89 c7             	mov    %rax,%rdi
    5acc:	e8 5f b5 ff ff       	call   1030 <free@plt>
    5ad1:	8b 55 c4             	mov    -0x3c(%rbp),%edx
    5ad4:	48 8b 45 c8          	mov    -0x38(%rbp),%rax
    5ad8:	89 d6                	mov    %edx,%esi
    5ada:	48 89 c7             	mov    %rax,%rdi
    5add:	e8 ff f8 ff ff       	call   53e1 <e_ast_get_node>
    5ae2:	48 8b 40 08          	mov    0x8(%rax),%rax
    5ae6:	48 89 c7             	mov    %rax,%rdi
    5ae9:	e8 42 b5 ff ff       	call   1030 <free@plt>
    5aee:	e9 72 01 00 00       	jmp    5c65 <e_asnode_free+0x820>
    5af3:	8b 55 c4             	mov    -0x3c(%rbp),%edx
    5af6:	48 8b 45 c8          	mov    -0x38(%rbp),%rax
    5afa:	89 d6                	mov    %edx,%esi
    5afc:	48 89 c7             	mov    %rax,%rdi
    5aff:	e8 dd f8 ff ff       	call   53e1 <e_ast_get_node>
    5b04:	48 8b 40 08          	mov    0x8(%rax),%rax
    5b08:	48 89 c7             	mov    %rax,%rdi
    5b0b:	e8 20 b5 ff ff       	call   1030 <free@plt>
    5b10:	e9 50 01 00 00       	jmp    5c65 <e_asnode_free+0x820>
    5b15:	8b 55 c4             	mov    -0x3c(%rbp),%edx
    5b18:	48 8b 45 c8          	mov    -0x38(%rbp),%rax
    5b1c:	89 d6                	mov    %edx,%esi
    5b1e:	48 89 c7             	mov    %rax,%rdi
    5b21:	e8 bb f8 ff ff       	call   53e1 <e_ast_get_node>
    5b26:	48 8b 40 08          	mov    0x8(%rax),%rax
    5b2a:	48 89 c7             	mov    %rax,%rdi
    5b2d:	e8 fe b4 ff ff       	call   1030 <free@plt>
    5b32:	8b 55 c4             	mov    -0x3c(%rbp),%edx
    5b35:	48 8b 45 c8          	mov    -0x38(%rbp),%rax
    5b39:	89 d6                	mov    %edx,%esi
    5b3b:	48 89 c7             	mov    %rax,%rdi
    5b3e:	e8 9e f8 ff ff       	call   53e1 <e_ast_get_node>
    5b43:	8b 50 10             	mov    0x10(%rax),%edx
    5b46:	48 8b 45 c8          	mov    -0x38(%rbp),%rax
    5b4a:	89 d6                	mov    %edx,%esi
    5b4c:	48 89 c7             	mov    %rax,%rdi
    5b4f:	e8 f1 f8 ff ff       	call   5445 <e_asnode_free>
    5b54:	e9 0c 01 00 00       	jmp    5c65 <e_asnode_free+0x820>
    5b59:	8b 55 c4             	mov    -0x3c(%rbp),%edx
    5b5c:	48 8b 45 c8          	mov    -0x38(%rbp),%rax
    5b60:	89 d6                	mov    %edx,%esi
    5b62:	48 89 c7             	mov    %rax,%rdi
    5b65:	e8 77 f8 ff ff       	call   53e1 <e_ast_get_node>
    5b6a:	8b 50 08             	mov    0x8(%rax),%edx
    5b6d:	48 8b 45 c8          	mov    -0x38(%rbp),%rax
    5b71:	89 d6                	mov    %edx,%esi
    5b73:	48 89 c7             	mov    %rax,%rdi
    5b76:	e8 ca f8 ff ff       	call   5445 <e_asnode_free>
    5b7b:	8b 55 c4             	mov    -0x3c(%rbp),%edx
    5b7e:	48 8b 45 c8          	mov    -0x38(%rbp),%rax
    5b82:	89 d6                	mov    %edx,%esi
    5b84:	48 89 c7             	mov    %rax,%rdi
    5b87:	e8 55 f8 ff ff       	call   53e1 <e_ast_get_node>
    5b8c:	8b 50 0c             	mov    0xc(%rax),%edx
    5b8f:	48 8b 45 c8          	mov    -0x38(%rbp),%rax
    5b93:	89 d6                	mov    %edx,%esi
    5b95:	48 89 c7             	mov    %rax,%rdi
    5b98:	e8 a8 f8 ff ff       	call   5445 <e_asnode_free>
    5b9d:	e9 c3 00 00 00       	jmp    5c65 <e_asnode_free+0x820>
    5ba2:	8b 55 c4             	mov    -0x3c(%rbp),%edx
    5ba5:	48 8b 45 c8          	mov    -0x38(%rbp),%rax
    5ba9:	89 d6                	mov    %edx,%esi
    5bab:	48 89 c7             	mov    %rax,%rdi
    5bae:	e8 2e f8 ff ff       	call   53e1 <e_ast_get_node>
    5bb3:	48 8b 40 08          	mov    0x8(%rax),%rax
    5bb7:	48 89 c7             	mov    %rax,%rdi
    5bba:	e8 71 b4 ff ff       	call   1030 <free@plt>
    5bbf:	c7 45 f4 00 00 00 00 	movl   $0x0,-0xc(%rbp)
    5bc6:	eb 36                	jmp    5bfe <e_asnode_free+0x7b9>
    5bc8:	8b 55 c4             	mov    -0x3c(%rbp),%edx
    5bcb:	48 8b 45 c8          	mov    -0x38(%rbp),%rax
    5bcf:	89 d6                	mov    %edx,%esi
    5bd1:	48 89 c7             	mov    %rax,%rdi
    5bd4:	e8 08 f8 ff ff       	call   53e1 <e_ast_get_node>
    5bd9:	48 8b 40 10          	mov    0x10(%rax),%rax
    5bdd:	8b 55 f4             	mov    -0xc(%rbp),%edx
    5be0:	48 63 d2             	movslq %edx,%rdx
    5be3:	48 c1 e2 02          	shl    $0x2,%rdx
    5be7:	48 01 d0             	add    %rdx,%rax
    5bea:	8b 10                	mov    (%rax),%edx
    5bec:	48 8b 45 c8          	mov    -0x38(%rbp),%rax
    5bf0:	89 d6                	mov    %edx,%esi
    5bf2:	48 89 c7             	mov    %rax,%rdi
    5bf5:	e8 4b f8 ff ff       	call   5445 <e_asnode_free>
    5bfa:	83 45 f4 01          	addl   $0x1,-0xc(%rbp)
    5bfe:	8b 55 c4             	mov    -0x3c(%rbp),%edx
    5c01:	48 8b 45 c8          	mov    -0x38(%rbp),%rax
    5c05:	89 d6                	mov    %edx,%esi
    5c07:	48 89 c7             	mov    %rax,%rdi
    5c0a:	e8 d2 f7 ff ff       	call   53e1 <e_ast_get_node>
    5c0f:	8b 40 18             	mov    0x18(%rax),%eax
    5c12:	39 45 f4             	cmp    %eax,-0xc(%rbp)
    5c15:	7c b1                	jl     5bc8 <e_asnode_free+0x783>
    5c17:	8b 55 c4             	mov    -0x3c(%rbp),%edx
    5c1a:	48 8b 45 c8          	mov    -0x38(%rbp),%rax
    5c1e:	89 d6                	mov    %edx,%esi
    5c20:	48 89 c7             	mov    %rax,%rdi
    5c23:	e8 b9 f7 ff ff       	call   53e1 <e_ast_get_node>
    5c28:	48 8b 40 10          	mov    0x10(%rax),%rax
    5c2c:	48 89 c7             	mov    %rax,%rdi
    5c2f:	e8 fc b3 ff ff       	call   1030 <free@plt>
    5c34:	eb 2f                	jmp    5c65 <e_asnode_free+0x820>
    5c36:	8b 55 c4             	mov    -0x3c(%rbp),%edx
    5c39:	48 8b 45 c8          	mov    -0x38(%rbp),%rax
    5c3d:	89 d6                	mov    %edx,%esi
    5c3f:	48 89 c7             	mov    %rax,%rdi
    5c42:	e8 9a f7 ff ff       	call   53e1 <e_ast_get_node>
    5c47:	48 8b 40 08          	mov    0x8(%rax),%rax
    5c4b:	48 89 c7             	mov    %rax,%rdi
    5c4e:	e8 dd b3 ff ff       	call   1030 <free@plt>
    5c53:	eb 10                	jmp    5c65 <e_asnode_free+0x820>
    5c55:	90                   	nop
    5c56:	eb 0d                	jmp    5c65 <e_asnode_free+0x820>
    5c58:	90                   	nop
    5c59:	eb 0a                	jmp    5c65 <e_asnode_free+0x820>
    5c5b:	90                   	nop
    5c5c:	eb 07                	jmp    5c65 <e_asnode_free+0x820>
    5c5e:	90                   	nop
    5c5f:	eb 04                	jmp    5c65 <e_asnode_free+0x820>
    5c61:	90                   	nop
    5c62:	eb 01                	jmp    5c65 <e_asnode_free+0x820>
    5c64:	90                   	nop
    5c65:	c9                   	leave
    5c66:	c3                   	ret

0000000000005c67 <_asterror>:
    5c67:	55                   	push   %rbp
    5c68:	48 89 e5             	mov    %rsp,%rbp
    5c6b:	48 81 ec 00 01 00 00 	sub    $0x100,%rsp
    5c72:	48 89 bd 28 ff ff ff 	mov    %rdi,-0xd8(%rbp)
    5c79:	48 89 b5 20 ff ff ff 	mov    %rsi,-0xe0(%rbp)
    5c80:	48 89 95 10 ff ff ff 	mov    %rdx,-0xf0(%rbp)
    5c87:	48 89 8d 18 ff ff ff 	mov    %rcx,-0xe8(%rbp)
    5c8e:	4c 89 85 08 ff ff ff 	mov    %r8,-0xf8(%rbp)
    5c95:	4c 89 8d 78 ff ff ff 	mov    %r9,-0x88(%rbp)
    5c9c:	84 c0                	test   %al,%al
    5c9e:	74 20                	je     5cc0 <_asterror+0x59>
    5ca0:	0f 29 45 80          	movaps %xmm0,-0x80(%rbp)
    5ca4:	0f 29 4d 90          	movaps %xmm1,-0x70(%rbp)
    5ca8:	0f 29 55 a0          	movaps %xmm2,-0x60(%rbp)
    5cac:	0f 29 5d b0          	movaps %xmm3,-0x50(%rbp)
    5cb0:	0f 29 65 c0          	movaps %xmm4,-0x40(%rbp)
    5cb4:	0f 29 6d d0          	movaps %xmm5,-0x30(%rbp)
    5cb8:	0f 29 75 e0          	movaps %xmm6,-0x20(%rbp)
    5cbc:	0f 29 7d f0          	movaps %xmm7,-0x10(%rbp)
    5cc0:	64 48 8b 04 25 28 00 	mov    %fs:0x28,%rax
    5cc7:	00 00 
    5cc9:	48 89 85 48 ff ff ff 	mov    %rax,-0xb8(%rbp)
    5cd0:	31 c0                	xor    %eax,%eax
    5cd2:	c7 85 30 ff ff ff 28 	movl   $0x28,-0xd0(%rbp)
    5cd9:	00 00 00 
    5cdc:	c7 85 34 ff ff ff 30 	movl   $0x30,-0xcc(%rbp)
    5ce3:	00 00 00 
    5ce6:	48 8d 45 10          	lea    0x10(%rbp),%rax
    5cea:	48 89 85 38 ff ff ff 	mov    %rax,-0xc8(%rbp)
    5cf1:	48 8d 85 50 ff ff ff 	lea    -0xb0(%rbp),%rax
    5cf8:	48 89 85 40 ff ff ff 	mov    %rax,-0xc0(%rbp)
    5cff:	8b bd 1c ff ff ff    	mov    -0xe4(%rbp),%edi
    5d05:	44 8b 8d 18 ff ff ff 	mov    -0xe8(%rbp),%r9d
    5d0c:	4c 8b 85 10 ff ff ff 	mov    -0xf0(%rbp),%r8
    5d13:	48 8b 05 06 84 00 00 	mov    0x8406(%rip),%rax        # e120 <stderr@GLIBC_2.2.5>
    5d1a:	48 8b 8d 20 ff ff ff 	mov    -0xe0(%rbp),%rcx
    5d21:	48 8b 95 28 ff ff ff 	mov    -0xd8(%rbp),%rdx
    5d28:	48 8d 35 09 55 00 00 	lea    0x5509(%rip),%rsi        # b238 <__PRETTY_FUNCTION__.0+0x134>
    5d2f:	48 83 ec 08          	sub    $0x8,%rsp
    5d33:	57                   	push   %rdi
    5d34:	48 89 c7             	mov    %rax,%rdi
    5d37:	b8 00 00 00 00       	mov    $0x0,%eax
    5d3c:	e8 cf b3 ff ff       	call   1110 <fprintf@plt>
    5d41:	48 83 c4 10          	add    $0x10,%rsp
    5d45:	48 8b 05 d4 83 00 00 	mov    0x83d4(%rip),%rax        # e120 <stderr@GLIBC_2.2.5>
    5d4c:	48 8d 95 30 ff ff ff 	lea    -0xd0(%rbp),%rdx
    5d53:	48 8b 8d 08 ff ff ff 	mov    -0xf8(%rbp),%rcx
    5d5a:	48 89 ce             	mov    %rcx,%rsi
    5d5d:	48 89 c7             	mov    %rax,%rdi
    5d60:	e8 2b b4 ff ff       	call   1190 <vfprintf@plt>
    5d65:	b8 01 00 00 00       	mov    $0x1,%eax
    5d6a:	48 8b 95 48 ff ff ff 	mov    -0xb8(%rbp),%rdx
    5d71:	64 48 2b 14 25 28 00 	sub    %fs:0x28,%rdx
    5d78:	00 00 
    5d7a:	74 05                	je     5d81 <_asterror+0x11a>
    5d7c:	e8 0f b3 ff ff       	call   1090 <__stack_chk_fail@plt>
    5d81:	c9                   	leave
    5d82:	c3                   	ret

0000000000005d83 <clonespan>:
    5d83:	55                   	push   %rbp
    5d84:	48 89 e5             	mov    %rsp,%rbp
    5d87:	48 83 ec 20          	sub    $0x20,%rsp
    5d8b:	48 89 f8             	mov    %rdi,%rax
    5d8e:	48 89 f1             	mov    %rsi,%rcx
    5d91:	48 89 c0             	mov    %rax,%rax
    5d94:	ba 00 00 00 00       	mov    $0x0,%edx
    5d99:	48 89 ca             	mov    %rcx,%rdx
    5d9c:	48 89 45 e0          	mov    %rax,-0x20(%rbp)
    5da0:	48 89 55 e8          	mov    %rdx,-0x18(%rbp)
    5da4:	48 8b 45 e0          	mov    -0x20(%rbp),%rax
    5da8:	48 85 c0             	test   %rax,%rax
    5dab:	74 0e                	je     5dbb <clonespan+0x38>
    5dad:	48 8b 45 e0          	mov    -0x20(%rbp),%rax
    5db1:	48 89 c7             	mov    %rax,%rdi
    5db4:	e8 07 b4 ff ff       	call   11c0 <strdup@plt>
    5db9:	eb 05                	jmp    5dc0 <clonespan+0x3d>
    5dbb:	b8 00 00 00 00       	mov    $0x0,%eax
    5dc0:	48 89 45 f0          	mov    %rax,-0x10(%rbp)
    5dc4:	8b 45 e8             	mov    -0x18(%rbp),%eax
    5dc7:	89 45 f8             	mov    %eax,-0x8(%rbp)
    5dca:	8b 45 ec             	mov    -0x14(%rbp),%eax
    5dcd:	89 45 fc             	mov    %eax,-0x4(%rbp)
    5dd0:	48 8b 45 f0          	mov    -0x10(%rbp),%rax
    5dd4:	48 8b 55 f8          	mov    -0x8(%rbp),%rdx
    5dd8:	c9                   	leave
    5dd9:	c3                   	ret

0000000000005dda <conv_token_type_to_operator>:
    5dda:	55                   	push   %rbp
    5ddb:	48 89 e5             	mov    %rsp,%rbp
    5dde:	89 7d fc             	mov    %edi,-0x4(%rbp)
    5de1:	83 7d fc 2b          	cmpl   $0x2b,-0x4(%rbp)
    5de5:	0f 84 cc 01 00 00    	je     5fb7 <conv_token_type_to_operator+0x1dd>
    5deb:	83 7d fc 2b          	cmpl   $0x2b,-0x4(%rbp)
    5def:	0f 87 c9 01 00 00    	ja     5fbe <conv_token_type_to_operator+0x1e4>
    5df5:	83 7d fc 2a          	cmpl   $0x2a,-0x4(%rbp)
    5df9:	0f 84 b1 01 00 00    	je     5fb0 <conv_token_type_to_operator+0x1d6>
    5dff:	83 7d fc 2a          	cmpl   $0x2a,-0x4(%rbp)
    5e03:	0f 87 b5 01 00 00    	ja     5fbe <conv_token_type_to_operator+0x1e4>
    5e09:	83 7d fc 29          	cmpl   $0x29,-0x4(%rbp)
    5e0d:	0f 84 96 01 00 00    	je     5fa9 <conv_token_type_to_operator+0x1cf>
    5e13:	83 7d fc 29          	cmpl   $0x29,-0x4(%rbp)
    5e17:	0f 87 a1 01 00 00    	ja     5fbe <conv_token_type_to_operator+0x1e4>
    5e1d:	83 7d fc 28          	cmpl   $0x28,-0x4(%rbp)
    5e21:	0f 84 7b 01 00 00    	je     5fa2 <conv_token_type_to_operator+0x1c8>
    5e27:	83 7d fc 28          	cmpl   $0x28,-0x4(%rbp)
    5e2b:	0f 87 8d 01 00 00    	ja     5fbe <conv_token_type_to_operator+0x1e4>
    5e31:	83 7d fc 26          	cmpl   $0x26,-0x4(%rbp)
    5e35:	0f 84 60 01 00 00    	je     5f9b <conv_token_type_to_operator+0x1c1>
    5e3b:	83 7d fc 26          	cmpl   $0x26,-0x4(%rbp)
    5e3f:	0f 87 79 01 00 00    	ja     5fbe <conv_token_type_to_operator+0x1e4>
    5e45:	83 7d fc 25          	cmpl   $0x25,-0x4(%rbp)
    5e49:	0f 84 45 01 00 00    	je     5f94 <conv_token_type_to_operator+0x1ba>
    5e4f:	83 7d fc 25          	cmpl   $0x25,-0x4(%rbp)
    5e53:	0f 87 65 01 00 00    	ja     5fbe <conv_token_type_to_operator+0x1e4>
    5e59:	83 7d fc 24          	cmpl   $0x24,-0x4(%rbp)
    5e5d:	0f 84 23 01 00 00    	je     5f86 <conv_token_type_to_operator+0x1ac>
    5e63:	83 7d fc 24          	cmpl   $0x24,-0x4(%rbp)
    5e67:	0f 87 51 01 00 00    	ja     5fbe <conv_token_type_to_operator+0x1e4>
    5e6d:	83 7d fc 23          	cmpl   $0x23,-0x4(%rbp)
    5e71:	0f 84 16 01 00 00    	je     5f8d <conv_token_type_to_operator+0x1b3>
    5e77:	83 7d fc 23          	cmpl   $0x23,-0x4(%rbp)
    5e7b:	0f 87 3d 01 00 00    	ja     5fbe <conv_token_type_to_operator+0x1e4>
    5e81:	83 7d fc 22          	cmpl   $0x22,-0x4(%rbp)
    5e85:	0f 84 f4 00 00 00    	je     5f7f <conv_token_type_to_operator+0x1a5>
    5e8b:	83 7d fc 22          	cmpl   $0x22,-0x4(%rbp)
    5e8f:	0f 87 29 01 00 00    	ja     5fbe <conv_token_type_to_operator+0x1e4>
    5e95:	83 7d fc 21          	cmpl   $0x21,-0x4(%rbp)
    5e99:	0f 84 d9 00 00 00    	je     5f78 <conv_token_type_to_operator+0x19e>
    5e9f:	83 7d fc 21          	cmpl   $0x21,-0x4(%rbp)
    5ea3:	0f 87 15 01 00 00    	ja     5fbe <conv_token_type_to_operator+0x1e4>
    5ea9:	83 7d fc 20          	cmpl   $0x20,-0x4(%rbp)
    5ead:	0f 84 b7 00 00 00    	je     5f6a <conv_token_type_to_operator+0x190>
    5eb3:	83 7d fc 20          	cmpl   $0x20,-0x4(%rbp)
    5eb7:	0f 87 01 01 00 00    	ja     5fbe <conv_token_type_to_operator+0x1e4>
    5ebd:	83 7d fc 1f          	cmpl   $0x1f,-0x4(%rbp)
    5ec1:	0f 84 aa 00 00 00    	je     5f71 <conv_token_type_to_operator+0x197>
    5ec7:	83 7d fc 1f          	cmpl   $0x1f,-0x4(%rbp)
    5ecb:	0f 87 ed 00 00 00    	ja     5fbe <conv_token_type_to_operator+0x1e4>
    5ed1:	83 7d fc 1e          	cmpl   $0x1e,-0x4(%rbp)
    5ed5:	0f 84 88 00 00 00    	je     5f63 <conv_token_type_to_operator+0x189>
    5edb:	83 7d fc 1e          	cmpl   $0x1e,-0x4(%rbp)
    5edf:	0f 87 d9 00 00 00    	ja     5fbe <conv_token_type_to_operator+0x1e4>
    5ee5:	83 7d fc 1b          	cmpl   $0x1b,-0x4(%rbp)
    5ee9:	74 6a                	je     5f55 <conv_token_type_to_operator+0x17b>
    5eeb:	83 7d fc 1b          	cmpl   $0x1b,-0x4(%rbp)
    5eef:	0f 87 c9 00 00 00    	ja     5fbe <conv_token_type_to_operator+0x1e4>
    5ef5:	83 7d fc 1a          	cmpl   $0x1a,-0x4(%rbp)
    5ef9:	74 61                	je     5f5c <conv_token_type_to_operator+0x182>
    5efb:	83 7d fc 1a          	cmpl   $0x1a,-0x4(%rbp)
    5eff:	0f 87 b9 00 00 00    	ja     5fbe <conv_token_type_to_operator+0x1e4>
    5f05:	83 7d fc 19          	cmpl   $0x19,-0x4(%rbp)
    5f09:	74 43                	je     5f4e <conv_token_type_to_operator+0x174>
    5f0b:	83 7d fc 19          	cmpl   $0x19,-0x4(%rbp)
    5f0f:	0f 87 a9 00 00 00    	ja     5fbe <conv_token_type_to_operator+0x1e4>
    5f15:	83 7d fc 18          	cmpl   $0x18,-0x4(%rbp)
    5f19:	74 2c                	je     5f47 <conv_token_type_to_operator+0x16d>
    5f1b:	83 7d fc 18          	cmpl   $0x18,-0x4(%rbp)
    5f1f:	0f 87 99 00 00 00    	ja     5fbe <conv_token_type_to_operator+0x1e4>
    5f25:	83 7d fc 16          	cmpl   $0x16,-0x4(%rbp)
    5f29:	74 0b                	je     5f36 <conv_token_type_to_operator+0x15c>
    5f2b:	83 7d fc 17          	cmpl   $0x17,-0x4(%rbp)
    5f2f:	74 0f                	je     5f40 <conv_token_type_to_operator+0x166>
    5f31:	e9 88 00 00 00       	jmp    5fbe <conv_token_type_to_operator+0x1e4>
    5f36:	b8 00 00 00 00       	mov    $0x0,%eax
    5f3b:	e9 83 00 00 00       	jmp    5fc3 <conv_token_type_to_operator+0x1e9>
    5f40:	b8 01 00 00 00       	mov    $0x1,%eax
    5f45:	eb 7c                	jmp    5fc3 <conv_token_type_to_operator+0x1e9>
    5f47:	b8 02 00 00 00       	mov    $0x2,%eax
    5f4c:	eb 75                	jmp    5fc3 <conv_token_type_to_operator+0x1e9>
    5f4e:	b8 03 00 00 00       	mov    $0x3,%eax
    5f53:	eb 6e                	jmp    5fc3 <conv_token_type_to_operator+0x1e9>
    5f55:	b8 04 00 00 00       	mov    $0x4,%eax
    5f5a:	eb 67                	jmp    5fc3 <conv_token_type_to_operator+0x1e9>
    5f5c:	b8 05 00 00 00       	mov    $0x5,%eax
    5f61:	eb 60                	jmp    5fc3 <conv_token_type_to_operator+0x1e9>
    5f63:	b8 06 00 00 00       	mov    $0x6,%eax
    5f68:	eb 59                	jmp    5fc3 <conv_token_type_to_operator+0x1e9>
    5f6a:	b8 07 00 00 00       	mov    $0x7,%eax
    5f6f:	eb 52                	jmp    5fc3 <conv_token_type_to_operator+0x1e9>
    5f71:	b8 08 00 00 00       	mov    $0x8,%eax
    5f76:	eb 4b                	jmp    5fc3 <conv_token_type_to_operator+0x1e9>
    5f78:	b8 09 00 00 00       	mov    $0x9,%eax
    5f7d:	eb 44                	jmp    5fc3 <conv_token_type_to_operator+0x1e9>
    5f7f:	b8 0a 00 00 00       	mov    $0xa,%eax
    5f84:	eb 3d                	jmp    5fc3 <conv_token_type_to_operator+0x1e9>
    5f86:	b8 0b 00 00 00       	mov    $0xb,%eax
    5f8b:	eb 36                	jmp    5fc3 <conv_token_type_to_operator+0x1e9>
    5f8d:	b8 0c 00 00 00       	mov    $0xc,%eax
    5f92:	eb 2f                	jmp    5fc3 <conv_token_type_to_operator+0x1e9>
    5f94:	b8 0d 00 00 00       	mov    $0xd,%eax
    5f99:	eb 28                	jmp    5fc3 <conv_token_type_to_operator+0x1e9>
    5f9b:	b8 0e 00 00 00       	mov    $0xe,%eax
    5fa0:	eb 21                	jmp    5fc3 <conv_token_type_to_operator+0x1e9>
    5fa2:	b8 0f 00 00 00       	mov    $0xf,%eax
    5fa7:	eb 1a                	jmp    5fc3 <conv_token_type_to_operator+0x1e9>
    5fa9:	b8 10 00 00 00       	mov    $0x10,%eax
    5fae:	eb 13                	jmp    5fc3 <conv_token_type_to_operator+0x1e9>
    5fb0:	b8 11 00 00 00       	mov    $0x11,%eax
    5fb5:	eb 0c                	jmp    5fc3 <conv_token_type_to_operator+0x1e9>
    5fb7:	b8 12 00 00 00       	mov    $0x12,%eax
    5fbc:	eb 05                	jmp    5fc3 <conv_token_type_to_operator+0x1e9>
    5fbe:	b8 ff ff ff ff       	mov    $0xffffffff,%eax
    5fc3:	5d                   	pop    %rbp
    5fc4:	c3                   	ret

0000000000005fc5 <parse_braces>:
    5fc5:	55                   	push   %rbp
    5fc6:	48 89 e5             	mov    %rsp,%rbp
    5fc9:	48 83 ec 50          	sub    $0x50,%rsp
    5fcd:	48 89 7d c8          	mov    %rdi,-0x38(%rbp)
    5fd1:	48 89 75 c0          	mov    %rsi,-0x40(%rbp)
    5fd5:	48 89 55 b8          	mov    %rdx,-0x48(%rbp)
    5fd9:	c7 45 d4 10 00 00 00 	movl   $0x10,-0x2c(%rbp)
    5fe0:	c7 45 d8 00 00 00 00 	movl   $0x0,-0x28(%rbp)
    5fe7:	8b 45 d4             	mov    -0x2c(%rbp),%eax
    5fea:	48 98                	cltq
    5fec:	48 c1 e0 02          	shl    $0x2,%rax
    5ff0:	48 89 c7             	mov    %rax,%rdi
    5ff3:	e8 48 b1 ff ff       	call   1140 <malloc@plt>
    5ff8:	48 89 45 e8          	mov    %rax,-0x18(%rbp)
    5ffc:	e9 7d 01 00 00       	jmp    617e <parse_braces+0x1b9>
    6001:	8b 45 d8             	mov    -0x28(%rbp),%eax
    6004:	83 c0 01             	add    $0x1,%eax
    6007:	39 45 d4             	cmp    %eax,-0x2c(%rbp)
    600a:	0f 8f 87 00 00 00    	jg     6097 <parse_braces+0xd2>
    6010:	8b 45 d4             	mov    -0x2c(%rbp),%eax
    6013:	01 c0                	add    %eax,%eax
    6015:	ba 01 00 00 00       	mov    $0x1,%edx
    601a:	85 c0                	test   %eax,%eax
    601c:	0f 4e c2             	cmovle %edx,%eax
    601f:	89 45 dc             	mov    %eax,-0x24(%rbp)
    6022:	8b 45 dc             	mov    -0x24(%rbp),%eax
    6025:	48 98                	cltq
    6027:	48 8d 14 85 00 00 00 	lea    0x0(,%rax,4),%rdx
    602e:	00 
    602f:	48 8b 45 e8          	mov    -0x18(%rbp),%rax
    6033:	48 89 d6             	mov    %rdx,%rsi
    6036:	48 89 c7             	mov    %rax,%rdi
    6039:	e8 22 b1 ff ff       	call   1160 <realloc@plt>
    603e:	48 89 45 f0          	mov    %rax,-0x10(%rbp)
    6042:	48 83 7d f0 00       	cmpq   $0x0,-0x10(%rbp)
    6047:	75 40                	jne    6089 <parse_braces+0xc4>
    6049:	48 83 7d e8 00       	cmpq   $0x0,-0x18(%rbp)
    604e:	74 0c                	je     605c <parse_braces+0x97>
    6050:	48 8b 45 e8          	mov    -0x18(%rbp),%rax
    6054:	48 89 c7             	mov    %rax,%rdi
    6057:	e8 d4 af ff ff       	call   1030 <free@plt>
    605c:	48 83 7d c0 00       	cmpq   $0x0,-0x40(%rbp)
    6061:	74 0b                	je     606e <parse_braces+0xa9>
    6063:	48 8b 45 c0          	mov    -0x40(%rbp),%rax
    6067:	48 c7 00 00 00 00 00 	movq   $0x0,(%rax)
    606e:	48 83 7d b8 00       	cmpq   $0x0,-0x48(%rbp)
    6073:	74 0a                	je     607f <parse_braces+0xba>
    6075:	48 8b 45 b8          	mov    -0x48(%rbp),%rax
    6079:	c7 00 00 00 00 00    	movl   $0x0,(%rax)
    607f:	b8 ff ff ff ff       	mov    $0xffffffff,%eax
    6084:	e9 50 01 00 00       	jmp    61d9 <parse_braces+0x214>
    6089:	48 8b 45 f0          	mov    -0x10(%rbp),%rax
    608d:	48 89 45 e8          	mov    %rax,-0x18(%rbp)
    6091:	8b 45 dc             	mov    -0x24(%rbp),%eax
    6094:	89 45 d4             	mov    %eax,-0x2c(%rbp)
    6097:	48 8b 45 c8          	mov    -0x38(%rbp),%rax
    609b:	be 00 00 00 00       	mov    $0x0,%esi
    60a0:	48 89 c7             	mov    %rax,%rdi
    60a3:	e8 bb 02 00 00       	call   6363 <e_ast_expr>
    60a8:	89 45 e0             	mov    %eax,-0x20(%rbp)
    60ab:	8b 45 d8             	mov    -0x28(%rbp),%eax
    60ae:	8d 50 01             	lea    0x1(%rax),%edx
    60b1:	89 55 d8             	mov    %edx,-0x28(%rbp)
    60b4:	48 98                	cltq
    60b6:	48 8d 14 85 00 00 00 	lea    0x0(,%rax,4),%rdx
    60bd:	00 
    60be:	48 8b 45 e8          	mov    -0x18(%rbp),%rax
    60c2:	48 01 c2             	add    %rax,%rdx
    60c5:	8b 45 e0             	mov    -0x20(%rbp),%eax
    60c8:	89 02                	mov    %eax,(%rdx)
    60ca:	8b 55 e0             	mov    -0x20(%rbp),%edx
    60cd:	48 8b 45 c8          	mov    -0x38(%rbp),%rax
    60d1:	89 d6                	mov    %edx,%esi
    60d3:	48 89 c7             	mov    %rax,%rdi
    60d6:	e8 06 f3 ff ff       	call   53e1 <e_ast_get_node>
    60db:	48 89 45 f8          	mov    %rax,-0x8(%rbp)
    60df:	48 8b 45 f8          	mov    -0x8(%rbp),%rax
    60e3:	8b 00                	mov    (%rax),%eax
    60e5:	89 c7                	mov    %eax,%edi
    60e7:	e8 23 f3 ff ff       	call   540f <e_ast_is_limiter_exempt>
    60ec:	83 f0 01             	xor    $0x1,%eax
    60ef:	84 c0                	test   %al,%al
    60f1:	0f 84 87 00 00 00    	je     617e <parse_braces+0x1b9>
    60f7:	48 8b 45 c8          	mov    -0x38(%rbp),%rax
    60fb:	be 01 00 00 00       	mov    $0x1,%esi
    6100:	48 89 c7             	mov    %rax,%rdi
    6103:	e8 33 02 00 00       	call   633b <e_ast_expect>
    6108:	89 45 e4             	mov    %eax,-0x1c(%rbp)
    610b:	83 7d e4 00          	cmpl   $0x0,-0x1c(%rbp)
    610f:	74 6d                	je     617e <parse_braces+0x1b9>
    6111:	48 83 7d e8 00       	cmpq   $0x0,-0x18(%rbp)
    6116:	74 0c                	je     6124 <parse_braces+0x15f>
    6118:	48 8b 45 e8          	mov    -0x18(%rbp),%rax
    611c:	48 89 c7             	mov    %rax,%rdi
    611f:	e8 0c af ff ff       	call   1030 <free@plt>
    6124:	48 83 7d c0 00       	cmpq   $0x0,-0x40(%rbp)
    6129:	74 0b                	je     6136 <parse_braces+0x171>
    612b:	48 8b 45 c0          	mov    -0x40(%rbp),%rax
    612f:	48 c7 00 00 00 00 00 	movq   $0x0,(%rax)
    6136:	48 83 7d b8 00       	cmpq   $0x0,-0x48(%rbp)
    613b:	74 0a                	je     6147 <parse_braces+0x182>
    613d:	48 8b 45 b8          	mov    -0x48(%rbp),%rax
    6141:	c7 00 00 00 00 00    	movl   $0x0,(%rax)
    6147:	48 8d 0d 0a 51 00 00 	lea    0x510a(%rip),%rcx        # b258 <__PRETTY_FUNCTION__.0+0x154>
    614e:	48 8b 45 f8          	mov    -0x8(%rbp),%rax
    6152:	48 8b 50 38          	mov    0x38(%rax),%rdx
    6156:	48 8b 40 30          	mov    0x30(%rax),%rax
    615a:	48 8d 3d 0c 51 00 00 	lea    0x510c(%rip),%rdi        # b26d <__PRETTY_FUNCTION__.0+0x169>
    6161:	49 89 c8             	mov    %rcx,%r8
    6164:	48 89 d1             	mov    %rdx,%rcx
    6167:	48 89 c2             	mov    %rax,%rdx
    616a:	be 6e 00 00 00       	mov    $0x6e,%esi
    616f:	b8 00 00 00 00       	mov    $0x0,%eax
    6174:	e8 ee fa ff ff       	call   5c67 <_asterror>
    6179:	8b 45 e4             	mov    -0x1c(%rbp),%eax
    617c:	eb 5b                	jmp    61d9 <parse_braces+0x214>
    617e:	48 8b 45 c8          	mov    -0x38(%rbp),%rax
    6182:	48 89 c7             	mov    %rax,%rdi
    6185:	e8 b3 ee ff ff       	call   503d <e_ast_peek>
    618a:	48 85 c0             	test   %rax,%rax
    618d:	74 17                	je     61a6 <parse_braces+0x1e1>
    618f:	48 8b 45 c8          	mov    -0x38(%rbp),%rax
    6193:	48 89 c7             	mov    %rax,%rdi
    6196:	e8 a2 ee ff ff       	call   503d <e_ast_peek>
    619b:	8b 00                	mov    (%rax),%eax
    619d:	83 f8 05             	cmp    $0x5,%eax
    61a0:	0f 85 5b fe ff ff    	jne    6001 <parse_braces+0x3c>
    61a6:	48 8b 45 c8          	mov    -0x38(%rbp),%rax
    61aa:	48 89 c7             	mov    %rax,%rdi
    61ad:	e8 46 ee ff ff       	call   4ff8 <e_ast_next>
    61b2:	48 83 7d c0 00       	cmpq   $0x0,-0x40(%rbp)
    61b7:	74 0b                	je     61c4 <parse_braces+0x1ff>
    61b9:	48 8b 45 c0          	mov    -0x40(%rbp),%rax
    61bd:	48 8b 55 e8          	mov    -0x18(%rbp),%rdx
    61c1:	48 89 10             	mov    %rdx,(%rax)
    61c4:	48 83 7d b8 00       	cmpq   $0x0,-0x48(%rbp)
    61c9:	74 09                	je     61d4 <parse_braces+0x20f>
    61cb:	48 8b 45 b8          	mov    -0x48(%rbp),%rax
    61cf:	8b 55 d8             	mov    -0x28(%rbp),%edx
    61d2:	89 10                	mov    %edx,(%rax)
    61d4:	b8 00 00 00 00       	mov    $0x0,%eax
    61d9:	c9                   	leave
    61da:	c3                   	ret

00000000000061db <parse_body>:
    61db:	55                   	push   %rbp
    61dc:	48 89 e5             	mov    %rsp,%rbp
    61df:	48 83 ec 30          	sub    $0x30,%rsp
    61e3:	48 89 7d e8          	mov    %rdi,-0x18(%rbp)
    61e7:	48 89 75 e0          	mov    %rsi,-0x20(%rbp)
    61eb:	48 89 55 d8          	mov    %rdx,-0x28(%rbp)
    61ef:	48 8b 45 e8          	mov    -0x18(%rbp),%rax
    61f3:	48 89 c7             	mov    %rax,%rdi
    61f6:	e8 42 ee ff ff       	call   503d <e_ast_peek>
    61fb:	48 85 c0             	test   %rax,%rax
    61fe:	74 3b                	je     623b <parse_body+0x60>
    6200:	48 8b 45 e8          	mov    -0x18(%rbp),%rax
    6204:	48 89 c7             	mov    %rax,%rdi
    6207:	e8 31 ee ff ff       	call   503d <e_ast_peek>
    620c:	8b 00                	mov    (%rax),%eax
    620e:	83 f8 04             	cmp    $0x4,%eax
    6211:	75 28                	jne    623b <parse_body+0x60>
    6213:	48 8b 45 e8          	mov    -0x18(%rbp),%rax
    6217:	48 89 c7             	mov    %rax,%rdi
    621a:	e8 d9 ed ff ff       	call   4ff8 <e_ast_next>
    621f:	48 8b 55 d8          	mov    -0x28(%rbp),%rdx
    6223:	48 8b 4d e0          	mov    -0x20(%rbp),%rcx
    6227:	48 8b 45 e8          	mov    -0x18(%rbp),%rax
    622b:	48 89 ce             	mov    %rcx,%rsi
    622e:	48 89 c7             	mov    %rax,%rdi
    6231:	e8 8f fd ff ff       	call   5fc5 <parse_braces>
    6236:	e9 fe 00 00 00       	jmp    6339 <parse_body+0x15e>
    623b:	48 8b 45 e8          	mov    -0x18(%rbp),%rax
    623f:	48 89 c7             	mov    %rax,%rdi
    6242:	e8 f6 ed ff ff       	call   503d <e_ast_peek>
    6247:	48 85 c0             	test   %rax,%rax
    624a:	74 3f                	je     628b <parse_body+0xb0>
    624c:	48 8b 45 e8          	mov    -0x18(%rbp),%rax
    6250:	48 89 c7             	mov    %rax,%rdi
    6253:	e8 e5 ed ff ff       	call   503d <e_ast_peek>
    6258:	8b 00                	mov    (%rax),%eax
    625a:	83 f8 01             	cmp    $0x1,%eax
    625d:	75 2c                	jne    628b <parse_body+0xb0>
    625f:	48 83 7d e0 00       	cmpq   $0x0,-0x20(%rbp)
    6264:	74 0b                	je     6271 <parse_body+0x96>
    6266:	48 8b 45 e0          	mov    -0x20(%rbp),%rax
    626a:	48 c7 00 00 00 00 00 	movq   $0x0,(%rax)
    6271:	48 83 7d d8 00       	cmpq   $0x0,-0x28(%rbp)
    6276:	0f 84 b8 00 00 00    	je     6334 <parse_body+0x159>
    627c:	48 8b 45 d8          	mov    -0x28(%rbp),%rax
    6280:	c7 00 00 00 00 00    	movl   $0x0,(%rax)
    6286:	e9 a9 00 00 00       	jmp    6334 <parse_body+0x159>
    628b:	48 83 7d e0 00       	cmpq   $0x0,-0x20(%rbp)
    6290:	74 14                	je     62a6 <parse_body+0xcb>
    6292:	bf 04 00 00 00       	mov    $0x4,%edi
    6297:	e8 a4 ae ff ff       	call   1140 <malloc@plt>
    629c:	48 89 c2             	mov    %rax,%rdx
    629f:	48 8b 45 e0          	mov    -0x20(%rbp),%rax
    62a3:	48 89 10             	mov    %rdx,(%rax)
    62a6:	48 8b 45 e8          	mov    -0x18(%rbp),%rax
    62aa:	be 00 00 00 00       	mov    $0x0,%esi
    62af:	48 89 c7             	mov    %rax,%rdi
    62b2:	e8 ac 00 00 00       	call   6363 <e_ast_expr>
    62b7:	89 45 fc             	mov    %eax,-0x4(%rbp)
    62ba:	48 83 7d e0 00       	cmpq   $0x0,-0x20(%rbp)
    62bf:	74 0c                	je     62cd <parse_body+0xf2>
    62c1:	48 8b 45 e0          	mov    -0x20(%rbp),%rax
    62c5:	48 8b 00             	mov    (%rax),%rax
    62c8:	8b 55 fc             	mov    -0x4(%rbp),%edx
    62cb:	89 10                	mov    %edx,(%rax)
    62cd:	48 83 7d d8 00       	cmpq   $0x0,-0x28(%rbp)
    62d2:	74 0a                	je     62de <parse_body+0x103>
    62d4:	48 8b 45 d8          	mov    -0x28(%rbp),%rax
    62d8:	c7 00 01 00 00 00    	movl   $0x1,(%rax)
    62de:	48 8b 45 e8          	mov    -0x18(%rbp),%rax
    62e2:	be 01 00 00 00       	mov    $0x1,%esi
    62e7:	48 89 c7             	mov    %rax,%rdi
    62ea:	e8 4c 00 00 00       	call   633b <e_ast_expect>
    62ef:	85 c0                	test   %eax,%eax
    62f1:	74 41                	je     6334 <parse_body+0x159>
    62f3:	48 8b 45 e8          	mov    -0x18(%rbp),%rax
    62f7:	48 89 c7             	mov    %rax,%rdi
    62fa:	e8 3e ed ff ff       	call   503d <e_ast_peek>
    62ff:	48 8d 0d 72 4f 00 00 	lea    0x4f72(%rip),%rcx        # b278 <__PRETTY_FUNCTION__.0+0x174>
    6306:	48 8b 50 18          	mov    0x18(%rax),%rdx
    630a:	48 8b 40 10          	mov    0x10(%rax),%rax
    630e:	48 8d 3d 58 4f 00 00 	lea    0x4f58(%rip),%rdi        # b26d <__PRETTY_FUNCTION__.0+0x169>
    6315:	49 89 c8             	mov    %rcx,%r8
    6318:	48 89 d1             	mov    %rdx,%rcx
    631b:	48 89 c2             	mov    %rax,%rdx
    631e:	be 9a 00 00 00       	mov    $0x9a,%esi
    6323:	b8 00 00 00 00       	mov    $0x0,%eax
    6328:	e8 3a f9 ff ff       	call   5c67 <_asterror>
    632d:	b8 ff ff ff ff       	mov    $0xffffffff,%eax
    6332:	eb 05                	jmp    6339 <parse_body+0x15e>
    6334:	b8 00 00 00 00       	mov    $0x0,%eax
    6339:	c9                   	leave
    633a:	c3                   	ret

000000000000633b <e_ast_expect>:
    633b:	55                   	push   %rbp
    633c:	48 89 e5             	mov    %rsp,%rbp
    633f:	48 83 ec 10          	sub    $0x10,%rsp
    6343:	48 89 7d f8          	mov    %rdi,-0x8(%rbp)
    6347:	89 75 f4             	mov    %esi,-0xc(%rbp)
    634a:	48 8b 45 f8          	mov    -0x8(%rbp),%rax
    634e:	48 89 c7             	mov    %rax,%rdi
    6351:	e8 a2 ec ff ff       	call   4ff8 <e_ast_next>
    6356:	8b 00                	mov    (%rax),%eax
    6358:	39 45 f4             	cmp    %eax,-0xc(%rbp)
    635b:	0f 95 c0             	setne  %al
    635e:	0f b6 c0             	movzbl %al,%eax
    6361:	c9                   	leave
    6362:	c3                   	ret

0000000000006363 <e_ast_expr>:
    6363:	55                   	push   %rbp
    6364:	48 89 e5             	mov    %rsp,%rbp
    6367:	53                   	push   %rbx
    6368:	48 83 ec 38          	sub    $0x38,%rsp
    636c:	48 89 7d c8          	mov    %rdi,-0x38(%rbp)
    6370:	89 75 c4             	mov    %esi,-0x3c(%rbp)
    6373:	64 48 8b 04 25 28 00 	mov    %fs:0x28,%rax
    637a:	00 00 
    637c:	48 89 45 e8          	mov    %rax,-0x18(%rbp)
    6380:	31 c0                	xor    %eax,%eax
    6382:	48 8b 45 c8          	mov    -0x38(%rbp),%rax
    6386:	48 89 c7             	mov    %rax,%rdi
    6389:	e8 6a ec ff ff       	call   4ff8 <e_ast_next>
    638e:	48 89 c2             	mov    %rax,%rdx
    6391:	48 8b 45 c8          	mov    -0x38(%rbp),%rax
    6395:	48 89 d6             	mov    %rdx,%rsi
    6398:	48 89 c7             	mov    %rax,%rdi
    639b:	e8 15 13 00 00       	call   76b5 <e_ast_nud>
    63a0:	89 45 dc             	mov    %eax,-0x24(%rbp)
    63a3:	eb 64                	jmp    6409 <e_ast_expr+0xa6>
    63a5:	48 8b 45 c8          	mov    -0x38(%rbp),%rax
    63a9:	48 89 c7             	mov    %rax,%rdi
    63ac:	e8 8c ec ff ff       	call   503d <e_ast_peek>
    63b1:	48 89 45 e0          	mov    %rax,-0x20(%rbp)
    63b5:	c7 45 d4 00 00 00 00 	movl   $0x0,-0x2c(%rbp)
    63bc:	c7 45 d8 00 00 00 00 	movl   $0x0,-0x28(%rbp)
    63c3:	48 8b 45 e0          	mov    -0x20(%rbp),%rax
    63c7:	8b 00                	mov    (%rax),%eax
    63c9:	48 8d 55 d8          	lea    -0x28(%rbp),%rdx
    63cd:	48 8d 4d d4          	lea    -0x2c(%rbp),%rcx
    63d1:	48 89 ce             	mov    %rcx,%rsi
    63d4:	89 c7                	mov    %eax,%edi
    63d6:	e8 9d ec ff ff       	call   5078 <e_getbp>
    63db:	8b 45 d4             	mov    -0x2c(%rbp),%eax
    63de:	39 45 c4             	cmp    %eax,-0x3c(%rbp)
    63e1:	7d 39                	jge    641c <e_ast_expr+0xb9>
    63e3:	8b 5d d8             	mov    -0x28(%rbp),%ebx
    63e6:	48 8b 45 c8          	mov    -0x38(%rbp),%rax
    63ea:	48 89 c7             	mov    %rax,%rdi
    63ed:	e8 06 ec ff ff       	call   4ff8 <e_ast_next>
    63f2:	48 89 c6             	mov    %rax,%rsi
    63f5:	8b 55 dc             	mov    -0x24(%rbp),%edx
    63f8:	48 8b 45 c8          	mov    -0x38(%rbp),%rax
    63fc:	89 d9                	mov    %ebx,%ecx
    63fe:	48 89 c7             	mov    %rax,%rdi
    6401:	e8 c1 19 00 00       	call   7dc7 <e_ast_led>
    6406:	89 45 dc             	mov    %eax,-0x24(%rbp)
    6409:	48 8b 45 c8          	mov    -0x38(%rbp),%rax
    640d:	48 89 c7             	mov    %rax,%rdi
    6410:	e8 28 ec ff ff       	call   503d <e_ast_peek>
    6415:	48 85 c0             	test   %rax,%rax
    6418:	75 8b                	jne    63a5 <e_ast_expr+0x42>
    641a:	eb 01                	jmp    641d <e_ast_expr+0xba>
    641c:	90                   	nop
    641d:	8b 45 dc             	mov    -0x24(%rbp),%eax
    6420:	48 8b 55 e8          	mov    -0x18(%rbp),%rdx
    6424:	64 48 2b 14 25 28 00 	sub    %fs:0x28,%rdx
    642b:	00 00 
    642d:	74 05                	je     6434 <e_ast_expr+0xd1>
    642f:	e8 5c ac ff ff       	call   1090 <__stack_chk_fail@plt>
    6434:	48 8b 5d f8          	mov    -0x8(%rbp),%rbx
    6438:	c9                   	leave
    6439:	c3                   	ret

000000000000643a <parse_variable_decleration>:
    643a:	55                   	push   %rbp
    643b:	48 89 e5             	mov    %rsp,%rbp
    643e:	53                   	push   %rbx
    643f:	48 83 ec 38          	sub    $0x38,%rsp
    6443:	48 89 7d c8          	mov    %rdi,-0x38(%rbp)
    6447:	89 75 c4             	mov    %esi,-0x3c(%rbp)
    644a:	83 7d c4 00          	cmpl   $0x0,-0x3c(%rbp)
    644e:	79 08                	jns    6458 <parse_variable_decleration+0x1e>
    6450:	8b 45 c4             	mov    -0x3c(%rbp),%eax
    6453:	e9 ca 01 00 00       	jmp    6622 <parse_variable_decleration+0x1e8>
    6458:	48 8b 45 c8          	mov    -0x38(%rbp),%rax
    645c:	48 89 c7             	mov    %rax,%rdi
    645f:	e8 d9 eb ff ff       	call   503d <e_ast_peek>
    6464:	48 89 45 e0          	mov    %rax,-0x20(%rbp)
    6468:	48 83 7d e0 00       	cmpq   $0x0,-0x20(%rbp)
    646d:	74 0b                	je     647a <parse_variable_decleration+0x40>
    646f:	48 8b 45 e0          	mov    -0x20(%rbp),%rax
    6473:	8b 00                	mov    (%rax),%eax
    6475:	83 f8 2c             	cmp    $0x2c,%eax
    6478:	74 4f                	je     64c9 <parse_variable_decleration+0x8f>
    647a:	48 83 7d e0 00       	cmpq   $0x0,-0x20(%rbp)
    647f:	74 0e                	je     648f <parse_variable_decleration+0x55>
    6481:	48 8b 45 e0          	mov    -0x20(%rbp),%rax
    6485:	48 8b 50 18          	mov    0x18(%rax),%rdx
    6489:	48 8b 40 10          	mov    0x10(%rax),%rax
    648d:	eb 0a                	jmp    6499 <parse_variable_decleration+0x5f>
    648f:	b8 00 00 00 00       	mov    $0x0,%eax
    6494:	ba 00 00 00 00       	mov    $0x0,%edx
    6499:	48 8d 0d fe 4d 00 00 	lea    0x4dfe(%rip),%rcx        # b29e <__PRETTY_FUNCTION__.0+0x19a>
    64a0:	48 8d 3d c6 4d 00 00 	lea    0x4dc6(%rip),%rdi        # b26d <__PRETTY_FUNCTION__.0+0x169>
    64a7:	49 89 c8             	mov    %rcx,%r8
    64aa:	48 89 d1             	mov    %rdx,%rcx
    64ad:	48 89 c2             	mov    %rax,%rdx
    64b0:	be c7 00 00 00       	mov    $0xc7,%esi
    64b5:	b8 00 00 00 00       	mov    $0x0,%eax
    64ba:	e8 a8 f7 ff ff       	call   5c67 <_asterror>
    64bf:	b8 ff ff ff ff       	mov    $0xffffffff,%eax
    64c4:	e9 59 01 00 00       	jmp    6622 <parse_variable_decleration+0x1e8>
    64c9:	48 8b 45 c8          	mov    -0x38(%rbp),%rax
    64cd:	48 89 c7             	mov    %rax,%rdi
    64d0:	e8 23 eb ff ff       	call   4ff8 <e_ast_next>
    64d5:	48 8b 45 e0          	mov    -0x20(%rbp),%rax
    64d9:	48 8b 40 08          	mov    0x8(%rax),%rax
    64dd:	48 89 c7             	mov    %rax,%rdi
    64e0:	e8 db ac ff ff       	call   11c0 <strdup@plt>
    64e5:	48 89 45 e8          	mov    %rax,-0x18(%rbp)
    64e9:	8b 55 c4             	mov    -0x3c(%rbp),%edx
    64ec:	48 8b 45 c8          	mov    -0x38(%rbp),%rax
    64f0:	89 d6                	mov    %edx,%esi
    64f2:	48 89 c7             	mov    %rax,%rdi
    64f5:	e8 e7 ee ff ff       	call   53e1 <e_ast_get_node>
    64fa:	c7 00 0c 00 00 00    	movl   $0xc,(%rax)
    6500:	8b 55 c4             	mov    -0x3c(%rbp),%edx
    6503:	48 8b 45 c8          	mov    -0x38(%rbp),%rax
    6507:	89 d6                	mov    %edx,%esi
    6509:	48 89 c7             	mov    %rax,%rdi
    650c:	e8 d0 ee ff ff       	call   53e1 <e_ast_get_node>
    6511:	48 89 c3             	mov    %rax,%rbx
    6514:	48 8b 45 e8          	mov    -0x18(%rbp),%rax
    6518:	48 89 c7             	mov    %rax,%rdi
    651b:	e8 a0 ac ff ff       	call   11c0 <strdup@plt>
    6520:	48 89 43 08          	mov    %rax,0x8(%rbx)
    6524:	48 8b 45 c8          	mov    -0x38(%rbp),%rax
    6528:	48 89 c7             	mov    %rax,%rdi
    652b:	e8 0d eb ff ff       	call   503d <e_ast_peek>
    6530:	8b 00                	mov    (%rax),%eax
    6532:	83 f8 01             	cmp    $0x1,%eax
    6535:	75 20                	jne    6557 <parse_variable_decleration+0x11d>
    6537:	8b 55 c4             	mov    -0x3c(%rbp),%edx
    653a:	48 8b 45 c8          	mov    -0x38(%rbp),%rax
    653e:	89 d6                	mov    %edx,%esi
    6540:	48 89 c7             	mov    %rax,%rdi
    6543:	e8 99 ee ff ff       	call   53e1 <e_ast_get_node>
    6548:	c7 40 10 ff ff ff ff 	movl   $0xffffffff,0x10(%rax)
    654f:	8b 45 c4             	mov    -0x3c(%rbp),%eax
    6552:	e9 cb 00 00 00       	jmp    6622 <parse_variable_decleration+0x1e8>
    6557:	48 8b 45 c8          	mov    -0x38(%rbp),%rax
    655b:	be 25 00 00 00       	mov    $0x25,%esi
    6560:	48 89 c7             	mov    %rax,%rdi
    6563:	e8 d3 fd ff ff       	call   633b <e_ast_expect>
    6568:	85 c0                	test   %eax,%eax
    656a:	74 41                	je     65ad <parse_variable_decleration+0x173>
    656c:	48 8b 45 c8          	mov    -0x38(%rbp),%rax
    6570:	48 89 c7             	mov    %rax,%rdi
    6573:	e8 c5 ea ff ff       	call   503d <e_ast_peek>
    6578:	48 8d 0d 39 4d 00 00 	lea    0x4d39(%rip),%rcx        # b2b8 <__PRETTY_FUNCTION__.0+0x1b4>
    657f:	48 8b 50 18          	mov    0x18(%rax),%rdx
    6583:	48 8b 40 10          	mov    0x10(%rax),%rax
    6587:	48 8d 3d df 4c 00 00 	lea    0x4cdf(%rip),%rdi        # b26d <__PRETTY_FUNCTION__.0+0x169>
    658e:	49 89 c8             	mov    %rcx,%r8
    6591:	48 89 d1             	mov    %rdx,%rcx
    6594:	48 89 c2             	mov    %rax,%rdx
    6597:	be d9 00 00 00       	mov    $0xd9,%esi
    659c:	b8 00 00 00 00       	mov    $0x0,%eax
    65a1:	e8 c1 f6 ff ff       	call   5c67 <_asterror>
    65a6:	b8 ff ff ff ff       	mov    $0xffffffff,%eax
    65ab:	eb 75                	jmp    6622 <parse_variable_decleration+0x1e8>
    65ad:	48 8b 45 c8          	mov    -0x38(%rbp),%rax
    65b1:	be 00 00 00 00       	mov    $0x0,%esi
    65b6:	48 89 c7             	mov    %rax,%rdi
    65b9:	e8 a5 fd ff ff       	call   6363 <e_ast_expr>
    65be:	89 45 dc             	mov    %eax,-0x24(%rbp)
    65c1:	83 7d dc 00          	cmpl   $0x0,-0x24(%rbp)
    65c5:	79 41                	jns    6608 <parse_variable_decleration+0x1ce>
    65c7:	48 8b 45 c8          	mov    -0x38(%rbp),%rax
    65cb:	48 89 c7             	mov    %rax,%rdi
    65ce:	e8 6a ea ff ff       	call   503d <e_ast_peek>
    65d3:	48 8d 0d 01 4d 00 00 	lea    0x4d01(%rip),%rcx        # b2db <__PRETTY_FUNCTION__.0+0x1d7>
    65da:	48 8b 50 18          	mov    0x18(%rax),%rdx
    65de:	48 8b 40 10          	mov    0x10(%rax),%rax
    65e2:	48 8d 3d 84 4c 00 00 	lea    0x4c84(%rip),%rdi        # b26d <__PRETTY_FUNCTION__.0+0x169>
    65e9:	49 89 c8             	mov    %rcx,%r8
    65ec:	48 89 d1             	mov    %rdx,%rcx
    65ef:	48 89 c2             	mov    %rax,%rdx
    65f2:	be df 00 00 00       	mov    $0xdf,%esi
    65f7:	b8 00 00 00 00       	mov    $0x0,%eax
    65fc:	e8 66 f6 ff ff       	call   5c67 <_asterror>
    6601:	b8 ff ff ff ff       	mov    $0xffffffff,%eax
    6606:	eb 1a                	jmp    6622 <parse_variable_decleration+0x1e8>
    6608:	8b 55 c4             	mov    -0x3c(%rbp),%edx
    660b:	48 8b 45 c8          	mov    -0x38(%rbp),%rax
    660f:	89 d6                	mov    %edx,%esi
    6611:	48 89 c7             	mov    %rax,%rdi
    6614:	e8 c8 ed ff ff       	call   53e1 <e_ast_get_node>
    6619:	8b 55 dc             	mov    -0x24(%rbp),%edx
    661c:	89 50 10             	mov    %edx,0x10(%rax)
    661f:	8b 45 c4             	mov    -0x3c(%rbp),%eax
    6622:	48 8b 5d f8          	mov    -0x8(%rbp),%rbx
    6626:	c9                   	leave
    6627:	c3                   	ret

0000000000006628 <parse_if>:
    6628:	55                   	push   %rbp
    6629:	48 89 e5             	mov    %rsp,%rbp
    662c:	48 81 ec 90 00 00 00 	sub    $0x90,%rsp
    6633:	48 89 bd 78 ff ff ff 	mov    %rdi,-0x88(%rbp)
    663a:	89 b5 74 ff ff ff    	mov    %esi,-0x8c(%rbp)
    6640:	64 48 8b 04 25 28 00 	mov    %fs:0x28,%rax
    6647:	00 00 
    6649:	48 89 45 f8          	mov    %rax,-0x8(%rbp)
    664d:	31 c0                	xor    %eax,%eax
    664f:	83 bd 74 ff ff ff 00 	cmpl   $0x0,-0x8c(%rbp)
    6656:	79 0b                	jns    6663 <parse_if+0x3b>
    6658:	8b 85 74 ff ff ff    	mov    -0x8c(%rbp),%eax
    665e:	e9 af 05 00 00       	jmp    6c12 <parse_if+0x5ea>
    6663:	48 8b 85 78 ff ff ff 	mov    -0x88(%rbp),%rax
    666a:	be 06 00 00 00       	mov    $0x6,%esi
    666f:	48 89 c7             	mov    %rax,%rdi
    6672:	e8 c4 fc ff ff       	call   633b <e_ast_expect>
    6677:	85 c0                	test   %eax,%eax
    6679:	74 47                	je     66c2 <parse_if+0x9a>
    667b:	48 8b 85 78 ff ff ff 	mov    -0x88(%rbp),%rax
    6682:	48 89 c7             	mov    %rax,%rdi
    6685:	e8 b3 e9 ff ff       	call   503d <e_ast_peek>
    668a:	48 8d 0d 65 4c 00 00 	lea    0x4c65(%rip),%rcx        # b2f6 <__PRETTY_FUNCTION__.0+0x1f2>
    6691:	48 8b 50 18          	mov    0x18(%rax),%rdx
    6695:	48 8b 40 10          	mov    0x10(%rax),%rax
    6699:	48 8d 3d cd 4b 00 00 	lea    0x4bcd(%rip),%rdi        # b26d <__PRETTY_FUNCTION__.0+0x169>
    66a0:	49 89 c8             	mov    %rcx,%r8
    66a3:	48 89 d1             	mov    %rdx,%rcx
    66a6:	48 89 c2             	mov    %rax,%rdx
    66a9:	be ee 00 00 00       	mov    $0xee,%esi
    66ae:	b8 00 00 00 00       	mov    $0x0,%eax
    66b3:	e8 af f5 ff ff       	call   5c67 <_asterror>
    66b8:	b8 ff ff ff ff       	mov    $0xffffffff,%eax
    66bd:	e9 50 05 00 00       	jmp    6c12 <parse_if+0x5ea>
    66c2:	48 8b 85 78 ff ff ff 	mov    -0x88(%rbp),%rax
    66c9:	be 00 00 00 00       	mov    $0x0,%esi
    66ce:	48 89 c7             	mov    %rax,%rdi
    66d1:	e8 8d fc ff ff       	call   6363 <e_ast_expr>
    66d6:	89 45 98             	mov    %eax,-0x68(%rbp)
    66d9:	48 8b 85 78 ff ff ff 	mov    -0x88(%rbp),%rax
    66e0:	be 07 00 00 00       	mov    $0x7,%esi
    66e5:	48 89 c7             	mov    %rax,%rdi
    66e8:	e8 4e fc ff ff       	call   633b <e_ast_expect>
    66ed:	85 c0                	test   %eax,%eax
    66ef:	74 47                	je     6738 <parse_if+0x110>
    66f1:	48 8b 85 78 ff ff ff 	mov    -0x88(%rbp),%rax
    66f8:	48 89 c7             	mov    %rax,%rdi
    66fb:	e8 3d e9 ff ff       	call   503d <e_ast_peek>
    6700:	48 8d 0d 09 4c 00 00 	lea    0x4c09(%rip),%rcx        # b310 <__PRETTY_FUNCTION__.0+0x20c>
    6707:	48 8b 50 18          	mov    0x18(%rax),%rdx
    670b:	48 8b 40 10          	mov    0x10(%rax),%rax
    670f:	48 8d 3d 57 4b 00 00 	lea    0x4b57(%rip),%rdi        # b26d <__PRETTY_FUNCTION__.0+0x169>
    6716:	49 89 c8             	mov    %rcx,%r8
    6719:	48 89 d1             	mov    %rdx,%rcx
    671c:	48 89 c2             	mov    %rax,%rdx
    671f:	be f5 00 00 00       	mov    $0xf5,%esi
    6724:	b8 00 00 00 00       	mov    $0x0,%eax
    6729:	e8 39 f5 ff ff       	call   5c67 <_asterror>
    672e:	b8 ff ff ff ff       	mov    $0xffffffff,%eax
    6733:	e9 da 04 00 00       	jmp    6c12 <parse_if+0x5ea>
    6738:	c7 45 9c 00 00 00 00 	movl   $0x0,-0x64(%rbp)
    673f:	48 8b 85 78 ff ff ff 	mov    -0x88(%rbp),%rax
    6746:	48 89 c7             	mov    %rax,%rdi
    6749:	e8 ef e8 ff ff       	call   503d <e_ast_peek>
    674e:	48 8b 50 18          	mov    0x18(%rax),%rdx
    6752:	48 8b 40 10          	mov    0x10(%rax),%rax
    6756:	48 89 45 c0          	mov    %rax,-0x40(%rbp)
    675a:	48 89 55 c8          	mov    %rdx,-0x38(%rbp)
    675e:	48 c7 45 a8 00 00 00 	movq   $0x0,-0x58(%rbp)
    6765:	00 
    6766:	c7 45 84 00 00 00 00 	movl   $0x0,-0x7c(%rbp)
    676d:	48 8d 55 84          	lea    -0x7c(%rbp),%rdx
    6771:	48 8d 4d a8          	lea    -0x58(%rbp),%rcx
    6775:	48 8b 85 78 ff ff ff 	mov    -0x88(%rbp),%rax
    677c:	48 89 ce             	mov    %rcx,%rsi
    677f:	48 89 c7             	mov    %rax,%rdi
    6782:	e8 54 fa ff ff       	call   61db <parse_body>
    6787:	89 45 9c             	mov    %eax,-0x64(%rbp)
    678a:	83 7d 9c 00          	cmpl   $0x0,-0x64(%rbp)
    678e:	74 38                	je     67c8 <parse_if+0x1a0>
    6790:	48 8d 0d a1 4b 00 00 	lea    0x4ba1(%rip),%rcx        # b338 <__PRETTY_FUNCTION__.0+0x234>
    6797:	48 8b 45 c0          	mov    -0x40(%rbp),%rax
    679b:	48 8b 55 c8          	mov    -0x38(%rbp),%rdx
    679f:	48 8d 3d c7 4a 00 00 	lea    0x4ac7(%rip),%rdi        # b26d <__PRETTY_FUNCTION__.0+0x169>
    67a6:	49 89 c8             	mov    %rcx,%r8
    67a9:	48 89 d1             	mov    %rdx,%rcx
    67ac:	48 89 c2             	mov    %rax,%rdx
    67af:	be 01 01 00 00       	mov    $0x101,%esi
    67b4:	b8 00 00 00 00       	mov    $0x0,%eax
    67b9:	e8 a9 f4 ff ff       	call   5c67 <_asterror>
    67be:	b8 ff ff ff ff       	mov    $0xffffffff,%eax
    67c3:	e9 4a 04 00 00       	jmp    6c12 <parse_if+0x5ea>
    67c8:	c7 45 90 00 00 00 00 	movl   $0x0,-0x70(%rbp)
    67cf:	c7 45 94 04 00 00 00 	movl   $0x4,-0x6c(%rbp)
    67d6:	8b 45 94             	mov    -0x6c(%rbp),%eax
    67d9:	48 63 d0             	movslq %eax,%rdx
    67dc:	48 89 d0             	mov    %rdx,%rax
    67df:	48 c1 e0 02          	shl    $0x2,%rax
    67e3:	48 01 d0             	add    %rdx,%rax
    67e6:	48 c1 e0 03          	shl    $0x3,%rax
    67ea:	48 89 c7             	mov    %rax,%rdi
    67ed:	e8 4e a9 ff ff       	call   1140 <malloc@plt>
    67f2:	48 89 45 b8          	mov    %rax,-0x48(%rbp)
    67f6:	48 c7 45 b0 00 00 00 	movq   $0x0,-0x50(%rbp)
    67fd:	00 
    67fe:	c7 45 88 00 00 00 00 	movl   $0x0,-0x78(%rbp)
    6805:	48 8b 85 78 ff ff ff 	mov    -0x88(%rbp),%rax
    680c:	48 89 c7             	mov    %rax,%rdi
    680f:	e8 29 e8 ff ff       	call   503d <e_ast_peek>
    6814:	48 85 c0             	test   %rax,%rax
    6817:	0f 84 01 03 00 00    	je     6b1e <parse_if+0x4f6>
    681d:	48 8b 85 78 ff ff ff 	mov    -0x88(%rbp),%rax
    6824:	48 89 c7             	mov    %rax,%rdi
    6827:	e8 11 e8 ff ff       	call   503d <e_ast_peek>
    682c:	8b 00                	mov    (%rax),%eax
    682e:	83 f8 10             	cmp    $0x10,%eax
    6831:	0f 85 e7 02 00 00    	jne    6b1e <parse_if+0x4f6>
    6837:	48 8b 85 78 ff ff ff 	mov    -0x88(%rbp),%rax
    683e:	48 89 c7             	mov    %rax,%rdi
    6841:	e8 f7 e7 ff ff       	call   503d <e_ast_peek>
    6846:	48 85 c0             	test   %rax,%rax
    6849:	0f 84 cf 02 00 00    	je     6b1e <parse_if+0x4f6>
    684f:	48 8b 85 78 ff ff ff 	mov    -0x88(%rbp),%rax
    6856:	48 89 c7             	mov    %rax,%rdi
    6859:	e8 df e7 ff ff       	call   503d <e_ast_peek>
    685e:	8b 00                	mov    (%rax),%eax
    6860:	83 f8 10             	cmp    $0x10,%eax
    6863:	0f 85 b5 02 00 00    	jne    6b1e <parse_if+0x4f6>
    6869:	48 8b 85 78 ff ff ff 	mov    -0x88(%rbp),%rax
    6870:	48 89 c7             	mov    %rax,%rdi
    6873:	e8 80 e7 ff ff       	call   4ff8 <e_ast_next>
    6878:	48 8b 85 78 ff ff ff 	mov    -0x88(%rbp),%rax
    687f:	48 89 c7             	mov    %rax,%rdi
    6882:	e8 b6 e7 ff ff       	call   503d <e_ast_peek>
    6887:	48 85 c0             	test   %rax,%rax
    688a:	0f 84 19 02 00 00    	je     6aa9 <parse_if+0x481>
    6890:	48 8b 85 78 ff ff ff 	mov    -0x88(%rbp),%rax
    6897:	48 89 c7             	mov    %rax,%rdi
    689a:	e8 9e e7 ff ff       	call   503d <e_ast_peek>
    689f:	8b 00                	mov    (%rax),%eax
    68a1:	83 f8 0f             	cmp    $0xf,%eax
    68a4:	0f 85 ff 01 00 00    	jne    6aa9 <parse_if+0x481>
    68aa:	48 8b 85 78 ff ff ff 	mov    -0x88(%rbp),%rax
    68b1:	48 89 c7             	mov    %rax,%rdi
    68b4:	e8 3f e7 ff ff       	call   4ff8 <e_ast_next>
    68b9:	8b 45 90             	mov    -0x70(%rbp),%eax
    68bc:	3b 45 94             	cmp    -0x6c(%rbp),%eax
    68bf:	7c 53                	jl     6914 <parse_if+0x2ec>
    68c1:	8b 45 94             	mov    -0x6c(%rbp),%eax
    68c4:	01 c0                	add    %eax,%eax
    68c6:	ba 01 00 00 00       	mov    $0x1,%edx
    68cb:	85 c0                	test   %eax,%eax
    68cd:	0f 4e c2             	cmovle %edx,%eax
    68d0:	89 45 a0             	mov    %eax,-0x60(%rbp)
    68d3:	8b 45 a0             	mov    -0x60(%rbp),%eax
    68d6:	48 63 d0             	movslq %eax,%rdx
    68d9:	48 89 d0             	mov    %rdx,%rax
    68dc:	48 c1 e0 02          	shl    $0x2,%rax
    68e0:	48 01 d0             	add    %rdx,%rax
    68e3:	48 c1 e0 03          	shl    $0x3,%rax
    68e7:	48 89 c2             	mov    %rax,%rdx
    68ea:	48 8b 45 b8          	mov    -0x48(%rbp),%rax
    68ee:	48 89 d6             	mov    %rdx,%rsi
    68f1:	48 89 c7             	mov    %rax,%rdi
    68f4:	e8 67 a8 ff ff       	call   1160 <realloc@plt>
    68f9:	48 89 45 b8          	mov    %rax,-0x48(%rbp)
    68fd:	8b 45 a0             	mov    -0x60(%rbp),%eax
    6900:	89 45 94             	mov    %eax,-0x6c(%rbp)
    6903:	48 83 7d b8 00       	cmpq   $0x0,-0x48(%rbp)
    6908:	75 0a                	jne    6914 <parse_if+0x2ec>
    690a:	b8 ff ff ff ff       	mov    $0xffffffff,%eax
    690f:	e9 fe 02 00 00       	jmp    6c12 <parse_if+0x5ea>
    6914:	48 8b 85 78 ff ff ff 	mov    -0x88(%rbp),%rax
    691b:	be 06 00 00 00       	mov    $0x6,%esi
    6920:	48 89 c7             	mov    %rax,%rdi
    6923:	e8 13 fa ff ff       	call   633b <e_ast_expect>
    6928:	85 c0                	test   %eax,%eax
    692a:	74 47                	je     6973 <parse_if+0x34b>
    692c:	48 8b 85 78 ff ff ff 	mov    -0x88(%rbp),%rax
    6933:	48 89 c7             	mov    %rax,%rdi
    6936:	e8 02 e7 ff ff       	call   503d <e_ast_peek>
    693b:	48 8d 0d 1d 4a 00 00 	lea    0x4a1d(%rip),%rcx        # b35f <__PRETTY_FUNCTION__.0+0x25b>
    6942:	48 8b 50 18          	mov    0x18(%rax),%rdx
    6946:	48 8b 40 10          	mov    0x10(%rax),%rax
    694a:	48 8d 3d 1c 49 00 00 	lea    0x491c(%rip),%rdi        # b26d <__PRETTY_FUNCTION__.0+0x169>
    6951:	49 89 c8             	mov    %rcx,%r8
    6954:	48 89 d1             	mov    %rdx,%rcx
    6957:	48 89 c2             	mov    %rax,%rdx
    695a:	be 1e 01 00 00       	mov    $0x11e,%esi
    695f:	b8 00 00 00 00       	mov    $0x0,%eax
    6964:	e8 fe f2 ff ff       	call   5c67 <_asterror>
    6969:	b8 ff ff ff ff       	mov    $0xffffffff,%eax
    696e:	e9 9f 02 00 00       	jmp    6c12 <parse_if+0x5ea>
    6973:	48 8b 85 78 ff ff ff 	mov    -0x88(%rbp),%rax
    697a:	be 00 00 00 00       	mov    $0x0,%esi
    697f:	48 89 c7             	mov    %rax,%rdi
    6982:	e8 dc f9 ff ff       	call   6363 <e_ast_expr>
    6987:	89 45 a4             	mov    %eax,-0x5c(%rbp)
    698a:	48 8b 85 78 ff ff ff 	mov    -0x88(%rbp),%rax
    6991:	be 07 00 00 00       	mov    $0x7,%esi
    6996:	48 89 c7             	mov    %rax,%rdi
    6999:	e8 9d f9 ff ff       	call   633b <e_ast_expect>
    699e:	85 c0                	test   %eax,%eax
    69a0:	74 47                	je     69e9 <parse_if+0x3c1>
    69a2:	48 8b 85 78 ff ff ff 	mov    -0x88(%rbp),%rax
    69a9:	48 89 c7             	mov    %rax,%rdi
    69ac:	e8 8c e6 ff ff       	call   503d <e_ast_peek>
    69b1:	48 8d 0d c8 49 00 00 	lea    0x49c8(%rip),%rcx        # b380 <__PRETTY_FUNCTION__.0+0x27c>
    69b8:	48 8b 50 18          	mov    0x18(%rax),%rdx
    69bc:	48 8b 40 10          	mov    0x10(%rax),%rax
    69c0:	48 8d 3d a6 48 00 00 	lea    0x48a6(%rip),%rdi        # b26d <__PRETTY_FUNCTION__.0+0x169>
    69c7:	49 89 c8             	mov    %rcx,%r8
    69ca:	48 89 d1             	mov    %rdx,%rcx
    69cd:	48 89 c2             	mov    %rax,%rdx
    69d0:	be 25 01 00 00       	mov    $0x125,%esi
    69d5:	b8 00 00 00 00       	mov    $0x0,%eax
    69da:	e8 88 f2 ff ff       	call   5c67 <_asterror>
    69df:	b8 ff ff ff ff       	mov    $0xffffffff,%eax
    69e4:	e9 29 02 00 00       	jmp    6c12 <parse_if+0x5ea>
    69e9:	48 c7 45 d0 00 00 00 	movq   $0x0,-0x30(%rbp)
    69f0:	00 
    69f1:	c7 45 8c 00 00 00 00 	movl   $0x0,-0x74(%rbp)
    69f8:	48 8d 55 8c          	lea    -0x74(%rbp),%rdx
    69fc:	48 8d 4d d0          	lea    -0x30(%rbp),%rcx
    6a00:	48 8b 85 78 ff ff ff 	mov    -0x88(%rbp),%rax
    6a07:	48 89 ce             	mov    %rcx,%rsi
    6a0a:	48 89 c7             	mov    %rax,%rdi
    6a0d:	e8 c9 f7 ff ff       	call   61db <parse_body>
    6a12:	85 c0                	test   %eax,%eax
    6a14:	74 47                	je     6a5d <parse_if+0x435>
    6a16:	48 8b 85 78 ff ff ff 	mov    -0x88(%rbp),%rax
    6a1d:	48 89 c7             	mov    %rax,%rdi
    6a20:	e8 18 e6 ff ff       	call   503d <e_ast_peek>
    6a25:	48 8d 0d 84 49 00 00 	lea    0x4984(%rip),%rcx        # b3b0 <__PRETTY_FUNCTION__.0+0x2ac>
    6a2c:	48 8b 50 18          	mov    0x18(%rax),%rdx
    6a30:	48 8b 40 10          	mov    0x10(%rax),%rax
    6a34:	48 8d 3d 32 48 00 00 	lea    0x4832(%rip),%rdi        # b26d <__PRETTY_FUNCTION__.0+0x169>
    6a3b:	49 89 c8             	mov    %rcx,%r8
    6a3e:	48 89 d1             	mov    %rdx,%rcx
    6a41:	48 89 c2             	mov    %rax,%rdx
    6a44:	be 2c 01 00 00       	mov    $0x12c,%esi
    6a49:	b8 00 00 00 00       	mov    $0x0,%eax
    6a4e:	e8 14 f2 ff ff       	call   5c67 <_asterror>
    6a53:	b8 ff ff ff ff       	mov    $0xffffffff,%eax
    6a58:	e9 b5 01 00 00       	jmp    6c12 <parse_if+0x5ea>
    6a5d:	8b 45 90             	mov    -0x70(%rbp),%eax
    6a60:	8d 50 01             	lea    0x1(%rax),%edx
    6a63:	89 55 90             	mov    %edx,-0x70(%rbp)
    6a66:	48 63 d0             	movslq %eax,%rdx
    6a69:	48 89 d0             	mov    %rdx,%rax
    6a6c:	48 c1 e0 02          	shl    $0x2,%rax
    6a70:	48 01 d0             	add    %rdx,%rax
    6a73:	48 c1 e0 03          	shl    $0x3,%rax
    6a77:	48 89 c2             	mov    %rax,%rdx
    6a7a:	48 8b 45 b8          	mov    -0x48(%rbp),%rax
    6a7e:	48 01 d0             	add    %rdx,%rax
    6a81:	48 8b 4d d0          	mov    -0x30(%rbp),%rcx
    6a85:	8b 55 8c             	mov    -0x74(%rbp),%edx
    6a88:	66 0f ef c0          	pxor   %xmm0,%xmm0
    6a8c:	0f 11 00             	movups %xmm0,(%rax)
    6a8f:	0f 11 40 10          	movups %xmm0,0x10(%rax)
    6a93:	66 0f d6 40 20       	movq   %xmm0,0x20(%rax)
    6a98:	48 89 08             	mov    %rcx,(%rax)
    6a9b:	8b 4d a4             	mov    -0x5c(%rbp),%ecx
    6a9e:	89 48 18             	mov    %ecx,0x18(%rax)
    6aa1:	89 50 1c             	mov    %edx,0x1c(%rax)
    6aa4:	e9 8e fd ff ff       	jmp    6837 <parse_if+0x20f>
    6aa9:	48 8b 85 78 ff ff ff 	mov    -0x88(%rbp),%rax
    6ab0:	48 89 c7             	mov    %rax,%rdi
    6ab3:	e8 85 e5 ff ff       	call   503d <e_ast_peek>
    6ab8:	48 8b 50 18          	mov    0x18(%rax),%rdx
    6abc:	48 8b 40 10          	mov    0x10(%rax),%rax
    6ac0:	48 89 45 d0          	mov    %rax,-0x30(%rbp)
    6ac4:	48 89 55 d8          	mov    %rdx,-0x28(%rbp)
    6ac8:	48 8d 55 88          	lea    -0x78(%rbp),%rdx
    6acc:	48 8d 4d b0          	lea    -0x50(%rbp),%rcx
    6ad0:	48 8b 85 78 ff ff ff 	mov    -0x88(%rbp),%rax
    6ad7:	48 89 ce             	mov    %rcx,%rsi
    6ada:	48 89 c7             	mov    %rax,%rdi
    6add:	e8 f9 f6 ff ff       	call   61db <parse_body>
    6ae2:	85 c0                	test   %eax,%eax
    6ae4:	74 38                	je     6b1e <parse_if+0x4f6>
    6ae6:	48 8d 0d f3 48 00 00 	lea    0x48f3(%rip),%rcx        # b3e0 <__PRETTY_FUNCTION__.0+0x2dc>
    6aed:	48 8b 45 d0          	mov    -0x30(%rbp),%rax
    6af1:	48 8b 55 d8          	mov    -0x28(%rbp),%rdx
    6af5:	48 8d 3d 71 47 00 00 	lea    0x4771(%rip),%rdi        # b26d <__PRETTY_FUNCTION__.0+0x169>
    6afc:	49 89 c8             	mov    %rcx,%r8
    6aff:	48 89 d1             	mov    %rdx,%rcx
    6b02:	48 89 c2             	mov    %rax,%rdx
    6b05:	be 3a 01 00 00       	mov    $0x13a,%esi
    6b0a:	b8 00 00 00 00       	mov    $0x0,%eax
    6b0f:	e8 53 f1 ff ff       	call   5c67 <_asterror>
    6b14:	b8 ff ff ff ff       	mov    $0xffffffff,%eax
    6b19:	e9 f4 00 00 00       	jmp    6c12 <parse_if+0x5ea>
    6b1e:	8b 95 74 ff ff ff    	mov    -0x8c(%rbp),%edx
    6b24:	48 8b 85 78 ff ff ff 	mov    -0x88(%rbp),%rax
    6b2b:	89 d6                	mov    %edx,%esi
    6b2d:	48 89 c7             	mov    %rax,%rdi
    6b30:	e8 ac e8 ff ff       	call   53e1 <e_ast_get_node>
    6b35:	c7 00 09 00 00 00    	movl   $0x9,(%rax)
    6b3b:	8b 95 74 ff ff ff    	mov    -0x8c(%rbp),%edx
    6b41:	48 8b 85 78 ff ff ff 	mov    -0x88(%rbp),%rax
    6b48:	89 d6                	mov    %edx,%esi
    6b4a:	48 89 c7             	mov    %rax,%rdi
    6b4d:	e8 8f e8 ff ff       	call   53e1 <e_ast_get_node>
    6b52:	48 8b 55 a8          	mov    -0x58(%rbp),%rdx
    6b56:	48 89 50 08          	mov    %rdx,0x8(%rax)
    6b5a:	8b 95 74 ff ff ff    	mov    -0x8c(%rbp),%edx
    6b60:	48 8b 85 78 ff ff ff 	mov    -0x88(%rbp),%rax
    6b67:	89 d6                	mov    %edx,%esi
    6b69:	48 89 c7             	mov    %rax,%rdi
    6b6c:	e8 70 e8 ff ff       	call   53e1 <e_ast_get_node>
    6b71:	8b 55 84             	mov    -0x7c(%rbp),%edx
    6b74:	89 50 24             	mov    %edx,0x24(%rax)
    6b77:	8b 95 74 ff ff ff    	mov    -0x8c(%rbp),%edx
    6b7d:	48 8b 85 78 ff ff ff 	mov    -0x88(%rbp),%rax
    6b84:	89 d6                	mov    %edx,%esi
    6b86:	48 89 c7             	mov    %rax,%rdi
    6b89:	e8 53 e8 ff ff       	call   53e1 <e_ast_get_node>
    6b8e:	8b 55 98             	mov    -0x68(%rbp),%edx
    6b91:	89 50 20             	mov    %edx,0x20(%rax)
    6b94:	8b 95 74 ff ff ff    	mov    -0x8c(%rbp),%edx
    6b9a:	48 8b 85 78 ff ff ff 	mov    -0x88(%rbp),%rax
    6ba1:	89 d6                	mov    %edx,%esi
    6ba3:	48 89 c7             	mov    %rax,%rdi
    6ba6:	e8 36 e8 ff ff       	call   53e1 <e_ast_get_node>
    6bab:	48 8b 55 b0          	mov    -0x50(%rbp),%rdx
    6baf:	48 89 50 10          	mov    %rdx,0x10(%rax)
    6bb3:	8b 95 74 ff ff ff    	mov    -0x8c(%rbp),%edx
    6bb9:	48 8b 85 78 ff ff ff 	mov    -0x88(%rbp),%rax
    6bc0:	89 d6                	mov    %edx,%esi
    6bc2:	48 89 c7             	mov    %rax,%rdi
    6bc5:	e8 17 e8 ff ff       	call   53e1 <e_ast_get_node>
    6bca:	8b 55 88             	mov    -0x78(%rbp),%edx
    6bcd:	89 50 28             	mov    %edx,0x28(%rax)
    6bd0:	8b 95 74 ff ff ff    	mov    -0x8c(%rbp),%edx
    6bd6:	48 8b 85 78 ff ff ff 	mov    -0x88(%rbp),%rax
    6bdd:	89 d6                	mov    %edx,%esi
    6bdf:	48 89 c7             	mov    %rax,%rdi
    6be2:	e8 fa e7 ff ff       	call   53e1 <e_ast_get_node>
    6be7:	48 8b 55 b8          	mov    -0x48(%rbp),%rdx
    6beb:	48 89 50 18          	mov    %rdx,0x18(%rax)
    6bef:	8b 95 74 ff ff ff    	mov    -0x8c(%rbp),%edx
    6bf5:	48 8b 85 78 ff ff ff 	mov    -0x88(%rbp),%rax
    6bfc:	89 d6                	mov    %edx,%esi
    6bfe:	48 89 c7             	mov    %rax,%rdi
    6c01:	e8 db e7 ff ff       	call   53e1 <e_ast_get_node>
    6c06:	8b 55 90             	mov    -0x70(%rbp),%edx
    6c09:	89 50 2c             	mov    %edx,0x2c(%rax)
    6c0c:	8b 85 74 ff ff ff    	mov    -0x8c(%rbp),%eax
    6c12:	48 8b 55 f8          	mov    -0x8(%rbp),%rdx
    6c16:	64 48 2b 14 25 28 00 	sub    %fs:0x28,%rdx
    6c1d:	00 00 
    6c1f:	74 05                	je     6c26 <parse_if+0x5fe>
    6c21:	e8 6a a4 ff ff       	call   1090 <__stack_chk_fail@plt>
    6c26:	c9                   	leave
    6c27:	c3                   	ret

0000000000006c28 <parse_while>:
    6c28:	55                   	push   %rbp
    6c29:	48 89 e5             	mov    %rsp,%rbp
    6c2c:	48 83 ec 30          	sub    $0x30,%rsp
    6c30:	48 89 7d d8          	mov    %rdi,-0x28(%rbp)
    6c34:	89 75 d4             	mov    %esi,-0x2c(%rbp)
    6c37:	64 48 8b 04 25 28 00 	mov    %fs:0x28,%rax
    6c3e:	00 00 
    6c40:	48 89 45 f8          	mov    %rax,-0x8(%rbp)
    6c44:	31 c0                	xor    %eax,%eax
    6c46:	83 7d d4 00          	cmpl   $0x0,-0x2c(%rbp)
    6c4a:	79 08                	jns    6c54 <parse_while+0x2c>
    6c4c:	8b 45 d4             	mov    -0x2c(%rbp),%eax
    6c4f:	e9 cd 01 00 00       	jmp    6e21 <parse_while+0x1f9>
    6c54:	48 8b 45 d8          	mov    -0x28(%rbp),%rax
    6c58:	be 06 00 00 00       	mov    $0x6,%esi
    6c5d:	48 89 c7             	mov    %rax,%rdi
    6c60:	e8 d6 f6 ff ff       	call   633b <e_ast_expect>
    6c65:	85 c0                	test   %eax,%eax
    6c67:	74 44                	je     6cad <parse_while+0x85>
    6c69:	48 8b 45 d8          	mov    -0x28(%rbp),%rax
    6c6d:	48 89 c7             	mov    %rax,%rdi
    6c70:	e8 c8 e3 ff ff       	call   503d <e_ast_peek>
    6c75:	48 8d 0d 8e 47 00 00 	lea    0x478e(%rip),%rcx        # b40a <__PRETTY_FUNCTION__.0+0x306>
    6c7c:	48 8b 50 18          	mov    0x18(%rax),%rdx
    6c80:	48 8b 40 10          	mov    0x10(%rax),%rax
    6c84:	48 8d 3d e2 45 00 00 	lea    0x45e2(%rip),%rdi        # b26d <__PRETTY_FUNCTION__.0+0x169>
    6c8b:	49 89 c8             	mov    %rcx,%r8
    6c8e:	48 89 d1             	mov    %rdx,%rcx
    6c91:	48 89 c2             	mov    %rax,%rdx
    6c94:	be 56 01 00 00       	mov    $0x156,%esi
    6c99:	b8 00 00 00 00       	mov    $0x0,%eax
    6c9e:	e8 c4 ef ff ff       	call   5c67 <_asterror>
    6ca3:	b8 ff ff ff ff       	mov    $0xffffffff,%eax
    6ca8:	e9 74 01 00 00       	jmp    6e21 <parse_while+0x1f9>
    6cad:	48 8b 45 d8          	mov    -0x28(%rbp),%rax
    6cb1:	be 00 00 00 00       	mov    $0x0,%esi
    6cb6:	48 89 c7             	mov    %rax,%rdi
    6cb9:	e8 a5 f6 ff ff       	call   6363 <e_ast_expr>
    6cbe:	89 45 ec             	mov    %eax,-0x14(%rbp)
    6cc1:	83 7d ec 00          	cmpl   $0x0,-0x14(%rbp)
    6cc5:	79 44                	jns    6d0b <parse_while+0xe3>
    6cc7:	48 8b 45 d8          	mov    -0x28(%rbp),%rax
    6ccb:	48 89 c7             	mov    %rax,%rdi
    6cce:	e8 6a e3 ff ff       	call   503d <e_ast_peek>
    6cd3:	48 8d 0d 4a 47 00 00 	lea    0x474a(%rip),%rcx        # b424 <__PRETTY_FUNCTION__.0+0x320>
    6cda:	48 8b 50 18          	mov    0x18(%rax),%rdx
    6cde:	48 8b 40 10          	mov    0x10(%rax),%rax
    6ce2:	48 8d 3d 84 45 00 00 	lea    0x4584(%rip),%rdi        # b26d <__PRETTY_FUNCTION__.0+0x169>
    6ce9:	49 89 c8             	mov    %rcx,%r8
    6cec:	48 89 d1             	mov    %rdx,%rcx
    6cef:	48 89 c2             	mov    %rax,%rdx
    6cf2:	be 5c 01 00 00       	mov    $0x15c,%esi
    6cf7:	b8 00 00 00 00       	mov    $0x0,%eax
    6cfc:	e8 66 ef ff ff       	call   5c67 <_asterror>
    6d01:	b8 ff ff ff ff       	mov    $0xffffffff,%eax
    6d06:	e9 16 01 00 00       	jmp    6e21 <parse_while+0x1f9>
    6d0b:	48 8b 45 d8          	mov    -0x28(%rbp),%rax
    6d0f:	be 07 00 00 00       	mov    $0x7,%esi
    6d14:	48 89 c7             	mov    %rax,%rdi
    6d17:	e8 1f f6 ff ff       	call   633b <e_ast_expect>
    6d1c:	85 c0                	test   %eax,%eax
    6d1e:	74 44                	je     6d64 <parse_while+0x13c>
    6d20:	48 8b 45 d8          	mov    -0x28(%rbp),%rax
    6d24:	48 89 c7             	mov    %rax,%rdi
    6d27:	e8 11 e3 ff ff       	call   503d <e_ast_peek>
    6d2c:	48 8d 0d 06 47 00 00 	lea    0x4706(%rip),%rcx        # b439 <__PRETTY_FUNCTION__.0+0x335>
    6d33:	48 8b 50 18          	mov    0x18(%rax),%rdx
    6d37:	48 8b 40 10          	mov    0x10(%rax),%rax
    6d3b:	48 8d 3d 2b 45 00 00 	lea    0x452b(%rip),%rdi        # b26d <__PRETTY_FUNCTION__.0+0x169>
    6d42:	49 89 c8             	mov    %rcx,%r8
    6d45:	48 89 d1             	mov    %rdx,%rcx
    6d48:	48 89 c2             	mov    %rax,%rdx
    6d4b:	be 61 01 00 00       	mov    $0x161,%esi
    6d50:	b8 00 00 00 00       	mov    $0x0,%eax
    6d55:	e8 0d ef ff ff       	call   5c67 <_asterror>
    6d5a:	b8 ff ff ff ff       	mov    $0xffffffff,%eax
    6d5f:	e9 bd 00 00 00       	jmp    6e21 <parse_while+0x1f9>
    6d64:	48 8d 55 e8          	lea    -0x18(%rbp),%rdx
    6d68:	48 8d 4d f0          	lea    -0x10(%rbp),%rcx
    6d6c:	48 8b 45 d8          	mov    -0x28(%rbp),%rax
    6d70:	48 89 ce             	mov    %rcx,%rsi
    6d73:	48 89 c7             	mov    %rax,%rdi
    6d76:	e8 60 f4 ff ff       	call   61db <parse_body>
    6d7b:	85 c0                	test   %eax,%eax
    6d7d:	74 41                	je     6dc0 <parse_while+0x198>
    6d7f:	48 8b 45 d8          	mov    -0x28(%rbp),%rax
    6d83:	48 89 c7             	mov    %rax,%rdi
    6d86:	e8 b2 e2 ff ff       	call   503d <e_ast_peek>
    6d8b:	48 8d 0d c6 46 00 00 	lea    0x46c6(%rip),%rcx        # b458 <__PRETTY_FUNCTION__.0+0x354>
    6d92:	48 8b 50 18          	mov    0x18(%rax),%rdx
    6d96:	48 8b 40 10          	mov    0x10(%rax),%rax
    6d9a:	48 8d 3d cc 44 00 00 	lea    0x44cc(%rip),%rdi        # b26d <__PRETTY_FUNCTION__.0+0x169>
    6da1:	49 89 c8             	mov    %rcx,%r8
    6da4:	48 89 d1             	mov    %rdx,%rcx
    6da7:	48 89 c2             	mov    %rax,%rdx
    6daa:	be 68 01 00 00       	mov    $0x168,%esi
    6daf:	b8 00 00 00 00       	mov    $0x0,%eax
    6db4:	e8 ae ee ff ff       	call   5c67 <_asterror>
    6db9:	b8 ff ff ff ff       	mov    $0xffffffff,%eax
    6dbe:	eb 61                	jmp    6e21 <parse_while+0x1f9>
    6dc0:	8b 55 d4             	mov    -0x2c(%rbp),%edx
    6dc3:	48 8b 45 d8          	mov    -0x28(%rbp),%rax
    6dc7:	89 d6                	mov    %edx,%esi
    6dc9:	48 89 c7             	mov    %rax,%rdi
    6dcc:	e8 10 e6 ff ff       	call   53e1 <e_ast_get_node>
    6dd1:	c7 00 05 00 00 00    	movl   $0x5,(%rax)
    6dd7:	8b 55 d4             	mov    -0x2c(%rbp),%edx
    6dda:	48 8b 45 d8          	mov    -0x28(%rbp),%rax
    6dde:	89 d6                	mov    %edx,%esi
    6de0:	48 89 c7             	mov    %rax,%rdi
    6de3:	e8 f9 e5 ff ff       	call   53e1 <e_ast_get_node>
    6de8:	8b 55 ec             	mov    -0x14(%rbp),%edx
    6deb:	89 50 08             	mov    %edx,0x8(%rax)
    6dee:	8b 55 d4             	mov    -0x2c(%rbp),%edx
    6df1:	48 8b 45 d8          	mov    -0x28(%rbp),%rax
    6df5:	89 d6                	mov    %edx,%esi
    6df7:	48 89 c7             	mov    %rax,%rdi
    6dfa:	e8 e2 e5 ff ff       	call   53e1 <e_ast_get_node>
    6dff:	48 8b 55 f0          	mov    -0x10(%rbp),%rdx
    6e03:	48 89 50 10          	mov    %rdx,0x10(%rax)
    6e07:	8b 55 d4             	mov    -0x2c(%rbp),%edx
    6e0a:	48 8b 45 d8          	mov    -0x28(%rbp),%rax
    6e0e:	89 d6                	mov    %edx,%esi
    6e10:	48 89 c7             	mov    %rax,%rdi
    6e13:	e8 c9 e5 ff ff       	call   53e1 <e_ast_get_node>
    6e18:	8b 55 e8             	mov    -0x18(%rbp),%edx
    6e1b:	89 50 18             	mov    %edx,0x18(%rax)
    6e1e:	8b 45 d4             	mov    -0x2c(%rbp),%eax
    6e21:	48 8b 55 f8          	mov    -0x8(%rbp),%rdx
    6e25:	64 48 2b 14 25 28 00 	sub    %fs:0x28,%rdx
    6e2c:	00 00 
    6e2e:	74 05                	je     6e35 <parse_while+0x20d>
    6e30:	e8 5b a2 ff ff       	call   1090 <__stack_chk_fail@plt>
    6e35:	c9                   	leave
    6e36:	c3                   	ret

0000000000006e37 <parse_for>:
    6e37:	55                   	push   %rbp
    6e38:	48 89 e5             	mov    %rsp,%rbp
    6e3b:	48 83 ec 30          	sub    $0x30,%rsp
    6e3f:	48 89 7d d8          	mov    %rdi,-0x28(%rbp)
    6e43:	89 75 d4             	mov    %esi,-0x2c(%rbp)
    6e46:	64 48 8b 04 25 28 00 	mov    %fs:0x28,%rax
    6e4d:	00 00 
    6e4f:	48 89 45 f8          	mov    %rax,-0x8(%rbp)
    6e53:	31 c0                	xor    %eax,%eax
    6e55:	48 8b 45 d8          	mov    -0x28(%rbp),%rax
    6e59:	be 06 00 00 00       	mov    $0x6,%esi
    6e5e:	48 89 c7             	mov    %rax,%rdi
    6e61:	e8 d5 f4 ff ff       	call   633b <e_ast_expect>
    6e66:	85 c0                	test   %eax,%eax
    6e68:	74 44                	je     6eae <parse_for+0x77>
    6e6a:	48 8b 45 d8          	mov    -0x28(%rbp),%rax
    6e6e:	48 89 c7             	mov    %rax,%rdi
    6e71:	e8 c7 e1 ff ff       	call   503d <e_ast_peek>
    6e76:	48 8d 0d fb 45 00 00 	lea    0x45fb(%rip),%rcx        # b478 <__PRETTY_FUNCTION__.0+0x374>
    6e7d:	48 8b 50 18          	mov    0x18(%rax),%rdx
    6e81:	48 8b 40 10          	mov    0x10(%rax),%rax
    6e85:	48 8d 3d e1 43 00 00 	lea    0x43e1(%rip),%rdi        # b26d <__PRETTY_FUNCTION__.0+0x169>
    6e8c:	49 89 c8             	mov    %rcx,%r8
    6e8f:	48 89 d1             	mov    %rdx,%rcx
    6e92:	48 89 c2             	mov    %rax,%rdx
    6e95:	be 78 01 00 00       	mov    $0x178,%esi
    6e9a:	b8 00 00 00 00       	mov    $0x0,%eax
    6e9f:	e8 c3 ed ff ff       	call   5c67 <_asterror>
    6ea4:	b8 ff ff ff ff       	mov    $0xffffffff,%eax
    6ea9:	e9 61 02 00 00       	jmp    710f <parse_for+0x2d8>
    6eae:	48 8b 45 d8          	mov    -0x28(%rbp),%rax
    6eb2:	be 00 00 00 00       	mov    $0x0,%esi
    6eb7:	48 89 c7             	mov    %rax,%rdi
    6eba:	e8 a4 f4 ff ff       	call   6363 <e_ast_expr>
    6ebf:	89 45 e4             	mov    %eax,-0x1c(%rbp)
    6ec2:	83 7d e4 00          	cmpl   $0x0,-0x1c(%rbp)
    6ec6:	79 44                	jns    6f0c <parse_for+0xd5>
    6ec8:	48 8b 45 d8          	mov    -0x28(%rbp),%rax
    6ecc:	48 89 c7             	mov    %rax,%rdi
    6ecf:	e8 69 e1 ff ff       	call   503d <e_ast_peek>
    6ed4:	48 8d 0d bd 45 00 00 	lea    0x45bd(%rip),%rcx        # b498 <__PRETTY_FUNCTION__.0+0x394>
    6edb:	48 8b 50 18          	mov    0x18(%rax),%rdx
    6edf:	48 8b 40 10          	mov    0x10(%rax),%rax
    6ee3:	48 8d 3d 83 43 00 00 	lea    0x4383(%rip),%rdi        # b26d <__PRETTY_FUNCTION__.0+0x169>
    6eea:	49 89 c8             	mov    %rcx,%r8
    6eed:	48 89 d1             	mov    %rdx,%rcx
    6ef0:	48 89 c2             	mov    %rax,%rdx
    6ef3:	be 7e 01 00 00       	mov    $0x17e,%esi
    6ef8:	b8 00 00 00 00       	mov    $0x0,%eax
    6efd:	e8 65 ed ff ff       	call   5c67 <_asterror>
    6f02:	b8 ff ff ff ff       	mov    $0xffffffff,%eax
    6f07:	e9 03 02 00 00       	jmp    710f <parse_for+0x2d8>
    6f0c:	48 8b 45 d8          	mov    -0x28(%rbp),%rax
    6f10:	be 00 00 00 00       	mov    $0x0,%esi
    6f15:	48 89 c7             	mov    %rax,%rdi
    6f18:	e8 46 f4 ff ff       	call   6363 <e_ast_expr>
    6f1d:	89 45 e8             	mov    %eax,-0x18(%rbp)
    6f20:	83 7d e8 00          	cmpl   $0x0,-0x18(%rbp)
    6f24:	79 44                	jns    6f6a <parse_for+0x133>
    6f26:	48 8b 45 d8          	mov    -0x28(%rbp),%rax
    6f2a:	48 89 c7             	mov    %rax,%rdi
    6f2d:	e8 0b e1 ff ff       	call   503d <e_ast_peek>
    6f32:	48 8d 0d 87 45 00 00 	lea    0x4587(%rip),%rcx        # b4c0 <__PRETTY_FUNCTION__.0+0x3bc>
    6f39:	48 8b 50 18          	mov    0x18(%rax),%rdx
    6f3d:	48 8b 40 10          	mov    0x10(%rax),%rax
    6f41:	48 8d 3d 25 43 00 00 	lea    0x4325(%rip),%rdi        # b26d <__PRETTY_FUNCTION__.0+0x169>
    6f48:	49 89 c8             	mov    %rcx,%r8
    6f4b:	48 89 d1             	mov    %rdx,%rcx
    6f4e:	48 89 c2             	mov    %rax,%rdx
    6f51:	be 84 01 00 00       	mov    $0x184,%esi
    6f56:	b8 00 00 00 00       	mov    $0x0,%eax
    6f5b:	e8 07 ed ff ff       	call   5c67 <_asterror>
    6f60:	b8 ff ff ff ff       	mov    $0xffffffff,%eax
    6f65:	e9 a5 01 00 00       	jmp    710f <parse_for+0x2d8>
    6f6a:	48 8b 45 d8          	mov    -0x28(%rbp),%rax
    6f6e:	be 00 00 00 00       	mov    $0x0,%esi
    6f73:	48 89 c7             	mov    %rax,%rdi
    6f76:	e8 e8 f3 ff ff       	call   6363 <e_ast_expr>
    6f7b:	89 45 ec             	mov    %eax,-0x14(%rbp)
    6f7e:	83 7d ec 00          	cmpl   $0x0,-0x14(%rbp)
    6f82:	79 44                	jns    6fc8 <parse_for+0x191>
    6f84:	48 8b 45 d8          	mov    -0x28(%rbp),%rax
    6f88:	48 89 c7             	mov    %rax,%rdi
    6f8b:	e8 ad e0 ff ff       	call   503d <e_ast_peek>
    6f90:	48 8d 0d 51 45 00 00 	lea    0x4551(%rip),%rcx        # b4e8 <__PRETTY_FUNCTION__.0+0x3e4>
    6f97:	48 8b 50 18          	mov    0x18(%rax),%rdx
    6f9b:	48 8b 40 10          	mov    0x10(%rax),%rax
    6f9f:	48 8d 3d c7 42 00 00 	lea    0x42c7(%rip),%rdi        # b26d <__PRETTY_FUNCTION__.0+0x169>
    6fa6:	49 89 c8             	mov    %rcx,%r8
    6fa9:	48 89 d1             	mov    %rdx,%rcx
    6fac:	48 89 c2             	mov    %rax,%rdx
    6faf:	be 8a 01 00 00       	mov    $0x18a,%esi
    6fb4:	b8 00 00 00 00       	mov    $0x0,%eax
    6fb9:	e8 a9 ec ff ff       	call   5c67 <_asterror>
    6fbe:	b8 ff ff ff ff       	mov    $0xffffffff,%eax
    6fc3:	e9 47 01 00 00       	jmp    710f <parse_for+0x2d8>
    6fc8:	48 8b 45 d8          	mov    -0x28(%rbp),%rax
    6fcc:	be 07 00 00 00       	mov    $0x7,%esi
    6fd1:	48 89 c7             	mov    %rax,%rdi
    6fd4:	e8 62 f3 ff ff       	call   633b <e_ast_expect>
    6fd9:	85 c0                	test   %eax,%eax
    6fdb:	74 44                	je     7021 <parse_for+0x1ea>
    6fdd:	48 8b 45 d8          	mov    -0x28(%rbp),%rax
    6fe1:	48 89 c7             	mov    %rax,%rdi
    6fe4:	e8 54 e0 ff ff       	call   503d <e_ast_peek>
    6fe9:	48 8d 0d 20 45 00 00 	lea    0x4520(%rip),%rcx        # b510 <__PRETTY_FUNCTION__.0+0x40c>
    6ff0:	48 8b 50 18          	mov    0x18(%rax),%rdx
    6ff4:	48 8b 40 10          	mov    0x10(%rax),%rax
    6ff8:	48 8d 3d 6e 42 00 00 	lea    0x426e(%rip),%rdi        # b26d <__PRETTY_FUNCTION__.0+0x169>
    6fff:	49 89 c8             	mov    %rcx,%r8
    7002:	48 89 d1             	mov    %rdx,%rcx
    7005:	48 89 c2             	mov    %rax,%rdx
    7008:	be 8f 01 00 00       	mov    $0x18f,%esi
    700d:	b8 00 00 00 00       	mov    $0x0,%eax
    7012:	e8 50 ec ff ff       	call   5c67 <_asterror>
    7017:	b8 ff ff ff ff       	mov    $0xffffffff,%eax
    701c:	e9 ee 00 00 00       	jmp    710f <parse_for+0x2d8>
    7021:	48 8d 55 e0          	lea    -0x20(%rbp),%rdx
    7025:	48 8d 4d f0          	lea    -0x10(%rbp),%rcx
    7029:	48 8b 45 d8          	mov    -0x28(%rbp),%rax
    702d:	48 89 ce             	mov    %rcx,%rsi
    7030:	48 89 c7             	mov    %rax,%rdi
    7033:	e8 a3 f1 ff ff       	call   61db <parse_body>
    7038:	85 c0                	test   %eax,%eax
    703a:	74 44                	je     7080 <parse_for+0x249>
    703c:	48 8b 45 d8          	mov    -0x28(%rbp),%rax
    7040:	48 89 c7             	mov    %rax,%rdi
    7043:	e8 f5 df ff ff       	call   503d <e_ast_peek>
    7048:	48 8d 0d e1 44 00 00 	lea    0x44e1(%rip),%rcx        # b530 <__PRETTY_FUNCTION__.0+0x42c>
    704f:	48 8b 50 18          	mov    0x18(%rax),%rdx
    7053:	48 8b 40 10          	mov    0x10(%rax),%rax
    7057:	48 8d 3d 0f 42 00 00 	lea    0x420f(%rip),%rdi        # b26d <__PRETTY_FUNCTION__.0+0x169>
    705e:	49 89 c8             	mov    %rcx,%r8
    7061:	48 89 d1             	mov    %rdx,%rcx
    7064:	48 89 c2             	mov    %rax,%rdx
    7067:	be 96 01 00 00       	mov    $0x196,%esi
    706c:	b8 00 00 00 00       	mov    $0x0,%eax
    7071:	e8 f1 eb ff ff       	call   5c67 <_asterror>
    7076:	b8 ff ff ff ff       	mov    $0xffffffff,%eax
    707b:	e9 8f 00 00 00       	jmp    710f <parse_for+0x2d8>
    7080:	8b 55 d4             	mov    -0x2c(%rbp),%edx
    7083:	48 8b 45 d8          	mov    -0x28(%rbp),%rax
    7087:	89 d6                	mov    %edx,%esi
    7089:	48 89 c7             	mov    %rax,%rdi
    708c:	e8 50 e3 ff ff       	call   53e1 <e_ast_get_node>
    7091:	c7 00 04 00 00 00    	movl   $0x4,(%rax)
    7097:	8b 55 d4             	mov    -0x2c(%rbp),%edx
    709a:	48 8b 45 d8          	mov    -0x28(%rbp),%rax
    709e:	89 d6                	mov    %edx,%esi
    70a0:	48 89 c7             	mov    %rax,%rdi
    70a3:	e8 39 e3 ff ff       	call   53e1 <e_ast_get_node>
    70a8:	8b 55 e4             	mov    -0x1c(%rbp),%edx
    70ab:	89 50 08             	mov    %edx,0x8(%rax)
    70ae:	8b 55 d4             	mov    -0x2c(%rbp),%edx
    70b1:	48 8b 45 d8          	mov    -0x28(%rbp),%rax
    70b5:	89 d6                	mov    %edx,%esi
    70b7:	48 89 c7             	mov    %rax,%rdi
    70ba:	e8 22 e3 ff ff       	call   53e1 <e_ast_get_node>
    70bf:	8b 55 e8             	mov    -0x18(%rbp),%edx
    70c2:	89 50 0c             	mov    %edx,0xc(%rax)
    70c5:	8b 55 d4             	mov    -0x2c(%rbp),%edx
    70c8:	48 8b 45 d8          	mov    -0x28(%rbp),%rax
    70cc:	89 d6                	mov    %edx,%esi
    70ce:	48 89 c7             	mov    %rax,%rdi
    70d1:	e8 0b e3 ff ff       	call   53e1 <e_ast_get_node>
    70d6:	8b 55 ec             	mov    -0x14(%rbp),%edx
    70d9:	89 50 10             	mov    %edx,0x10(%rax)
    70dc:	8b 55 d4             	mov    -0x2c(%rbp),%edx
    70df:	48 8b 45 d8          	mov    -0x28(%rbp),%rax
    70e3:	89 d6                	mov    %edx,%esi
    70e5:	48 89 c7             	mov    %rax,%rdi
    70e8:	e8 f4 e2 ff ff       	call   53e1 <e_ast_get_node>
    70ed:	48 8b 55 f0          	mov    -0x10(%rbp),%rdx
    70f1:	48 89 50 18          	mov    %rdx,0x18(%rax)
    70f5:	8b 55 d4             	mov    -0x2c(%rbp),%edx
    70f8:	48 8b 45 d8          	mov    -0x28(%rbp),%rax
    70fc:	89 d6                	mov    %edx,%esi
    70fe:	48 89 c7             	mov    %rax,%rdi
    7101:	e8 db e2 ff ff       	call   53e1 <e_ast_get_node>
    7106:	8b 55 e0             	mov    -0x20(%rbp),%edx
    7109:	89 50 14             	mov    %edx,0x14(%rax)
    710c:	8b 45 d4             	mov    -0x2c(%rbp),%eax
    710f:	48 8b 55 f8          	mov    -0x8(%rbp),%rdx
    7113:	64 48 2b 14 25 28 00 	sub    %fs:0x28,%rdx
    711a:	00 00 
    711c:	74 05                	je     7123 <parse_for+0x2ec>
    711e:	e8 6d 9f ff ff       	call   1090 <__stack_chk_fail@plt>
    7123:	c9                   	leave
    7124:	c3                   	ret

0000000000007125 <parse_function>:
    7125:	55                   	push   %rbp
    7126:	48 89 e5             	mov    %rsp,%rbp
    7129:	53                   	push   %rbx
    712a:	48 83 ec 78          	sub    $0x78,%rsp
    712e:	48 89 7d 88          	mov    %rdi,-0x78(%rbp)
    7132:	89 75 84             	mov    %esi,-0x7c(%rbp)
    7135:	64 48 8b 04 25 28 00 	mov    %fs:0x28,%rax
    713c:	00 00 
    713e:	48 89 45 e8          	mov    %rax,-0x18(%rbp)
    7142:	31 c0                	xor    %eax,%eax
    7144:	83 7d 84 00          	cmpl   $0x0,-0x7c(%rbp)
    7148:	79 08                	jns    7152 <parse_function+0x2d>
    714a:	8b 45 84             	mov    -0x7c(%rbp),%eax
    714d:	e9 2a 04 00 00       	jmp    757c <parse_function+0x457>
    7152:	48 8b 45 88          	mov    -0x78(%rbp),%rax
    7156:	48 89 c7             	mov    %rax,%rdi
    7159:	e8 df de ff ff       	call   503d <e_ast_peek>
    715e:	48 89 45 b0          	mov    %rax,-0x50(%rbp)
    7162:	48 8b 45 88          	mov    -0x78(%rbp),%rax
    7166:	be 2c 00 00 00       	mov    $0x2c,%esi
    716b:	48 89 c7             	mov    %rax,%rdi
    716e:	e8 c8 f1 ff ff       	call   633b <e_ast_expect>
    7173:	85 c0                	test   %eax,%eax
    7175:	74 44                	je     71bb <parse_function+0x96>
    7177:	48 8b 45 88          	mov    -0x78(%rbp),%rax
    717b:	48 89 c7             	mov    %rax,%rdi
    717e:	e8 ba de ff ff       	call   503d <e_ast_peek>
    7183:	48 8d 0d c6 43 00 00 	lea    0x43c6(%rip),%rcx        # b550 <__PRETTY_FUNCTION__.0+0x44c>
    718a:	48 8b 50 18          	mov    0x18(%rax),%rdx
    718e:	48 8b 40 10          	mov    0x10(%rax),%rax
    7192:	48 8d 3d d4 40 00 00 	lea    0x40d4(%rip),%rdi        # b26d <__PRETTY_FUNCTION__.0+0x169>
    7199:	49 89 c8             	mov    %rcx,%r8
    719c:	48 89 d1             	mov    %rdx,%rcx
    719f:	48 89 c2             	mov    %rax,%rdx
    71a2:	be ab 01 00 00       	mov    $0x1ab,%esi
    71a7:	b8 00 00 00 00       	mov    $0x0,%eax
    71ac:	e8 b6 ea ff ff       	call   5c67 <_asterror>
    71b1:	b8 ff ff ff ff       	mov    $0xffffffff,%eax
    71b6:	e9 c1 03 00 00       	jmp    757c <parse_function+0x457>
    71bb:	48 8b 45 88          	mov    -0x78(%rbp),%rax
    71bf:	be 06 00 00 00       	mov    $0x6,%esi
    71c4:	48 89 c7             	mov    %rax,%rdi
    71c7:	e8 6f f1 ff ff       	call   633b <e_ast_expect>
    71cc:	85 c0                	test   %eax,%eax
    71ce:	74 44                	je     7214 <parse_function+0xef>
    71d0:	48 8b 45 88          	mov    -0x78(%rbp),%rax
    71d4:	48 89 c7             	mov    %rax,%rdi
    71d7:	e8 61 de ff ff       	call   503d <e_ast_peek>
    71dc:	48 8d 0d 90 43 00 00 	lea    0x4390(%rip),%rcx        # b573 <__PRETTY_FUNCTION__.0+0x46f>
    71e3:	48 8b 50 18          	mov    0x18(%rax),%rdx
    71e7:	48 8b 40 10          	mov    0x10(%rax),%rax
    71eb:	48 8d 3d 7b 40 00 00 	lea    0x407b(%rip),%rdi        # b26d <__PRETTY_FUNCTION__.0+0x169>
    71f2:	49 89 c8             	mov    %rcx,%r8
    71f5:	48 89 d1             	mov    %rdx,%rcx
    71f8:	48 89 c2             	mov    %rax,%rdx
    71fb:	be b0 01 00 00       	mov    $0x1b0,%esi
    7200:	b8 00 00 00 00       	mov    $0x0,%eax
    7205:	e8 5d ea ff ff       	call   5c67 <_asterror>
    720a:	b8 ff ff ff ff       	mov    $0xffffffff,%eax
    720f:	e9 68 03 00 00       	jmp    757c <parse_function+0x457>
    7214:	48 8b 45 b0          	mov    -0x50(%rbp),%rax
    7218:	48 8b 40 08          	mov    0x8(%rax),%rax
    721c:	48 89 c7             	mov    %rax,%rdi
    721f:	e8 9c 9f ff ff       	call   11c0 <strdup@plt>
    7224:	48 89 45 b8          	mov    %rax,-0x48(%rbp)
    7228:	c7 45 94 20 00 00 00 	movl   $0x20,-0x6c(%rbp)
    722f:	c7 45 98 00 00 00 00 	movl   $0x0,-0x68(%rbp)
    7236:	8b 45 94             	mov    -0x6c(%rbp),%eax
    7239:	48 98                	cltq
    723b:	48 c1 e0 03          	shl    $0x3,%rax
    723f:	48 89 c7             	mov    %rax,%rdi
    7242:	e8 f9 9e ff ff       	call   1140 <malloc@plt>
    7247:	48 89 45 a8          	mov    %rax,-0x58(%rbp)
    724b:	e9 a6 01 00 00       	jmp    73f6 <parse_function+0x2d1>
    7250:	48 8b 45 88          	mov    -0x78(%rbp),%rax
    7254:	48 89 c7             	mov    %rax,%rdi
    7257:	e8 e1 dd ff ff       	call   503d <e_ast_peek>
    725c:	48 89 45 c0          	mov    %rax,-0x40(%rbp)
    7260:	48 8b 45 c0          	mov    -0x40(%rbp),%rax
    7264:	8b 00                	mov    (%rax),%eax
    7266:	83 f8 2c             	cmp    $0x2c,%eax
    7269:	74 44                	je     72af <parse_function+0x18a>
    726b:	48 8b 45 88          	mov    -0x78(%rbp),%rax
    726f:	48 89 c7             	mov    %rax,%rdi
    7272:	e8 c6 dd ff ff       	call   503d <e_ast_peek>
    7277:	48 8d 0d 01 43 00 00 	lea    0x4301(%rip),%rcx        # b57f <__PRETTY_FUNCTION__.0+0x47b>
    727e:	48 8b 50 18          	mov    0x18(%rax),%rdx
    7282:	48 8b 40 10          	mov    0x10(%rax),%rax
    7286:	48 8d 3d e0 3f 00 00 	lea    0x3fe0(%rip),%rdi        # b26d <__PRETTY_FUNCTION__.0+0x169>
    728d:	49 89 c8             	mov    %rcx,%r8
    7290:	48 89 d1             	mov    %rdx,%rcx
    7293:	48 89 c2             	mov    %rax,%rdx
    7296:	be bd 01 00 00       	mov    $0x1bd,%esi
    729b:	b8 00 00 00 00       	mov    $0x0,%eax
    72a0:	e8 c2 e9 ff ff       	call   5c67 <_asterror>
    72a5:	b8 ff ff ff ff       	mov    $0xffffffff,%eax
    72aa:	e9 cd 02 00 00       	jmp    757c <parse_function+0x457>
    72af:	48 8b 45 88          	mov    -0x78(%rbp),%rax
    72b3:	48 89 c7             	mov    %rax,%rdi
    72b6:	e8 3d dd ff ff       	call   4ff8 <e_ast_next>
    72bb:	8b 45 98             	mov    -0x68(%rbp),%eax
    72be:	3b 45 94             	cmp    -0x6c(%rbp),%eax
    72c1:	0f 8c 81 00 00 00    	jl     7348 <parse_function+0x223>
    72c7:	8b 45 94             	mov    -0x6c(%rbp),%eax
    72ca:	01 c0                	add    %eax,%eax
    72cc:	89 45 9c             	mov    %eax,-0x64(%rbp)
    72cf:	8b 45 9c             	mov    -0x64(%rbp),%eax
    72d2:	48 98                	cltq
    72d4:	48 8d 14 c5 00 00 00 	lea    0x0(,%rax,8),%rdx
    72db:	00 
    72dc:	48 8b 45 a8          	mov    -0x58(%rbp),%rax
    72e0:	48 89 d6             	mov    %rdx,%rsi
    72e3:	48 89 c7             	mov    %rax,%rdi
    72e6:	e8 75 9e ff ff       	call   1160 <realloc@plt>
    72eb:	48 89 45 c8          	mov    %rax,-0x38(%rbp)
    72ef:	48 83 7d c8 00       	cmpq   $0x0,-0x38(%rbp)
    72f4:	75 44                	jne    733a <parse_function+0x215>
    72f6:	48 8b 45 88          	mov    -0x78(%rbp),%rax
    72fa:	48 89 c7             	mov    %rax,%rdi
    72fd:	e8 3b dd ff ff       	call   503d <e_ast_peek>
    7302:	48 8d 0d 8f 42 00 00 	lea    0x428f(%rip),%rcx        # b598 <__PRETTY_FUNCTION__.0+0x494>
    7309:	48 8b 50 18          	mov    0x18(%rax),%rdx
    730d:	48 8b 40 10          	mov    0x10(%rax),%rax
    7311:	48 8d 3d 55 3f 00 00 	lea    0x3f55(%rip),%rdi        # b26d <__PRETTY_FUNCTION__.0+0x169>
    7318:	49 89 c8             	mov    %rcx,%r8
    731b:	48 89 d1             	mov    %rdx,%rcx
    731e:	48 89 c2             	mov    %rax,%rdx
    7321:	be c7 01 00 00       	mov    $0x1c7,%esi
    7326:	b8 00 00 00 00       	mov    $0x0,%eax
    732b:	e8 37 e9 ff ff       	call   5c67 <_asterror>
    7330:	b8 ff ff ff ff       	mov    $0xffffffff,%eax
    7335:	e9 42 02 00 00       	jmp    757c <parse_function+0x457>
    733a:	48 8b 45 c8          	mov    -0x38(%rbp),%rax
    733e:	48 89 45 a8          	mov    %rax,-0x58(%rbp)
    7342:	8b 45 9c             	mov    -0x64(%rbp),%eax
    7345:	89 45 94             	mov    %eax,-0x6c(%rbp)
    7348:	48 8b 45 c0          	mov    -0x40(%rbp),%rax
    734c:	48 8b 40 08          	mov    0x8(%rax),%rax
    7350:	8b 55 98             	mov    -0x68(%rbp),%edx
    7353:	48 63 d2             	movslq %edx,%rdx
    7356:	48 8d 0c d5 00 00 00 	lea    0x0(,%rdx,8),%rcx
    735d:	00 
    735e:	48 8b 55 a8          	mov    -0x58(%rbp),%rdx
    7362:	48 8d 1c 11          	lea    (%rcx,%rdx,1),%rbx
    7366:	48 89 c7             	mov    %rax,%rdi
    7369:	e8 52 9e ff ff       	call   11c0 <strdup@plt>
    736e:	48 89 03             	mov    %rax,(%rbx)
    7371:	83 45 98 01          	addl   $0x1,-0x68(%rbp)
    7375:	48 8b 45 88          	mov    -0x78(%rbp),%rax
    7379:	48 89 c7             	mov    %rax,%rdi
    737c:	e8 bc dc ff ff       	call   503d <e_ast_peek>
    7381:	48 85 c0             	test   %rax,%rax
    7384:	74 17                	je     739d <parse_function+0x278>
    7386:	48 8b 45 88          	mov    -0x78(%rbp),%rax
    738a:	48 89 c7             	mov    %rax,%rdi
    738d:	e8 ab dc ff ff       	call   503d <e_ast_peek>
    7392:	8b 00                	mov    (%rax),%eax
    7394:	83 f8 07             	cmp    $0x7,%eax
    7397:	0f 84 83 00 00 00    	je     7420 <parse_function+0x2fb>
    739d:	48 8b 45 88          	mov    -0x78(%rbp),%rax
    73a1:	be 03 00 00 00       	mov    $0x3,%esi
    73a6:	48 89 c7             	mov    %rax,%rdi
    73a9:	e8 8d ef ff ff       	call   633b <e_ast_expect>
    73ae:	85 c0                	test   %eax,%eax
    73b0:	74 44                	je     73f6 <parse_function+0x2d1>
    73b2:	48 8b 45 88          	mov    -0x78(%rbp),%rax
    73b6:	48 89 c7             	mov    %rax,%rdi
    73b9:	e8 7f dc ff ff       	call   503d <e_ast_peek>
    73be:	48 8d 0d e6 41 00 00 	lea    0x41e6(%rip),%rcx        # b5ab <__PRETTY_FUNCTION__.0+0x4a7>
    73c5:	48 8b 50 18          	mov    0x18(%rax),%rdx
    73c9:	48 8b 40 10          	mov    0x10(%rax),%rax
    73cd:	48 8d 3d 99 3e 00 00 	lea    0x3e99(%rip),%rdi        # b26d <__PRETTY_FUNCTION__.0+0x169>
    73d4:	49 89 c8             	mov    %rcx,%r8
    73d7:	48 89 d1             	mov    %rdx,%rcx
    73da:	48 89 c2             	mov    %rax,%rdx
    73dd:	be d5 01 00 00       	mov    $0x1d5,%esi
    73e2:	b8 00 00 00 00       	mov    $0x0,%eax
    73e7:	e8 7b e8 ff ff       	call   5c67 <_asterror>
    73ec:	b8 ff ff ff ff       	mov    $0xffffffff,%eax
    73f1:	e9 86 01 00 00       	jmp    757c <parse_function+0x457>
    73f6:	48 8b 45 88          	mov    -0x78(%rbp),%rax
    73fa:	48 89 c7             	mov    %rax,%rdi
    73fd:	e8 3b dc ff ff       	call   503d <e_ast_peek>
    7402:	48 85 c0             	test   %rax,%rax
    7405:	74 1a                	je     7421 <parse_function+0x2fc>
    7407:	48 8b 45 88          	mov    -0x78(%rbp),%rax
    740b:	48 89 c7             	mov    %rax,%rdi
    740e:	e8 2a dc ff ff       	call   503d <e_ast_peek>
    7413:	8b 00                	mov    (%rax),%eax
    7415:	83 f8 07             	cmp    $0x7,%eax
    7418:	0f 85 32 fe ff ff    	jne    7250 <parse_function+0x12b>
    741e:	eb 01                	jmp    7421 <parse_function+0x2fc>
    7420:	90                   	nop
    7421:	48 8b 45 88          	mov    -0x78(%rbp),%rax
    7425:	be 07 00 00 00       	mov    $0x7,%esi
    742a:	48 89 c7             	mov    %rax,%rdi
    742d:	e8 09 ef ff ff       	call   633b <e_ast_expect>
    7432:	85 c0                	test   %eax,%eax
    7434:	74 44                	je     747a <parse_function+0x355>
    7436:	48 8b 45 88          	mov    -0x78(%rbp),%rax
    743a:	48 89 c7             	mov    %rax,%rdi
    743d:	e8 fb db ff ff       	call   503d <e_ast_peek>
    7442:	48 8d 0d 70 41 00 00 	lea    0x4170(%rip),%rcx        # b5b9 <__PRETTY_FUNCTION__.0+0x4b5>
    7449:	48 8b 50 18          	mov    0x18(%rax),%rdx
    744d:	48 8b 40 10          	mov    0x10(%rax),%rax
    7451:	48 8d 3d 15 3e 00 00 	lea    0x3e15(%rip),%rdi        # b26d <__PRETTY_FUNCTION__.0+0x169>
    7458:	49 89 c8             	mov    %rcx,%r8
    745b:	48 89 d1             	mov    %rdx,%rcx
    745e:	48 89 c2             	mov    %rax,%rdx
    7461:	be db 01 00 00       	mov    $0x1db,%esi
    7466:	b8 00 00 00 00       	mov    $0x0,%eax
    746b:	e8 f7 e7 ff ff       	call   5c67 <_asterror>
    7470:	b8 ff ff ff ff       	mov    $0xffffffff,%eax
    7475:	e9 02 01 00 00       	jmp    757c <parse_function+0x457>
    747a:	48 8b 45 88          	mov    -0x78(%rbp),%rax
    747e:	48 89 c7             	mov    %rax,%rdi
    7481:	e8 b7 db ff ff       	call   503d <e_ast_peek>
    7486:	48 8b 50 18          	mov    0x18(%rax),%rdx
    748a:	48 8b 40 10          	mov    0x10(%rax),%rax
    748e:	48 89 45 d0          	mov    %rax,-0x30(%rbp)
    7492:	48 89 55 d8          	mov    %rdx,-0x28(%rbp)
    7496:	48 8d 55 90          	lea    -0x70(%rbp),%rdx
    749a:	48 8d 4d a0          	lea    -0x60(%rbp),%rcx
    749e:	48 8b 45 88          	mov    -0x78(%rbp),%rax
    74a2:	48 89 ce             	mov    %rcx,%rsi
    74a5:	48 89 c7             	mov    %rax,%rdi
    74a8:	e8 2e ed ff ff       	call   61db <parse_body>
    74ad:	85 c0                	test   %eax,%eax
    74af:	74 38                	je     74e9 <parse_function+0x3c4>
    74b1:	48 8d 0d 10 41 00 00 	lea    0x4110(%rip),%rcx        # b5c8 <__PRETTY_FUNCTION__.0+0x4c4>
    74b8:	48 8b 45 d0          	mov    -0x30(%rbp),%rax
    74bc:	48 8b 55 d8          	mov    -0x28(%rbp),%rdx
    74c0:	48 8d 3d a6 3d 00 00 	lea    0x3da6(%rip),%rdi        # b26d <__PRETTY_FUNCTION__.0+0x169>
    74c7:	49 89 c8             	mov    %rcx,%r8
    74ca:	48 89 d1             	mov    %rdx,%rcx
    74cd:	48 89 c2             	mov    %rax,%rdx
    74d0:	be e4 01 00 00       	mov    $0x1e4,%esi
    74d5:	b8 00 00 00 00       	mov    $0x0,%eax
    74da:	e8 88 e7 ff ff       	call   5c67 <_asterror>
    74df:	b8 ff ff ff ff       	mov    $0xffffffff,%eax
    74e4:	e9 93 00 00 00       	jmp    757c <parse_function+0x457>
    74e9:	8b 55 84             	mov    -0x7c(%rbp),%edx
    74ec:	48 8b 45 88          	mov    -0x78(%rbp),%rax
    74f0:	89 d6                	mov    %edx,%esi
    74f2:	48 89 c7             	mov    %rax,%rdi
    74f5:	e8 e7 de ff ff       	call   53e1 <e_ast_get_node>
    74fa:	c7 00 0a 00 00 00    	movl   $0xa,(%rax)
    7500:	8b 55 84             	mov    -0x7c(%rbp),%edx
    7503:	48 8b 45 88          	mov    -0x78(%rbp),%rax
    7507:	89 d6                	mov    %edx,%esi
    7509:	48 89 c7             	mov    %rax,%rdi
    750c:	e8 d0 de ff ff       	call   53e1 <e_ast_get_node>
    7511:	48 8b 55 b8          	mov    -0x48(%rbp),%rdx
    7515:	48 89 50 08          	mov    %rdx,0x8(%rax)
    7519:	8b 55 84             	mov    -0x7c(%rbp),%edx
    751c:	48 8b 45 88          	mov    -0x78(%rbp),%rax
    7520:	89 d6                	mov    %edx,%esi
    7522:	48 89 c7             	mov    %rax,%rdi
    7525:	e8 b7 de ff ff       	call   53e1 <e_ast_get_node>
    752a:	48 8b 55 a8          	mov    -0x58(%rbp),%rdx
    752e:	48 89 50 10          	mov    %rdx,0x10(%rax)
    7532:	8b 55 84             	mov    -0x7c(%rbp),%edx
    7535:	48 8b 45 88          	mov    -0x78(%rbp),%rax
    7539:	89 d6                	mov    %edx,%esi
    753b:	48 89 c7             	mov    %rax,%rdi
    753e:	e8 9e de ff ff       	call   53e1 <e_ast_get_node>
    7543:	8b 55 98             	mov    -0x68(%rbp),%edx
    7546:	89 50 20             	mov    %edx,0x20(%rax)
    7549:	8b 55 84             	mov    -0x7c(%rbp),%edx
    754c:	48 8b 45 88          	mov    -0x78(%rbp),%rax
    7550:	89 d6                	mov    %edx,%esi
    7552:	48 89 c7             	mov    %rax,%rdi
    7555:	e8 87 de ff ff       	call   53e1 <e_ast_get_node>
    755a:	48 8b 55 a0          	mov    -0x60(%rbp),%rdx
    755e:	48 89 50 18          	mov    %rdx,0x18(%rax)
    7562:	8b 55 84             	mov    -0x7c(%rbp),%edx
    7565:	48 8b 45 88          	mov    -0x78(%rbp),%rax
    7569:	89 d6                	mov    %edx,%esi
    756b:	48 89 c7             	mov    %rax,%rdi
    756e:	e8 6e de ff ff       	call   53e1 <e_ast_get_node>
    7573:	8b 55 90             	mov    -0x70(%rbp),%edx
    7576:	89 50 24             	mov    %edx,0x24(%rax)
    7579:	8b 45 84             	mov    -0x7c(%rbp),%eax
    757c:	48 8b 55 e8          	mov    -0x18(%rbp),%rdx
    7580:	64 48 2b 14 25 28 00 	sub    %fs:0x28,%rdx
    7587:	00 00 
    7589:	74 05                	je     7590 <parse_function+0x46b>
    758b:	e8 00 9b ff ff       	call   1090 <__stack_chk_fail@plt>
    7590:	48 8b 5d f8          	mov    -0x8(%rbp),%rbx
    7594:	c9                   	leave
    7595:	c3                   	ret

0000000000007596 <make_literal_node>:
    7596:	55                   	push   %rbp
    7597:	48 89 e5             	mov    %rsp,%rbp
    759a:	48 83 ec 30          	sub    $0x30,%rsp
    759e:	48 89 7d e8          	mov    %rdi,-0x18(%rbp)
    75a2:	89 75 e4             	mov    %esi,-0x1c(%rbp)
    75a5:	48 89 55 d8          	mov    %rdx,-0x28(%rbp)
    75a9:	83 7d e4 00          	cmpl   $0x0,-0x1c(%rbp)
    75ad:	79 08                	jns    75b7 <make_literal_node+0x21>
    75af:	8b 45 e4             	mov    -0x1c(%rbp),%eax
    75b2:	e9 fc 00 00 00       	jmp    76b3 <make_literal_node+0x11d>
    75b7:	8b 55 e4             	mov    -0x1c(%rbp),%edx
    75ba:	48 8b 45 e8          	mov    -0x18(%rbp),%rax
    75be:	89 d6                	mov    %edx,%esi
    75c0:	48 89 c7             	mov    %rax,%rdi
    75c3:	e8 19 de ff ff       	call   53e1 <e_ast_get_node>
    75c8:	48 89 45 f8          	mov    %rax,-0x8(%rbp)
    75cc:	48 8b 45 d8          	mov    -0x28(%rbp),%rax
    75d0:	8b 00                	mov    (%rax),%eax
    75d2:	83 f8 08             	cmp    $0x8,%eax
    75d5:	75 1d                	jne    75f4 <make_literal_node+0x5e>
    75d7:	48 8b 45 f8          	mov    -0x8(%rbp),%rax
    75db:	c7 00 11 00 00 00    	movl   $0x11,(%rax)
    75e1:	48 8b 45 d8          	mov    -0x28(%rbp),%rax
    75e5:	8b 50 08             	mov    0x8(%rax),%edx
    75e8:	48 8b 45 f8          	mov    -0x8(%rbp),%rax
    75ec:	89 50 08             	mov    %edx,0x8(%rax)
    75ef:	e9 bc 00 00 00       	jmp    76b0 <make_literal_node+0x11a>
    75f4:	48 8b 45 d8          	mov    -0x28(%rbp),%rax
    75f8:	8b 00                	mov    (%rax),%eax
    75fa:	83 f8 0b             	cmp    $0xb,%eax
    75fd:	75 21                	jne    7620 <make_literal_node+0x8a>
    75ff:	48 8b 45 f8          	mov    -0x8(%rbp),%rax
    7603:	c7 00 15 00 00 00    	movl   $0x15,(%rax)
    7609:	48 8b 45 d8          	mov    -0x28(%rbp),%rax
    760d:	f2 0f 10 40 08       	movsd  0x8(%rax),%xmm0
    7612:	48 8b 45 f8          	mov    -0x8(%rbp),%rax
    7616:	f2 0f 11 40 08       	movsd  %xmm0,0x8(%rax)
    761b:	e9 90 00 00 00       	jmp    76b0 <make_literal_node+0x11a>
    7620:	48 8b 45 d8          	mov    -0x28(%rbp),%rax
    7624:	8b 00                	mov    (%rax),%eax
    7626:	83 f8 0a             	cmp    $0xa,%eax
    7629:	75 1b                	jne    7646 <make_literal_node+0xb0>
    762b:	48 8b 45 f8          	mov    -0x8(%rbp),%rax
    762f:	c7 00 13 00 00 00    	movl   $0x13,(%rax)
    7635:	48 8b 45 d8          	mov    -0x28(%rbp),%rax
    7639:	0f b6 50 08          	movzbl 0x8(%rax),%edx
    763d:	48 8b 45 f8          	mov    -0x8(%rbp),%rax
    7641:	88 50 08             	mov    %dl,0x8(%rax)
    7644:	eb 6a                	jmp    76b0 <make_literal_node+0x11a>
    7646:	48 8b 45 d8          	mov    -0x28(%rbp),%rax
    764a:	8b 00                	mov    (%rax),%eax
    764c:	83 f8 09             	cmp    $0x9,%eax
    764f:	75 1b                	jne    766c <make_literal_node+0xd6>
    7651:	48 8b 45 f8          	mov    -0x8(%rbp),%rax
    7655:	c7 00 12 00 00 00    	movl   $0x12,(%rax)
    765b:	48 8b 45 d8          	mov    -0x28(%rbp),%rax
    765f:	0f b6 50 08          	movzbl 0x8(%rax),%edx
    7663:	48 8b 45 f8          	mov    -0x8(%rbp),%rax
    7667:	88 50 08             	mov    %dl,0x8(%rax)
    766a:	eb 44                	jmp    76b0 <make_literal_node+0x11a>
    766c:	48 8b 45 d8          	mov    -0x28(%rbp),%rax
    7670:	8b 00                	mov    (%rax),%eax
    7672:	83 f8 0c             	cmp    $0xc,%eax
    7675:	75 39                	jne    76b0 <make_literal_node+0x11a>
    7677:	48 8b 45 f8          	mov    -0x8(%rbp),%rax
    767b:	c7 00 14 00 00 00    	movl   $0x14,(%rax)
    7681:	48 8b 45 d8          	mov    -0x28(%rbp),%rax
    7685:	48 8b 40 08          	mov    0x8(%rax),%rax
    7689:	48 89 c7             	mov    %rax,%rdi
    768c:	e8 2f 9b ff ff       	call   11c0 <strdup@plt>
    7691:	48 89 c2             	mov    %rax,%rdx
    7694:	48 8b 45 f8          	mov    -0x8(%rbp),%rax
    7698:	48 89 50 08          	mov    %rdx,0x8(%rax)
    769c:	48 8b 45 f8          	mov    -0x8(%rbp),%rax
    76a0:	48 8b 40 08          	mov    0x8(%rax),%rax
    76a4:	48 85 c0             	test   %rax,%rax
    76a7:	75 07                	jne    76b0 <make_literal_node+0x11a>
    76a9:	b8 ff ff ff ff       	mov    $0xffffffff,%eax
    76ae:	eb 03                	jmp    76b3 <make_literal_node+0x11d>
    76b0:	8b 45 e4             	mov    -0x1c(%rbp),%eax
    76b3:	c9                   	leave
    76b4:	c3                   	ret

00000000000076b5 <e_ast_nud>:
    76b5:	55                   	push   %rbp
    76b6:	48 89 e5             	mov    %rsp,%rbp
    76b9:	41 54                	push   %r12
    76bb:	53                   	push   %rbx
    76bc:	48 83 ec 60          	sub    $0x60,%rsp
    76c0:	48 89 7d 98          	mov    %rdi,-0x68(%rbp)
    76c4:	48 89 75 90          	mov    %rsi,-0x70(%rbp)
    76c8:	64 48 8b 04 25 28 00 	mov    %fs:0x28,%rax
    76cf:	00 00 
    76d1:	48 89 45 e8          	mov    %rax,-0x18(%rbp)
    76d5:	31 c0                	xor    %eax,%eax
    76d7:	48 83 7d 90 00       	cmpq   $0x0,-0x70(%rbp)
    76dc:	74 07                	je     76e5 <e_ast_nud+0x30>
    76de:	48 83 7d 98 00       	cmpq   $0x0,-0x68(%rbp)
    76e3:	75 0a                	jne    76ef <e_ast_nud+0x3a>
    76e5:	b8 ff ff ff ff       	mov    $0xffffffff,%eax
    76ea:	e9 bb 06 00 00       	jmp    7daa <e_ast_nud+0x6f5>
    76ef:	48 8b 45 98          	mov    -0x68(%rbp),%rax
    76f3:	48 89 c7             	mov    %rax,%rdi
    76f6:	e8 1c dc ff ff       	call   5317 <e_ast_make_node>
    76fb:	89 45 ac             	mov    %eax,-0x54(%rbp)
    76fe:	83 7d ac 00          	cmpl   $0x0,-0x54(%rbp)
    7702:	79 08                	jns    770c <e_ast_nud+0x57>
    7704:	8b 45 ac             	mov    -0x54(%rbp),%eax
    7707:	e9 9e 06 00 00       	jmp    7daa <e_ast_nud+0x6f5>
    770c:	48 8b 45 90          	mov    -0x70(%rbp),%rax
    7710:	48 8b 50 10          	mov    0x10(%rax),%rdx
    7714:	48 8b 40 18          	mov    0x18(%rax),%rax
    7718:	48 89 d7             	mov    %rdx,%rdi
    771b:	48 89 c6             	mov    %rax,%rsi
    771e:	e8 60 e6 ff ff       	call   5d83 <clonespan>
    7723:	48 89 45 d0          	mov    %rax,-0x30(%rbp)
    7727:	48 89 55 d8          	mov    %rdx,-0x28(%rbp)
    772b:	8b 55 ac             	mov    -0x54(%rbp),%edx
    772e:	48 8b 45 98          	mov    -0x68(%rbp),%rax
    7732:	89 d6                	mov    %edx,%esi
    7734:	48 89 c7             	mov    %rax,%rdi
    7737:	e8 a5 dc ff ff       	call   53e1 <e_ast_get_node>
    773c:	48 89 c1             	mov    %rax,%rcx
    773f:	48 8b 45 d0          	mov    -0x30(%rbp),%rax
    7743:	48 8b 55 d8          	mov    -0x28(%rbp),%rdx
    7747:	48 89 41 30          	mov    %rax,0x30(%rcx)
    774b:	48 89 51 38          	mov    %rdx,0x38(%rcx)
    774f:	48 8b 45 90          	mov    -0x70(%rbp),%rax
    7753:	8b 00                	mov    (%rax),%eax
    7755:	83 f8 2c             	cmp    $0x2c,%eax
    7758:	0f 84 ea 00 00 00    	je     7848 <e_ast_nud+0x193>
    775e:	83 f8 2c             	cmp    $0x2c,%eax
    7761:	0f 87 3f 05 00 00    	ja     7ca6 <e_ast_nud+0x5f1>
    7767:	83 f8 15             	cmp    $0x15,%eax
    776a:	0f 84 00 04 00 00    	je     7b70 <e_ast_nud+0x4bb>
    7770:	83 f8 15             	cmp    $0x15,%eax
    7773:	0f 87 2d 05 00 00    	ja     7ca6 <e_ast_nud+0x5f1>
    7779:	83 f8 14             	cmp    $0x14,%eax
    777c:	0f 84 cf 03 00 00    	je     7b51 <e_ast_nud+0x49c>
    7782:	83 f8 14             	cmp    $0x14,%eax
    7785:	0f 87 1b 05 00 00    	ja     7ca6 <e_ast_nud+0x5f1>
    778b:	83 f8 13             	cmp    $0x13,%eax
    778e:	0f 84 9e 03 00 00    	je     7b32 <e_ast_nud+0x47d>
    7794:	83 f8 13             	cmp    $0x13,%eax
    7797:	0f 87 09 05 00 00    	ja     7ca6 <e_ast_nud+0x5f1>
    779d:	83 f8 12             	cmp    $0x12,%eax
    77a0:	0f 84 cc 04 00 00    	je     7c72 <e_ast_nud+0x5bd>
    77a6:	83 f8 12             	cmp    $0x12,%eax
    77a9:	0f 87 f7 04 00 00    	ja     7ca6 <e_ast_nud+0x5f1>
    77af:	83 f8 11             	cmp    $0x11,%eax
    77b2:	0f 84 a4 04 00 00    	je     7c5c <e_ast_nud+0x5a7>
    77b8:	83 f8 11             	cmp    $0x11,%eax
    77bb:	0f 87 e5 04 00 00    	ja     7ca6 <e_ast_nud+0x5f1>
    77c1:	83 f8 0f             	cmp    $0xf,%eax
    77c4:	0f 84 7c 04 00 00    	je     7c46 <e_ast_nud+0x591>
    77ca:	83 f8 0f             	cmp    $0xf,%eax
    77cd:	0f 87 d3 04 00 00    	ja     7ca6 <e_ast_nud+0x5f1>
    77d3:	83 f8 0e             	cmp    $0xe,%eax
    77d6:	0f 84 54 04 00 00    	je     7c30 <e_ast_nud+0x57b>
    77dc:	83 f8 0e             	cmp    $0xe,%eax
    77df:	0f 87 c1 04 00 00    	ja     7ca6 <e_ast_nud+0x5f1>
    77e5:	83 f8 0d             	cmp    $0xd,%eax
    77e8:	0f 84 9a 04 00 00    	je     7c88 <e_ast_nud+0x5d3>
    77ee:	83 f8 0d             	cmp    $0xd,%eax
    77f1:	0f 87 af 04 00 00    	ja     7ca6 <e_ast_nud+0x5f1>
    77f7:	83 f8 0c             	cmp    $0xc,%eax
    77fa:	0f 87 a6 04 00 00    	ja     7ca6 <e_ast_nud+0x5f1>
    7800:	83 f8 08             	cmp    $0x8,%eax
    7803:	73 29                	jae    782e <e_ast_nud+0x179>
    7805:	83 f8 06             	cmp    $0x6,%eax
    7808:	0f 84 63 02 00 00    	je     7a71 <e_ast_nud+0x3bc>
    780e:	83 f8 06             	cmp    $0x6,%eax
    7811:	0f 87 8f 04 00 00    	ja     7ca6 <e_ast_nud+0x5f1>
    7817:	83 f8 01             	cmp    $0x1,%eax
    781a:	0f 84 7e 04 00 00    	je     7c9e <e_ast_nud+0x5e9>
    7820:	83 f8 04             	cmp    $0x4,%eax
    7823:	0f 84 86 02 00 00    	je     7aaf <e_ast_nud+0x3fa>
    7829:	e9 78 04 00 00       	jmp    7ca6 <e_ast_nud+0x5f1>
    782e:	48 8b 55 90          	mov    -0x70(%rbp),%rdx
    7832:	8b 4d ac             	mov    -0x54(%rbp),%ecx
    7835:	48 8b 45 98          	mov    -0x68(%rbp),%rax
    7839:	89 ce                	mov    %ecx,%esi
    783b:	48 89 c7             	mov    %rax,%rdi
    783e:	e8 53 fd ff ff       	call   7596 <make_literal_node>
    7843:	e9 62 05 00 00       	jmp    7daa <e_ast_nud+0x6f5>
    7848:	48 8b 45 98          	mov    -0x68(%rbp),%rax
    784c:	48 89 c7             	mov    %rax,%rdi
    784f:	e8 e9 d7 ff ff       	call   503d <e_ast_peek>
    7854:	8b 00                	mov    (%rax),%eax
    7856:	83 f8 06             	cmp    $0x6,%eax
    7859:	0f 85 cb 01 00 00    	jne    7a2a <e_ast_nud+0x375>
    785f:	48 8b 45 98          	mov    -0x68(%rbp),%rax
    7863:	48 89 c7             	mov    %rax,%rdi
    7866:	e8 8d d7 ff ff       	call   4ff8 <e_ast_next>
    786b:	8b 55 ac             	mov    -0x54(%rbp),%edx
    786e:	48 8b 45 98          	mov    -0x68(%rbp),%rax
    7872:	89 d6                	mov    %edx,%esi
    7874:	48 89 c7             	mov    %rax,%rdi
    7877:	e8 65 db ff ff       	call   53e1 <e_ast_get_node>
    787c:	c7 00 10 00 00 00    	movl   $0x10,(%rax)
    7882:	48 8b 45 90          	mov    -0x70(%rbp),%rax
    7886:	4c 8b 60 08          	mov    0x8(%rax),%r12
    788a:	8b 55 ac             	mov    -0x54(%rbp),%edx
    788d:	48 8b 45 98          	mov    -0x68(%rbp),%rax
    7891:	89 d6                	mov    %edx,%esi
    7893:	48 89 c7             	mov    %rax,%rdi
    7896:	e8 46 db ff ff       	call   53e1 <e_ast_get_node>
    789b:	48 89 c3             	mov    %rax,%rbx
    789e:	4c 89 e7             	mov    %r12,%rdi
    78a1:	e8 1a 99 ff ff       	call   11c0 <strdup@plt>
    78a6:	48 89 43 08          	mov    %rax,0x8(%rbx)
    78aa:	c7 45 a4 04 00 00 00 	movl   $0x4,-0x5c(%rbp)
    78b1:	c7 45 a8 00 00 00 00 	movl   $0x0,-0x58(%rbp)
    78b8:	8b 45 a4             	mov    -0x5c(%rbp),%eax
    78bb:	48 98                	cltq
    78bd:	48 c1 e0 02          	shl    $0x2,%rax
    78c1:	48 89 c7             	mov    %rax,%rdi
    78c4:	e8 77 98 ff ff       	call   1140 <malloc@plt>
    78c9:	48 89 45 c8          	mov    %rax,-0x38(%rbp)
    78cd:	e9 ef 00 00 00       	jmp    79c1 <e_ast_nud+0x30c>
    78d2:	8b 45 a8             	mov    -0x58(%rbp),%eax
    78d5:	3b 45 a4             	cmp    -0x5c(%rbp),%eax
    78d8:	7c 49                	jl     7923 <e_ast_nud+0x26e>
    78da:	8b 45 a4             	mov    -0x5c(%rbp),%eax
    78dd:	01 c0                	add    %eax,%eax
    78df:	ba 01 00 00 00       	mov    $0x1,%edx
    78e4:	85 c0                	test   %eax,%eax
    78e6:	0f 4e c2             	cmovle %edx,%eax
    78e9:	89 45 b0             	mov    %eax,-0x50(%rbp)
    78ec:	8b 45 b0             	mov    -0x50(%rbp),%eax
    78ef:	48 98                	cltq
    78f1:	48 8d 14 85 00 00 00 	lea    0x0(,%rax,4),%rdx
    78f8:	00 
    78f9:	48 8b 45 c8          	mov    -0x38(%rbp),%rax
    78fd:	48 89 d6             	mov    %rdx,%rsi
    7900:	48 89 c7             	mov    %rax,%rdi
    7903:	e8 58 98 ff ff       	call   1160 <realloc@plt>
    7908:	48 89 45 c8          	mov    %rax,-0x38(%rbp)
    790c:	8b 45 b0             	mov    -0x50(%rbp),%eax
    790f:	89 45 a4             	mov    %eax,-0x5c(%rbp)
    7912:	48 83 7d c8 00       	cmpq   $0x0,-0x38(%rbp)
    7917:	75 0a                	jne    7923 <e_ast_nud+0x26e>
    7919:	b8 ff ff ff ff       	mov    $0xffffffff,%eax
    791e:	e9 87 04 00 00       	jmp    7daa <e_ast_nud+0x6f5>
    7923:	8b 45 a8             	mov    -0x58(%rbp),%eax
    7926:	8d 50 01             	lea    0x1(%rax),%edx
    7929:	89 55 a8             	mov    %edx,-0x58(%rbp)
    792c:	48 98                	cltq
    792e:	48 8d 14 85 00 00 00 	lea    0x0(,%rax,4),%rdx
    7935:	00 
    7936:	48 8b 45 c8          	mov    -0x38(%rbp),%rax
    793a:	48 8d 1c 02          	lea    (%rdx,%rax,1),%rbx
    793e:	48 8b 45 98          	mov    -0x68(%rbp),%rax
    7942:	be 00 00 00 00       	mov    $0x0,%esi
    7947:	48 89 c7             	mov    %rax,%rdi
    794a:	e8 14 ea ff ff       	call   6363 <e_ast_expr>
    794f:	89 03                	mov    %eax,(%rbx)
    7951:	48 8b 45 98          	mov    -0x68(%rbp),%rax
    7955:	48 89 c7             	mov    %rax,%rdi
    7958:	e8 e0 d6 ff ff       	call   503d <e_ast_peek>
    795d:	8b 00                	mov    (%rax),%eax
    795f:	83 f8 07             	cmp    $0x7,%eax
    7962:	0f 84 83 00 00 00    	je     79eb <e_ast_nud+0x336>
    7968:	48 8b 45 98          	mov    -0x68(%rbp),%rax
    796c:	be 03 00 00 00       	mov    $0x3,%esi
    7971:	48 89 c7             	mov    %rax,%rdi
    7974:	e8 c2 e9 ff ff       	call   633b <e_ast_expect>
    7979:	85 c0                	test   %eax,%eax
    797b:	74 44                	je     79c1 <e_ast_nud+0x30c>
    797d:	48 8b 45 98          	mov    -0x68(%rbp),%rax
    7981:	48 89 c7             	mov    %rax,%rdi
    7984:	e8 b4 d6 ff ff       	call   503d <e_ast_peek>
    7989:	48 8d 0d 57 3c 00 00 	lea    0x3c57(%rip),%rcx        # b5e7 <__PRETTY_FUNCTION__.0+0x4e3>
    7990:	48 8b 50 18          	mov    0x18(%rax),%rdx
    7994:	48 8b 40 10          	mov    0x10(%rax),%rax
    7998:	48 8d 3d ce 38 00 00 	lea    0x38ce(%rip),%rdi        # b26d <__PRETTY_FUNCTION__.0+0x169>
    799f:	49 89 c8             	mov    %rcx,%r8
    79a2:	48 89 d1             	mov    %rdx,%rcx
    79a5:	48 89 c2             	mov    %rax,%rdx
    79a8:	be 3b 02 00 00       	mov    $0x23b,%esi
    79ad:	b8 00 00 00 00       	mov    $0x0,%eax
    79b2:	e8 b0 e2 ff ff       	call   5c67 <_asterror>
    79b7:	b8 ff ff ff ff       	mov    $0xffffffff,%eax
    79bc:	e9 e9 03 00 00       	jmp    7daa <e_ast_nud+0x6f5>
    79c1:	48 8b 45 98          	mov    -0x68(%rbp),%rax
    79c5:	48 89 c7             	mov    %rax,%rdi
    79c8:	e8 70 d6 ff ff       	call   503d <e_ast_peek>
    79cd:	48 85 c0             	test   %rax,%rax
    79d0:	74 1a                	je     79ec <e_ast_nud+0x337>
    79d2:	48 8b 45 98          	mov    -0x68(%rbp),%rax
    79d6:	48 89 c7             	mov    %rax,%rdi
    79d9:	e8 5f d6 ff ff       	call   503d <e_ast_peek>
    79de:	8b 00                	mov    (%rax),%eax
    79e0:	83 f8 07             	cmp    $0x7,%eax
    79e3:	0f 85 e9 fe ff ff    	jne    78d2 <e_ast_nud+0x21d>
    79e9:	eb 01                	jmp    79ec <e_ast_nud+0x337>
    79eb:	90                   	nop
    79ec:	48 8b 45 98          	mov    -0x68(%rbp),%rax
    79f0:	48 89 c7             	mov    %rax,%rdi
    79f3:	e8 00 d6 ff ff       	call   4ff8 <e_ast_next>
    79f8:	8b 55 ac             	mov    -0x54(%rbp),%edx
    79fb:	48 8b 45 98          	mov    -0x68(%rbp),%rax
    79ff:	89 d6                	mov    %edx,%esi
    7a01:	48 89 c7             	mov    %rax,%rdi
    7a04:	e8 d8 d9 ff ff       	call   53e1 <e_ast_get_node>
    7a09:	48 8b 55 c8          	mov    -0x38(%rbp),%rdx
    7a0d:	48 89 50 10          	mov    %rdx,0x10(%rax)
    7a11:	8b 55 ac             	mov    -0x54(%rbp),%edx
    7a14:	48 8b 45 98          	mov    -0x68(%rbp),%rax
    7a18:	89 d6                	mov    %edx,%esi
    7a1a:	48 89 c7             	mov    %rax,%rdi
    7a1d:	e8 bf d9 ff ff       	call   53e1 <e_ast_get_node>
    7a22:	8b 55 a8             	mov    -0x58(%rbp),%edx
    7a25:	89 50 18             	mov    %edx,0x18(%rax)
    7a28:	eb 3f                	jmp    7a69 <e_ast_nud+0x3b4>
    7a2a:	8b 55 ac             	mov    -0x54(%rbp),%edx
    7a2d:	48 8b 45 98          	mov    -0x68(%rbp),%rax
    7a31:	89 d6                	mov    %edx,%esi
    7a33:	48 89 c7             	mov    %rax,%rdi
    7a36:	e8 a6 d9 ff ff       	call   53e1 <e_ast_get_node>
    7a3b:	c7 00 0b 00 00 00    	movl   $0xb,(%rax)
    7a41:	48 8b 45 90          	mov    -0x70(%rbp),%rax
    7a45:	4c 8b 60 08          	mov    0x8(%rax),%r12
    7a49:	8b 55 ac             	mov    -0x54(%rbp),%edx
    7a4c:	48 8b 45 98          	mov    -0x68(%rbp),%rax
    7a50:	89 d6                	mov    %edx,%esi
    7a52:	48 89 c7             	mov    %rax,%rdi
    7a55:	e8 87 d9 ff ff       	call   53e1 <e_ast_get_node>
    7a5a:	48 89 c3             	mov    %rax,%rbx
    7a5d:	4c 89 e7             	mov    %r12,%rdi
    7a60:	e8 5b 97 ff ff       	call   11c0 <strdup@plt>
    7a65:	48 89 43 08          	mov    %rax,0x8(%rbx)
    7a69:	8b 45 ac             	mov    -0x54(%rbp),%eax
    7a6c:	e9 39 03 00 00       	jmp    7daa <e_ast_nud+0x6f5>
    7a71:	8b 55 ac             	mov    -0x54(%rbp),%edx
    7a74:	48 8b 45 98          	mov    -0x68(%rbp),%rax
    7a78:	89 d6                	mov    %edx,%esi
    7a7a:	48 89 c7             	mov    %rax,%rdi
    7a7d:	e8 c3 d9 ff ff       	call   5445 <e_asnode_free>
    7a82:	48 8b 45 98          	mov    -0x68(%rbp),%rax
    7a86:	be 00 00 00 00       	mov    $0x0,%esi
    7a8b:	48 89 c7             	mov    %rax,%rdi
    7a8e:	e8 d0 e8 ff ff       	call   6363 <e_ast_expr>
    7a93:	89 45 ac             	mov    %eax,-0x54(%rbp)
    7a96:	48 8b 45 98          	mov    -0x68(%rbp),%rax
    7a9a:	be 07 00 00 00       	mov    $0x7,%esi
    7a9f:	48 89 c7             	mov    %rax,%rdi
    7aa2:	e8 94 e8 ff ff       	call   633b <e_ast_expect>
    7aa7:	8b 45 ac             	mov    -0x54(%rbp),%eax
    7aaa:	e9 fb 02 00 00       	jmp    7daa <e_ast_nud+0x6f5>
    7aaf:	48 c7 45 c0 00 00 00 	movq   $0x0,-0x40(%rbp)
    7ab6:	00 
    7ab7:	c7 45 a0 00 00 00 00 	movl   $0x0,-0x60(%rbp)
    7abe:	48 8d 55 a0          	lea    -0x60(%rbp),%rdx
    7ac2:	48 8d 4d c0          	lea    -0x40(%rbp),%rcx
    7ac6:	48 8b 45 98          	mov    -0x68(%rbp),%rax
    7aca:	48 89 ce             	mov    %rcx,%rsi
    7acd:	48 89 c7             	mov    %rax,%rdi
    7ad0:	e8 f0 e4 ff ff       	call   5fc5 <parse_braces>
    7ad5:	85 c0                	test   %eax,%eax
    7ad7:	74 0a                	je     7ae3 <e_ast_nud+0x42e>
    7ad9:	b8 ff ff ff ff       	mov    $0xffffffff,%eax
    7ade:	e9 c7 02 00 00       	jmp    7daa <e_ast_nud+0x6f5>
    7ae3:	8b 55 ac             	mov    -0x54(%rbp),%edx
    7ae6:	48 8b 45 98          	mov    -0x68(%rbp),%rax
    7aea:	89 d6                	mov    %edx,%esi
    7aec:	48 89 c7             	mov    %rax,%rdi
    7aef:	e8 ed d8 ff ff       	call   53e1 <e_ast_get_node>
    7af4:	c7 00 03 00 00 00    	movl   $0x3,(%rax)
    7afa:	8b 55 ac             	mov    -0x54(%rbp),%edx
    7afd:	48 8b 45 98          	mov    -0x68(%rbp),%rax
    7b01:	89 d6                	mov    %edx,%esi
    7b03:	48 89 c7             	mov    %rax,%rdi
    7b06:	e8 d6 d8 ff ff       	call   53e1 <e_ast_get_node>
    7b0b:	48 8b 55 c0          	mov    -0x40(%rbp),%rdx
    7b0f:	48 89 50 08          	mov    %rdx,0x8(%rax)
    7b13:	8b 55 ac             	mov    -0x54(%rbp),%edx
    7b16:	48 8b 45 98          	mov    -0x68(%rbp),%rax
    7b1a:	89 d6                	mov    %edx,%esi
    7b1c:	48 89 c7             	mov    %rax,%rdi
    7b1f:	e8 bd d8 ff ff       	call   53e1 <e_ast_get_node>
    7b24:	8b 55 a0             	mov    -0x60(%rbp),%edx
    7b27:	89 50 10             	mov    %edx,0x10(%rax)
    7b2a:	8b 45 ac             	mov    -0x54(%rbp),%eax
    7b2d:	e9 78 02 00 00       	jmp    7daa <e_ast_nud+0x6f5>
    7b32:	8b 55 ac             	mov    -0x54(%rbp),%edx
    7b35:	48 8b 45 98          	mov    -0x68(%rbp),%rax
    7b39:	89 d6                	mov    %edx,%esi
    7b3b:	48 89 c7             	mov    %rax,%rdi
    7b3e:	e8 9e d8 ff ff       	call   53e1 <e_ast_get_node>
    7b43:	c7 00 06 00 00 00    	movl   $0x6,(%rax)
    7b49:	8b 45 ac             	mov    -0x54(%rbp),%eax
    7b4c:	e9 59 02 00 00       	jmp    7daa <e_ast_nud+0x6f5>
    7b51:	8b 55 ac             	mov    -0x54(%rbp),%edx
    7b54:	48 8b 45 98          	mov    -0x68(%rbp),%rax
    7b58:	89 d6                	mov    %edx,%esi
    7b5a:	48 89 c7             	mov    %rax,%rdi
    7b5d:	e8 7f d8 ff ff       	call   53e1 <e_ast_get_node>
    7b62:	c7 00 07 00 00 00    	movl   $0x7,(%rax)
    7b68:	8b 45 ac             	mov    -0x54(%rbp),%eax
    7b6b:	e9 3a 02 00 00       	jmp    7daa <e_ast_nud+0x6f5>
    7b70:	8b 55 ac             	mov    -0x54(%rbp),%edx
    7b73:	48 8b 45 98          	mov    -0x68(%rbp),%rax
    7b77:	89 d6                	mov    %edx,%esi
    7b79:	48 89 c7             	mov    %rax,%rdi
    7b7c:	e8 60 d8 ff ff       	call   53e1 <e_ast_get_node>
    7b81:	c7 00 08 00 00 00    	movl   $0x8,(%rax)
    7b87:	48 8b 45 98          	mov    -0x68(%rbp),%rax
    7b8b:	48 89 c7             	mov    %rax,%rdi
    7b8e:	e8 aa d4 ff ff       	call   503d <e_ast_peek>
    7b93:	48 85 c0             	test   %rax,%rax
    7b96:	74 63                	je     7bfb <e_ast_nud+0x546>
    7b98:	48 8b 45 98          	mov    -0x68(%rbp),%rax
    7b9c:	48 89 c7             	mov    %rax,%rdi
    7b9f:	e8 99 d4 ff ff       	call   503d <e_ast_peek>
    7ba4:	8b 00                	mov    (%rax),%eax
    7ba6:	83 f8 01             	cmp    $0x1,%eax
    7ba9:	74 50                	je     7bfb <e_ast_nud+0x546>
    7bab:	48 8b 45 98          	mov    -0x68(%rbp),%rax
    7baf:	be 00 00 00 00       	mov    $0x0,%esi
    7bb4:	48 89 c7             	mov    %rax,%rdi
    7bb7:	e8 a7 e7 ff ff       	call   6363 <e_ast_expr>
    7bbc:	89 45 b4             	mov    %eax,-0x4c(%rbp)
    7bbf:	83 7d b4 00          	cmpl   $0x0,-0x4c(%rbp)
    7bc3:	79 08                	jns    7bcd <e_ast_nud+0x518>
    7bc5:	8b 45 b4             	mov    -0x4c(%rbp),%eax
    7bc8:	e9 dd 01 00 00       	jmp    7daa <e_ast_nud+0x6f5>
    7bcd:	8b 55 ac             	mov    -0x54(%rbp),%edx
    7bd0:	48 8b 45 98          	mov    -0x68(%rbp),%rax
    7bd4:	89 d6                	mov    %edx,%esi
    7bd6:	48 89 c7             	mov    %rax,%rdi
    7bd9:	e8 03 d8 ff ff       	call   53e1 <e_ast_get_node>
    7bde:	8b 55 b4             	mov    -0x4c(%rbp),%edx
    7be1:	89 50 08             	mov    %edx,0x8(%rax)
    7be4:	8b 55 ac             	mov    -0x54(%rbp),%edx
    7be7:	48 8b 45 98          	mov    -0x68(%rbp),%rax
    7beb:	89 d6                	mov    %edx,%esi
    7bed:	48 89 c7             	mov    %rax,%rdi
    7bf0:	e8 ec d7 ff ff       	call   53e1 <e_ast_get_node>
    7bf5:	c6 40 0c 01          	movb   $0x1,0xc(%rax)
    7bf9:	eb 2d                	jmp    7c28 <e_ast_nud+0x573>
    7bfb:	8b 55 ac             	mov    -0x54(%rbp),%edx
    7bfe:	48 8b 45 98          	mov    -0x68(%rbp),%rax
    7c02:	89 d6                	mov    %edx,%esi
    7c04:	48 89 c7             	mov    %rax,%rdi
    7c07:	e8 d5 d7 ff ff       	call   53e1 <e_ast_get_node>
    7c0c:	c7 40 08 ff ff ff ff 	movl   $0xffffffff,0x8(%rax)
    7c13:	8b 55 ac             	mov    -0x54(%rbp),%edx
    7c16:	48 8b 45 98          	mov    -0x68(%rbp),%rax
    7c1a:	89 d6                	mov    %edx,%esi
    7c1c:	48 89 c7             	mov    %rax,%rdi
    7c1f:	e8 bd d7 ff ff       	call   53e1 <e_ast_get_node>
    7c24:	c6 40 0c 00          	movb   $0x0,0xc(%rax)
    7c28:	8b 45 ac             	mov    -0x54(%rbp),%eax
    7c2b:	e9 7a 01 00 00       	jmp    7daa <e_ast_nud+0x6f5>
    7c30:	8b 55 ac             	mov    -0x54(%rbp),%edx
    7c33:	48 8b 45 98          	mov    -0x68(%rbp),%rax
    7c37:	89 d6                	mov    %edx,%esi
    7c39:	48 89 c7             	mov    %rax,%rdi
    7c3c:	e8 f9 e7 ff ff       	call   643a <parse_variable_decleration>
    7c41:	e9 64 01 00 00       	jmp    7daa <e_ast_nud+0x6f5>
    7c46:	8b 55 ac             	mov    -0x54(%rbp),%edx
    7c49:	48 8b 45 98          	mov    -0x68(%rbp),%rax
    7c4d:	89 d6                	mov    %edx,%esi
    7c4f:	48 89 c7             	mov    %rax,%rdi
    7c52:	e8 d1 e9 ff ff       	call   6628 <parse_if>
    7c57:	e9 4e 01 00 00       	jmp    7daa <e_ast_nud+0x6f5>
    7c5c:	8b 55 ac             	mov    -0x54(%rbp),%edx
    7c5f:	48 8b 45 98          	mov    -0x68(%rbp),%rax
    7c63:	89 d6                	mov    %edx,%esi
    7c65:	48 89 c7             	mov    %rax,%rdi
    7c68:	e8 bb ef ff ff       	call   6c28 <parse_while>
    7c6d:	e9 38 01 00 00       	jmp    7daa <e_ast_nud+0x6f5>
    7c72:	8b 55 ac             	mov    -0x54(%rbp),%edx
    7c75:	48 8b 45 98          	mov    -0x68(%rbp),%rax
    7c79:	89 d6                	mov    %edx,%esi
    7c7b:	48 89 c7             	mov    %rax,%rdi
    7c7e:	e8 b4 f1 ff ff       	call   6e37 <parse_for>
    7c83:	e9 22 01 00 00       	jmp    7daa <e_ast_nud+0x6f5>
    7c88:	8b 55 ac             	mov    -0x54(%rbp),%edx
    7c8b:	48 8b 45 98          	mov    -0x68(%rbp),%rax
    7c8f:	89 d6                	mov    %edx,%esi
    7c91:	48 89 c7             	mov    %rax,%rdi
    7c94:	e8 8c f4 ff ff       	call   7125 <parse_function>
    7c99:	e9 0c 01 00 00       	jmp    7daa <e_ast_nud+0x6f5>
    7c9e:	8b 45 ac             	mov    -0x54(%rbp),%eax
    7ca1:	e9 04 01 00 00       	jmp    7daa <e_ast_nud+0x6f5>
    7ca6:	c7 45 a0 00 00 00 00 	movl   $0x0,-0x60(%rbp)
    7cad:	c7 45 c0 00 00 00 00 	movl   $0x0,-0x40(%rbp)
    7cb4:	48 8b 45 90          	mov    -0x70(%rbp),%rax
    7cb8:	8b 00                	mov    (%rax),%eax
    7cba:	48 8d 55 c0          	lea    -0x40(%rbp),%rdx
    7cbe:	48 8d 4d a0          	lea    -0x60(%rbp),%rcx
    7cc2:	48 89 ce             	mov    %rcx,%rsi
    7cc5:	89 c7                	mov    %eax,%edi
    7cc7:	e8 ac d3 ff ff       	call   5078 <e_getbp>
    7ccc:	83 f0 01             	xor    $0x1,%eax
    7ccf:	84 c0                	test   %al,%al
    7cd1:	74 4f                	je     7d22 <e_ast_nud+0x66d>
    7cd3:	48 8b 45 90          	mov    -0x70(%rbp),%rax
    7cd7:	8b 00                	mov    (%rax),%eax
    7cd9:	89 c7                	mov    %eax,%edi
    7cdb:	e8 11 ce ff ff       	call   4af1 <e_tokentype_to_string>
    7ce0:	48 89 c1             	mov    %rax,%rcx
    7ce3:	48 8d 35 12 39 00 00 	lea    0x3912(%rip),%rsi        # b5fc <__PRETTY_FUNCTION__.0+0x4f8>
    7cea:	48 8b 45 90          	mov    -0x70(%rbp),%rax
    7cee:	48 8b 50 18          	mov    0x18(%rax),%rdx
    7cf2:	48 8b 40 10          	mov    0x10(%rax),%rax
    7cf6:	48 8d 3d 70 35 00 00 	lea    0x3570(%rip),%rdi        # b26d <__PRETTY_FUNCTION__.0+0x169>
    7cfd:	49 89 c9             	mov    %rcx,%r9
    7d00:	49 89 f0             	mov    %rsi,%r8
    7d03:	48 89 d1             	mov    %rdx,%rcx
    7d06:	48 89 c2             	mov    %rax,%rdx
    7d09:	be 99 02 00 00       	mov    $0x299,%esi
    7d0e:	b8 00 00 00 00       	mov    $0x0,%eax
    7d13:	e8 4f df ff ff       	call   5c67 <_asterror>
    7d18:	b8 ff ff ff ff       	mov    $0xffffffff,%eax
    7d1d:	e9 88 00 00 00       	jmp    7daa <e_ast_nud+0x6f5>
    7d22:	48 8b 45 90          	mov    -0x70(%rbp),%rax
    7d26:	8b 00                	mov    (%rax),%eax
    7d28:	89 c7                	mov    %eax,%edi
    7d2a:	e8 ab e0 ff ff       	call   5dda <conv_token_type_to_operator>
    7d2f:	89 45 b8             	mov    %eax,-0x48(%rbp)
    7d32:	8b 55 c0             	mov    -0x40(%rbp),%edx
    7d35:	48 8b 45 98          	mov    -0x68(%rbp),%rax
    7d39:	89 d6                	mov    %edx,%esi
    7d3b:	48 89 c7             	mov    %rax,%rdi
    7d3e:	e8 20 e6 ff ff       	call   6363 <e_ast_expr>
    7d43:	89 45 bc             	mov    %eax,-0x44(%rbp)
    7d46:	8b 55 ac             	mov    -0x54(%rbp),%edx
    7d49:	48 8b 45 98          	mov    -0x68(%rbp),%rax
    7d4d:	89 d6                	mov    %edx,%esi
    7d4f:	48 89 c7             	mov    %rax,%rdi
    7d52:	e8 8a d6 ff ff       	call   53e1 <e_ast_get_node>
    7d57:	c7 00 02 00 00 00    	movl   $0x2,(%rax)
    7d5d:	8b 55 ac             	mov    -0x54(%rbp),%edx
    7d60:	48 8b 45 98          	mov    -0x68(%rbp),%rax
    7d64:	89 d6                	mov    %edx,%esi
    7d66:	48 89 c7             	mov    %rax,%rdi
    7d69:	e8 73 d6 ff ff       	call   53e1 <e_ast_get_node>
    7d6e:	8b 55 b8             	mov    -0x48(%rbp),%edx
    7d71:	89 50 0c             	mov    %edx,0xc(%rax)
    7d74:	8b 55 ac             	mov    -0x54(%rbp),%edx
    7d77:	48 8b 45 98          	mov    -0x68(%rbp),%rax
    7d7b:	89 d6                	mov    %edx,%esi
    7d7d:	48 89 c7             	mov    %rax,%rdi
    7d80:	e8 5c d6 ff ff       	call   53e1 <e_ast_get_node>
    7d85:	48 8b 55 90          	mov    -0x70(%rbp),%rdx
    7d89:	0f b6 52 09          	movzbl 0x9(%rdx),%edx
    7d8d:	88 50 10             	mov    %dl,0x10(%rax)
    7d90:	8b 55 ac             	mov    -0x54(%rbp),%edx
    7d93:	48 8b 45 98          	mov    -0x68(%rbp),%rax
    7d97:	89 d6                	mov    %edx,%esi
    7d99:	48 89 c7             	mov    %rax,%rdi
    7d9c:	e8 40 d6 ff ff       	call   53e1 <e_ast_get_node>
    7da1:	8b 55 bc             	mov    -0x44(%rbp),%edx
    7da4:	89 50 08             	mov    %edx,0x8(%rax)
    7da7:	8b 45 ac             	mov    -0x54(%rbp),%eax
    7daa:	48 8b 55 e8          	mov    -0x18(%rbp),%rdx
    7dae:	64 48 2b 14 25 28 00 	sub    %fs:0x28,%rdx
    7db5:	00 00 
    7db7:	74 05                	je     7dbe <e_ast_nud+0x709>
    7db9:	e8 d2 92 ff ff       	call   1090 <__stack_chk_fail@plt>
    7dbe:	48 83 c4 60          	add    $0x60,%rsp
    7dc2:	5b                   	pop    %rbx
    7dc3:	41 5c                	pop    %r12
    7dc5:	5d                   	pop    %rbp
    7dc6:	c3                   	ret

0000000000007dc7 <e_ast_led>:
    7dc7:	55                   	push   %rbp
    7dc8:	48 89 e5             	mov    %rsp,%rbp
    7dcb:	48 83 ec 50          	sub    $0x50,%rsp
    7dcf:	48 89 7d c8          	mov    %rdi,-0x38(%rbp)
    7dd3:	48 89 75 c0          	mov    %rsi,-0x40(%rbp)
    7dd7:	89 55 bc             	mov    %edx,-0x44(%rbp)
    7dda:	89 4d b8             	mov    %ecx,-0x48(%rbp)
    7ddd:	64 48 8b 04 25 28 00 	mov    %fs:0x28,%rax
    7de4:	00 00 
    7de6:	48 89 45 f8          	mov    %rax,-0x8(%rbp)
    7dea:	31 c0                	xor    %eax,%eax
    7dec:	48 83 7d c0 00       	cmpq   $0x0,-0x40(%rbp)
    7df1:	74 0d                	je     7e00 <e_ast_led+0x39>
    7df3:	48 83 7d c8 00       	cmpq   $0x0,-0x38(%rbp)
    7df8:	74 06                	je     7e00 <e_ast_led+0x39>
    7dfa:	83 7d bc 00          	cmpl   $0x0,-0x44(%rbp)
    7dfe:	79 0a                	jns    7e0a <e_ast_led+0x43>
    7e00:	b8 ff ff ff ff       	mov    $0xffffffff,%eax
    7e05:	e9 13 03 00 00       	jmp    811d <e_ast_led+0x356>
    7e0a:	48 8b 45 c8          	mov    -0x38(%rbp),%rax
    7e0e:	48 89 c7             	mov    %rax,%rdi
    7e11:	e8 01 d5 ff ff       	call   5317 <e_ast_make_node>
    7e16:	89 45 e4             	mov    %eax,-0x1c(%rbp)
    7e19:	83 7d e4 00          	cmpl   $0x0,-0x1c(%rbp)
    7e1d:	79 08                	jns    7e27 <e_ast_led+0x60>
    7e1f:	8b 45 e4             	mov    -0x1c(%rbp),%eax
    7e22:	e9 f6 02 00 00       	jmp    811d <e_ast_led+0x356>
    7e27:	48 8b 45 c0          	mov    -0x40(%rbp),%rax
    7e2b:	8b 00                	mov    (%rax),%eax
    7e2d:	83 f8 25             	cmp    $0x25,%eax
    7e30:	74 20                	je     7e52 <e_ast_led+0x8b>
    7e32:	83 f8 25             	cmp    $0x25,%eax
    7e35:	0f 87 e5 01 00 00    	ja     8020 <e_ast_led+0x259>
    7e3b:	83 f8 1c             	cmp    $0x1c,%eax
    7e3e:	0f 84 40 01 00 00    	je     7f84 <e_ast_led+0x1bd>
    7e44:	83 f8 1d             	cmp    $0x1d,%eax
    7e47:	0f 84 85 01 00 00    	je     7fd2 <e_ast_led+0x20b>
    7e4d:	e9 ce 01 00 00       	jmp    8020 <e_ast_led+0x259>
    7e52:	8b 55 bc             	mov    -0x44(%rbp),%edx
    7e55:	48 8b 45 c8          	mov    -0x38(%rbp),%rax
    7e59:	89 d6                	mov    %edx,%esi
    7e5b:	48 89 c7             	mov    %rax,%rdi
    7e5e:	e8 7e d5 ff ff       	call   53e1 <e_ast_get_node>
    7e63:	8b 00                	mov    (%rax),%eax
    7e65:	83 f8 0e             	cmp    $0xe,%eax
    7e68:	75 61                	jne    7ecb <e_ast_led+0x104>
    7e6a:	8b 55 b8             	mov    -0x48(%rbp),%edx
    7e6d:	48 8b 45 c8          	mov    -0x38(%rbp),%rax
    7e71:	89 d6                	mov    %edx,%esi
    7e73:	48 89 c7             	mov    %rax,%rdi
    7e76:	e8 e8 e4 ff ff       	call   6363 <e_ast_expr>
    7e7b:	89 45 ec             	mov    %eax,-0x14(%rbp)
    7e7e:	8b 55 e4             	mov    -0x1c(%rbp),%edx
    7e81:	48 8b 45 c8          	mov    -0x38(%rbp),%rax
    7e85:	89 d6                	mov    %edx,%esi
    7e87:	48 89 c7             	mov    %rax,%rdi
    7e8a:	e8 52 d5 ff ff       	call   53e1 <e_ast_get_node>
    7e8f:	c7 00 0f 00 00 00    	movl   $0xf,(%rax)
    7e95:	8b 55 e4             	mov    -0x1c(%rbp),%edx
    7e98:	48 8b 45 c8          	mov    -0x38(%rbp),%rax
    7e9c:	89 d6                	mov    %edx,%esi
    7e9e:	48 89 c7             	mov    %rax,%rdi
    7ea1:	e8 3b d5 ff ff       	call   53e1 <e_ast_get_node>
    7ea6:	8b 55 bc             	mov    -0x44(%rbp),%edx
    7ea9:	89 50 08             	mov    %edx,0x8(%rax)
    7eac:	8b 55 e4             	mov    -0x1c(%rbp),%edx
    7eaf:	48 8b 45 c8          	mov    -0x38(%rbp),%rax
    7eb3:	89 d6                	mov    %edx,%esi
    7eb5:	48 89 c7             	mov    %rax,%rdi
    7eb8:	e8 24 d5 ff ff       	call   53e1 <e_ast_get_node>
    7ebd:	8b 55 ec             	mov    -0x14(%rbp),%edx
    7ec0:	89 50 0c             	mov    %edx,0xc(%rax)
    7ec3:	8b 45 e4             	mov    -0x1c(%rbp),%eax
    7ec6:	e9 52 02 00 00       	jmp    811d <e_ast_led+0x356>
    7ecb:	8b 55 b8             	mov    -0x48(%rbp),%edx
    7ece:	48 8b 45 c8          	mov    -0x38(%rbp),%rax
    7ed2:	89 d6                	mov    %edx,%esi
    7ed4:	48 89 c7             	mov    %rax,%rdi
    7ed7:	e8 87 e4 ff ff       	call   6363 <e_ast_expr>
    7edc:	89 45 e8             	mov    %eax,-0x18(%rbp)
    7edf:	83 7d e8 00          	cmpl   $0x0,-0x18(%rbp)
    7ee3:	79 3a                	jns    7f1f <e_ast_led+0x158>
    7ee5:	48 8b 45 c8          	mov    -0x38(%rbp),%rax
    7ee9:	48 89 c7             	mov    %rax,%rdi
    7eec:	e8 4c d1 ff ff       	call   503d <e_ast_peek>
    7ef1:	48 8d 0d 1b 37 00 00 	lea    0x371b(%rip),%rcx        # b613 <__PRETTY_FUNCTION__.0+0x50f>
    7ef8:	48 8b 50 18          	mov    0x18(%rax),%rdx
    7efc:	48 8b 40 10          	mov    0x10(%rax),%rax
    7f00:	48 8d 3d 66 33 00 00 	lea    0x3366(%rip),%rdi        # b26d <__PRETTY_FUNCTION__.0+0x169>
    7f07:	49 89 c8             	mov    %rcx,%r8
    7f0a:	48 89 d1             	mov    %rdx,%rcx
    7f0d:	48 89 c2             	mov    %rax,%rdx
    7f10:	be c8 02 00 00       	mov    $0x2c8,%esi
    7f15:	b8 00 00 00 00       	mov    $0x0,%eax
    7f1a:	e8 48 dd ff ff       	call   5c67 <_asterror>
    7f1f:	8b 55 e4             	mov    -0x1c(%rbp),%edx
    7f22:	48 8b 45 c8          	mov    -0x38(%rbp),%rax
    7f26:	89 d6                	mov    %edx,%esi
    7f28:	48 89 c7             	mov    %rax,%rdi
    7f2b:	e8 b1 d4 ff ff       	call   53e1 <e_ast_get_node>
    7f30:	c7 00 0d 00 00 00    	movl   $0xd,(%rax)
    7f36:	8b 55 e4             	mov    -0x1c(%rbp),%edx
    7f39:	48 8b 45 c8          	mov    -0x38(%rbp),%rax
    7f3d:	89 d6                	mov    %edx,%esi
    7f3f:	48 89 c7             	mov    %rax,%rdi
    7f42:	e8 9a d4 ff ff       	call   53e1 <e_ast_get_node>
    7f47:	c7 40 10 0d 00 00 00 	movl   $0xd,0x10(%rax)
    7f4e:	8b 55 e4             	mov    -0x1c(%rbp),%edx
    7f51:	48 8b 45 c8          	mov    -0x38(%rbp),%rax
    7f55:	89 d6                	mov    %edx,%esi
    7f57:	48 89 c7             	mov    %rax,%rdi
    7f5a:	e8 82 d4 ff ff       	call   53e1 <e_ast_get_node>
    7f5f:	8b 55 bc             	mov    -0x44(%rbp),%edx
    7f62:	89 50 08             	mov    %edx,0x8(%rax)
    7f65:	8b 55 e4             	mov    -0x1c(%rbp),%edx
    7f68:	48 8b 45 c8          	mov    -0x38(%rbp),%rax
    7f6c:	89 d6                	mov    %edx,%esi
    7f6e:	48 89 c7             	mov    %rax,%rdi
    7f71:	e8 6b d4 ff ff       	call   53e1 <e_ast_get_node>
    7f76:	8b 55 e8             	mov    -0x18(%rbp),%edx
    7f79:	89 50 0c             	mov    %edx,0xc(%rax)
    7f7c:	8b 45 e4             	mov    -0x1c(%rbp),%eax
    7f7f:	e9 99 01 00 00       	jmp    811d <e_ast_led+0x356>
    7f84:	8b 55 e4             	mov    -0x1c(%rbp),%edx
    7f87:	48 8b 45 c8          	mov    -0x38(%rbp),%rax
    7f8b:	89 d6                	mov    %edx,%esi
    7f8d:	48 89 c7             	mov    %rax,%rdi
    7f90:	e8 4c d4 ff ff       	call   53e1 <e_ast_get_node>
    7f95:	c7 00 02 00 00 00    	movl   $0x2,(%rax)
    7f9b:	8b 55 e4             	mov    -0x1c(%rbp),%edx
    7f9e:	48 8b 45 c8          	mov    -0x38(%rbp),%rax
    7fa2:	89 d6                	mov    %edx,%esi
    7fa4:	48 89 c7             	mov    %rax,%rdi
    7fa7:	e8 35 d4 ff ff       	call   53e1 <e_ast_get_node>
    7fac:	c7 40 0c 14 00 00 00 	movl   $0x14,0xc(%rax)
    7fb3:	8b 55 e4             	mov    -0x1c(%rbp),%edx
    7fb6:	48 8b 45 c8          	mov    -0x38(%rbp),%rax
    7fba:	89 d6                	mov    %edx,%esi
    7fbc:	48 89 c7             	mov    %rax,%rdi
    7fbf:	e8 1d d4 ff ff       	call   53e1 <e_ast_get_node>
    7fc4:	8b 55 bc             	mov    -0x44(%rbp),%edx
    7fc7:	89 50 08             	mov    %edx,0x8(%rax)
    7fca:	8b 45 e4             	mov    -0x1c(%rbp),%eax
    7fcd:	e9 4b 01 00 00       	jmp    811d <e_ast_led+0x356>
    7fd2:	8b 55 e4             	mov    -0x1c(%rbp),%edx
    7fd5:	48 8b 45 c8          	mov    -0x38(%rbp),%rax
    7fd9:	89 d6                	mov    %edx,%esi
    7fdb:	48 89 c7             	mov    %rax,%rdi
    7fde:	e8 fe d3 ff ff       	call   53e1 <e_ast_get_node>
    7fe3:	c7 00 02 00 00 00    	movl   $0x2,(%rax)
    7fe9:	8b 55 e4             	mov    -0x1c(%rbp),%edx
    7fec:	48 8b 45 c8          	mov    -0x38(%rbp),%rax
    7ff0:	89 d6                	mov    %edx,%esi
    7ff2:	48 89 c7             	mov    %rax,%rdi
    7ff5:	e8 e7 d3 ff ff       	call   53e1 <e_ast_get_node>
    7ffa:	c7 40 0c 13 00 00 00 	movl   $0x13,0xc(%rax)
    8001:	8b 55 e4             	mov    -0x1c(%rbp),%edx
    8004:	48 8b 45 c8          	mov    -0x38(%rbp),%rax
    8008:	89 d6                	mov    %edx,%esi
    800a:	48 89 c7             	mov    %rax,%rdi
    800d:	e8 cf d3 ff ff       	call   53e1 <e_ast_get_node>
    8012:	8b 55 bc             	mov    -0x44(%rbp),%edx
    8015:	89 50 08             	mov    %edx,0x8(%rax)
    8018:	8b 45 e4             	mov    -0x1c(%rbp),%eax
    801b:	e9 fd 00 00 00       	jmp    811d <e_ast_led+0x356>
    8020:	c7 45 dc 00 00 00 00 	movl   $0x0,-0x24(%rbp)
    8027:	c7 45 e0 00 00 00 00 	movl   $0x0,-0x20(%rbp)
    802e:	48 8b 45 c0          	mov    -0x40(%rbp),%rax
    8032:	8b 00                	mov    (%rax),%eax
    8034:	48 8d 55 e0          	lea    -0x20(%rbp),%rdx
    8038:	48 8d 4d dc          	lea    -0x24(%rbp),%rcx
    803c:	48 89 ce             	mov    %rcx,%rsi
    803f:	89 c7                	mov    %eax,%edi
    8041:	e8 32 d0 ff ff       	call   5078 <e_getbp>
    8046:	48 8b 45 c0          	mov    -0x40(%rbp),%rax
    804a:	8b 00                	mov    (%rax),%eax
    804c:	89 c7                	mov    %eax,%edi
    804e:	e8 87 dd ff ff       	call   5dda <conv_token_type_to_operator>
    8053:	89 45 f0             	mov    %eax,-0x10(%rbp)
    8056:	83 7d f0 ff          	cmpl   $0xffffffff,-0x10(%rbp)
    805a:	75 32                	jne    808e <e_ast_led+0x2c7>
    805c:	48 8d 0d cb 35 00 00 	lea    0x35cb(%rip),%rcx        # b62e <__PRETTY_FUNCTION__.0+0x52a>
    8063:	48 8b 45 c0          	mov    -0x40(%rbp),%rax
    8067:	48 8b 50 18          	mov    0x18(%rax),%rdx
    806b:	48 8b 40 10          	mov    0x10(%rax),%rax
    806f:	48 8d 3d f7 31 00 00 	lea    0x31f7(%rip),%rdi        # b26d <__PRETTY_FUNCTION__.0+0x169>
    8076:	49 89 c8             	mov    %rcx,%r8
    8079:	48 89 d1             	mov    %rdx,%rcx
    807c:	48 89 c2             	mov    %rax,%rdx
    807f:	be e5 02 00 00       	mov    $0x2e5,%esi
    8084:	b8 00 00 00 00       	mov    $0x0,%eax
    8089:	e8 d9 db ff ff       	call   5c67 <_asterror>
    808e:	8b 55 e0             	mov    -0x20(%rbp),%edx
    8091:	48 8b 45 c8          	mov    -0x38(%rbp),%rax
    8095:	89 d6                	mov    %edx,%esi
    8097:	48 89 c7             	mov    %rax,%rdi
    809a:	e8 c4 e2 ff ff       	call   6363 <e_ast_expr>
    809f:	89 45 f4             	mov    %eax,-0xc(%rbp)
    80a2:	8b 55 e4             	mov    -0x1c(%rbp),%edx
    80a5:	48 8b 45 c8          	mov    -0x38(%rbp),%rax
    80a9:	89 d6                	mov    %edx,%esi
    80ab:	48 89 c7             	mov    %rax,%rdi
    80ae:	e8 2e d3 ff ff       	call   53e1 <e_ast_get_node>
    80b3:	c7 00 01 00 00 00    	movl   $0x1,(%rax)
    80b9:	8b 55 e4             	mov    -0x1c(%rbp),%edx
    80bc:	48 8b 45 c8          	mov    -0x38(%rbp),%rax
    80c0:	89 d6                	mov    %edx,%esi
    80c2:	48 89 c7             	mov    %rax,%rdi
    80c5:	e8 17 d3 ff ff       	call   53e1 <e_ast_get_node>
    80ca:	8b 55 f0             	mov    -0x10(%rbp),%edx
    80cd:	89 50 10             	mov    %edx,0x10(%rax)
    80d0:	8b 55 e4             	mov    -0x1c(%rbp),%edx
    80d3:	48 8b 45 c8          	mov    -0x38(%rbp),%rax
    80d7:	89 d6                	mov    %edx,%esi
    80d9:	48 89 c7             	mov    %rax,%rdi
    80dc:	e8 00 d3 ff ff       	call   53e1 <e_ast_get_node>
    80e1:	8b 55 bc             	mov    -0x44(%rbp),%edx
    80e4:	89 50 08             	mov    %edx,0x8(%rax)
    80e7:	8b 55 e4             	mov    -0x1c(%rbp),%edx
    80ea:	48 8b 45 c8          	mov    -0x38(%rbp),%rax
    80ee:	89 d6                	mov    %edx,%esi
    80f0:	48 89 c7             	mov    %rax,%rdi
    80f3:	e8 e9 d2 ff ff       	call   53e1 <e_ast_get_node>
    80f8:	48 8b 55 c0          	mov    -0x40(%rbp),%rdx
    80fc:	0f b6 52 09          	movzbl 0x9(%rdx),%edx
    8100:	88 50 14             	mov    %dl,0x14(%rax)
    8103:	8b 55 e4             	mov    -0x1c(%rbp),%edx
    8106:	48 8b 45 c8          	mov    -0x38(%rbp),%rax
    810a:	89 d6                	mov    %edx,%esi
    810c:	48 89 c7             	mov    %rax,%rdi
    810f:	e8 cd d2 ff ff       	call   53e1 <e_ast_get_node>
    8114:	8b 55 f4             	mov    -0xc(%rbp),%edx
    8117:	89 50 0c             	mov    %edx,0xc(%rax)
    811a:	8b 45 e4             	mov    -0x1c(%rbp),%eax
    811d:	48 8b 55 f8          	mov    -0x8(%rbp),%rdx
    8121:	64 48 2b 14 25 28 00 	sub    %fs:0x28,%rdx
    8128:	00 00 
    812a:	74 05                	je     8131 <e_ast_led+0x36a>
    812c:	e8 5f 8f ff ff       	call   1090 <__stack_chk_fail@plt>
    8131:	c9                   	leave
    8132:	c3                   	ret

0000000000008133 <e_ast_parse>:
    8133:	55                   	push   %rbp
    8134:	48 89 e5             	mov    %rsp,%rbp
    8137:	48 83 ec 50          	sub    $0x50,%rsp
    813b:	48 89 7d b8          	mov    %rdi,-0x48(%rbp)
    813f:	48 89 75 b0          	mov    %rsi,-0x50(%rbp)
    8143:	48 83 7d b8 00       	cmpq   $0x0,-0x48(%rbp)
    8148:	75 0a                	jne    8154 <e_ast_parse+0x21>
    814a:	b8 ff ff ff ff       	mov    $0xffffffff,%eax
    814f:	e9 5c 02 00 00       	jmp    83b0 <e_ast_parse+0x27d>
    8154:	48 8b 45 b8          	mov    -0x48(%rbp),%rax
    8158:	48 89 c7             	mov    %rax,%rdi
    815b:	e8 b7 d1 ff ff       	call   5317 <e_ast_make_node>
    8160:	89 45 d4             	mov    %eax,-0x2c(%rbp)
    8163:	83 7d d4 00          	cmpl   $0x0,-0x2c(%rbp)
    8167:	79 0a                	jns    8173 <e_ast_parse+0x40>
    8169:	b8 ff ff ff ff       	mov    $0xffffffff,%eax
    816e:	e9 3d 02 00 00       	jmp    83b0 <e_ast_parse+0x27d>
    8173:	48 83 7d b0 00       	cmpq   $0x0,-0x50(%rbp)
    8178:	74 09                	je     8183 <e_ast_parse+0x50>
    817a:	48 8b 45 b0          	mov    -0x50(%rbp),%rax
    817e:	8b 55 d4             	mov    -0x2c(%rbp),%edx
    8181:	89 10                	mov    %edx,(%rax)
    8183:	8b 55 d4             	mov    -0x2c(%rbp),%edx
    8186:	48 8b 45 b8          	mov    -0x48(%rbp),%rax
    818a:	89 d6                	mov    %edx,%esi
    818c:	48 89 c7             	mov    %rax,%rdi
    818f:	e8 4d d2 ff ff       	call   53e1 <e_ast_get_node>
    8194:	c7 00 00 00 00 00    	movl   $0x0,(%rax)
    819a:	c7 45 cc 10 00 00 00 	movl   $0x10,-0x34(%rbp)
    81a1:	c7 45 d0 00 00 00 00 	movl   $0x0,-0x30(%rbp)
    81a8:	8b 45 cc             	mov    -0x34(%rbp),%eax
    81ab:	48 98                	cltq
    81ad:	48 c1 e0 02          	shl    $0x2,%rax
    81b1:	48 89 c7             	mov    %rax,%rdi
    81b4:	e8 87 8f ff ff       	call   1140 <malloc@plt>
    81b9:	48 89 45 e0          	mov    %rax,-0x20(%rbp)
    81bd:	48 83 7d e0 00       	cmpq   $0x0,-0x20(%rbp)
    81c2:	0f 85 8c 01 00 00    	jne    8354 <e_ast_parse+0x221>
    81c8:	b8 ff ff ff ff       	mov    $0xffffffff,%eax
    81cd:	e9 de 01 00 00       	jmp    83b0 <e_ast_parse+0x27d>
    81d2:	48 8b 45 b8          	mov    -0x48(%rbp),%rax
    81d6:	48 89 c7             	mov    %rax,%rdi
    81d9:	e8 5f ce ff ff       	call   503d <e_ast_peek>
    81de:	48 8b 50 18          	mov    0x18(%rax),%rdx
    81e2:	48 8b 40 10          	mov    0x10(%rax),%rax
    81e6:	48 89 45 f0          	mov    %rax,-0x10(%rbp)
    81ea:	48 89 55 f8          	mov    %rdx,-0x8(%rbp)
    81ee:	48 8b 45 b8          	mov    -0x48(%rbp),%rax
    81f2:	be 00 00 00 00       	mov    $0x0,%esi
    81f7:	48 89 c7             	mov    %rax,%rdi
    81fa:	e8 64 e1 ff ff       	call   6363 <e_ast_expr>
    81ff:	89 45 d8             	mov    %eax,-0x28(%rbp)
    8202:	83 7d d8 00          	cmpl   $0x0,-0x28(%rbp)
    8206:	79 38                	jns    8240 <e_ast_parse+0x10d>
    8208:	48 8d 0d 31 34 00 00 	lea    0x3431(%rip),%rcx        # b640 <__PRETTY_FUNCTION__.0+0x53c>
    820f:	48 8b 45 f0          	mov    -0x10(%rbp),%rax
    8213:	48 8b 55 f8          	mov    -0x8(%rbp),%rdx
    8217:	48 8d 3d 4f 30 00 00 	lea    0x304f(%rip),%rdi        # b26d <__PRETTY_FUNCTION__.0+0x169>
    821e:	49 89 c8             	mov    %rcx,%r8
    8221:	48 89 d1             	mov    %rdx,%rcx
    8224:	48 89 c2             	mov    %rax,%rdx
    8227:	be 0b 03 00 00       	mov    $0x30b,%esi
    822c:	b8 00 00 00 00       	mov    $0x0,%eax
    8231:	e8 31 da ff ff       	call   5c67 <_asterror>
    8236:	b8 ff ff ff ff       	mov    $0xffffffff,%eax
    823b:	e9 70 01 00 00       	jmp    83b0 <e_ast_parse+0x27d>
    8240:	8b 55 d8             	mov    -0x28(%rbp),%edx
    8243:	48 8b 45 b8          	mov    -0x48(%rbp),%rax
    8247:	89 d6                	mov    %edx,%esi
    8249:	48 89 c7             	mov    %rax,%rdi
    824c:	e8 90 d1 ff ff       	call   53e1 <e_ast_get_node>
    8251:	8b 00                	mov    (%rax),%eax
    8253:	89 c7                	mov    %eax,%edi
    8255:	e8 b5 d1 ff ff       	call   540f <e_ast_is_limiter_exempt>
    825a:	83 f0 01             	xor    $0x1,%eax
    825d:	84 c0                	test   %al,%al
    825f:	74 4d                	je     82ae <e_ast_parse+0x17b>
    8261:	48 8b 45 b8          	mov    -0x48(%rbp),%rax
    8265:	be 01 00 00 00       	mov    $0x1,%esi
    826a:	48 89 c7             	mov    %rax,%rdi
    826d:	e8 c9 e0 ff ff       	call   633b <e_ast_expect>
    8272:	85 c0                	test   %eax,%eax
    8274:	74 38                	je     82ae <e_ast_parse+0x17b>
    8276:	48 8d 0d db 33 00 00 	lea    0x33db(%rip),%rcx        # b658 <__PRETTY_FUNCTION__.0+0x554>
    827d:	48 8b 45 f0          	mov    -0x10(%rbp),%rax
    8281:	48 8b 55 f8          	mov    -0x8(%rbp),%rdx
    8285:	48 8d 3d e1 2f 00 00 	lea    0x2fe1(%rip),%rdi        # b26d <__PRETTY_FUNCTION__.0+0x169>
    828c:	49 89 c8             	mov    %rcx,%r8
    828f:	48 89 d1             	mov    %rdx,%rcx
    8292:	48 89 c2             	mov    %rax,%rdx
    8295:	be 10 03 00 00       	mov    $0x310,%esi
    829a:	b8 00 00 00 00       	mov    $0x0,%eax
    829f:	e8 c3 d9 ff ff       	call   5c67 <_asterror>
    82a4:	b8 ff ff ff ff       	mov    $0xffffffff,%eax
    82a9:	e9 02 01 00 00       	jmp    83b0 <e_ast_parse+0x27d>
    82ae:	8b 45 d0             	mov    -0x30(%rbp),%eax
    82b1:	3b 45 cc             	cmp    -0x34(%rbp),%eax
    82b4:	7c 7f                	jl     8335 <e_ast_parse+0x202>
    82b6:	8b 45 cc             	mov    -0x34(%rbp),%eax
    82b9:	01 c0                	add    %eax,%eax
    82bb:	ba 01 00 00 00       	mov    $0x1,%edx
    82c0:	85 c0                	test   %eax,%eax
    82c2:	0f 4e c2             	cmovle %edx,%eax
    82c5:	89 45 dc             	mov    %eax,-0x24(%rbp)
    82c8:	8b 45 dc             	mov    -0x24(%rbp),%eax
    82cb:	48 98                	cltq
    82cd:	48 8d 14 85 00 00 00 	lea    0x0(,%rax,4),%rdx
    82d4:	00 
    82d5:	48 8b 45 e0          	mov    -0x20(%rbp),%rax
    82d9:	48 89 d6             	mov    %rdx,%rsi
    82dc:	48 89 c7             	mov    %rax,%rdi
    82df:	e8 7c 8e ff ff       	call   1160 <realloc@plt>
    82e4:	48 89 45 e8          	mov    %rax,-0x18(%rbp)
    82e8:	48 83 7d e8 00       	cmpq   $0x0,-0x18(%rbp)
    82ed:	75 38                	jne    8327 <e_ast_parse+0x1f4>
    82ef:	48 8d 0d 8a 33 00 00 	lea    0x338a(%rip),%rcx        # b680 <__PRETTY_FUNCTION__.0+0x57c>
    82f6:	48 8b 45 f0          	mov    -0x10(%rbp),%rax
    82fa:	48 8b 55 f8          	mov    -0x8(%rbp),%rdx
    82fe:	48 8d 3d 68 2f 00 00 	lea    0x2f68(%rip),%rdi        # b26d <__PRETTY_FUNCTION__.0+0x169>
    8305:	49 89 c8             	mov    %rcx,%r8
    8308:	48 89 d1             	mov    %rdx,%rcx
    830b:	48 89 c2             	mov    %rax,%rdx
    830e:	be 19 03 00 00       	mov    $0x319,%esi
    8313:	b8 00 00 00 00       	mov    $0x0,%eax
    8318:	e8 4a d9 ff ff       	call   5c67 <_asterror>
    831d:	b8 ff ff ff ff       	mov    $0xffffffff,%eax
    8322:	e9 89 00 00 00       	jmp    83b0 <e_ast_parse+0x27d>
    8327:	48 8b 45 e8          	mov    -0x18(%rbp),%rax
    832b:	48 89 45 e0          	mov    %rax,-0x20(%rbp)
    832f:	8b 45 dc             	mov    -0x24(%rbp),%eax
    8332:	89 45 cc             	mov    %eax,-0x34(%rbp)
    8335:	8b 45 d0             	mov    -0x30(%rbp),%eax
    8338:	8d 50 01             	lea    0x1(%rax),%edx
    833b:	89 55 d0             	mov    %edx,-0x30(%rbp)
    833e:	48 98                	cltq
    8340:	48 8d 14 85 00 00 00 	lea    0x0(,%rax,4),%rdx
    8347:	00 
    8348:	48 8b 45 e0          	mov    -0x20(%rbp),%rax
    834c:	48 01 c2             	add    %rax,%rdx
    834f:	8b 45 d8             	mov    -0x28(%rbp),%eax
    8352:	89 02                	mov    %eax,(%rdx)
    8354:	48 8b 45 b8          	mov    -0x48(%rbp),%rax
    8358:	48 89 c7             	mov    %rax,%rdi
    835b:	e8 dd cc ff ff       	call   503d <e_ast_peek>
    8360:	48 85 c0             	test   %rax,%rax
    8363:	74 16                	je     837b <e_ast_parse+0x248>
    8365:	48 8b 45 b8          	mov    -0x48(%rbp),%rax
    8369:	48 89 c7             	mov    %rax,%rdi
    836c:	e8 cc cc ff ff       	call   503d <e_ast_peek>
    8371:	8b 00                	mov    (%rax),%eax
    8373:	85 c0                	test   %eax,%eax
    8375:	0f 85 57 fe ff ff    	jne    81d2 <e_ast_parse+0x9f>
    837b:	8b 55 d4             	mov    -0x2c(%rbp),%edx
    837e:	48 8b 45 b8          	mov    -0x48(%rbp),%rax
    8382:	89 d6                	mov    %edx,%esi
    8384:	48 89 c7             	mov    %rax,%rdi
    8387:	e8 55 d0 ff ff       	call   53e1 <e_ast_get_node>
    838c:	48 8b 55 e0          	mov    -0x20(%rbp),%rdx
    8390:	48 89 50 08          	mov    %rdx,0x8(%rax)
    8394:	8b 55 d4             	mov    -0x2c(%rbp),%edx
    8397:	48 8b 45 b8          	mov    -0x48(%rbp),%rax
    839b:	89 d6                	mov    %edx,%esi
    839d:	48 89 c7             	mov    %rax,%rdi
    83a0:	e8 3c d0 ff ff       	call   53e1 <e_ast_get_node>
    83a5:	8b 55 d0             	mov    -0x30(%rbp),%edx
    83a8:	89 50 10             	mov    %edx,0x10(%rax)
    83ab:	b8 00 00 00 00       	mov    $0x0,%eax
    83b0:	c9                   	leave
    83b1:	c3                   	ret

00000000000083b2 <e_ast_init>:
    83b2:	55                   	push   %rbp
    83b3:	48 89 e5             	mov    %rsp,%rbp
    83b6:	48 83 ec 50          	sub    $0x50,%rsp
    83ba:	48 89 7d c8          	mov    %rdi,-0x38(%rbp)
    83be:	89 75 c4             	mov    %esi,-0x3c(%rbp)
    83c1:	48 89 55 b8          	mov    %rdx,-0x48(%rbp)
    83c5:	48 83 7d b8 00       	cmpq   $0x0,-0x48(%rbp)
    83ca:	74 6b                	je     8437 <e_ast_init+0x85>
    83cc:	c7 45 dc 40 00 00 00 	movl   $0x40,-0x24(%rbp)
    83d3:	8b 45 dc             	mov    -0x24(%rbp),%eax
    83d6:	48 98                	cltq
    83d8:	48 c1 e0 06          	shl    $0x6,%rax
    83dc:	48 89 c7             	mov    %rax,%rdi
    83df:	e8 5c 8d ff ff       	call   1140 <malloc@plt>
    83e4:	48 89 c2             	mov    %rax,%rdx
    83e7:	48 8b 45 b8          	mov    -0x48(%rbp),%rax
    83eb:	48 89 10             	mov    %rdx,(%rax)
    83ee:	48 8b 45 b8          	mov    -0x48(%rbp),%rax
    83f2:	c7 40 08 00 00 00 00 	movl   $0x0,0x8(%rax)
    83f9:	48 8b 45 b8          	mov    -0x48(%rbp),%rax
    83fd:	8b 55 dc             	mov    -0x24(%rbp),%edx
    8400:	89 50 0c             	mov    %edx,0xc(%rax)
    8403:	48 8b 45 b8          	mov    -0x48(%rbp),%rax
    8407:	48 8b 55 c8          	mov    -0x38(%rbp),%rdx
    840b:	48 89 50 10          	mov    %rdx,0x10(%rax)
    840f:	48 8b 45 b8          	mov    -0x48(%rbp),%rax
    8413:	8b 55 c4             	mov    -0x3c(%rbp),%edx
    8416:	89 50 18             	mov    %edx,0x18(%rax)
    8419:	48 8b 45 b8          	mov    -0x48(%rbp),%rax
    841d:	c7 40 1c 00 00 00 00 	movl   $0x0,0x1c(%rax)
    8424:	48 8b 45 b8          	mov    -0x48(%rbp),%rax
    8428:	48 8b 00             	mov    (%rax),%rax
    842b:	48 85 c0             	test   %rax,%rax
    842e:	75 07                	jne    8437 <e_ast_init+0x85>
    8430:	b8 ff ff ff ff       	mov    $0xffffffff,%eax
    8435:	eb 05                	jmp    843c <e_ast_init+0x8a>
    8437:	b8 00 00 00 00       	mov    $0x0,%eax
    843c:	c9                   	leave
    843d:	c3                   	ret

000000000000843e <e_ast_free>:
    843e:	55                   	push   %rbp
    843f:	48 89 e5             	mov    %rsp,%rbp
    8442:	48 83 ec 10          	sub    $0x10,%rsp
    8446:	48 89 7d f8          	mov    %rdi,-0x8(%rbp)
    844a:	48 8b 45 f8          	mov    -0x8(%rbp),%rax
    844e:	48 8b 00             	mov    (%rax),%rax
    8451:	48 89 c7             	mov    %rax,%rdi
    8454:	e8 d7 8b ff ff       	call   1030 <free@plt>
    8459:	90                   	nop
    845a:	c9                   	leave
    845b:	c3                   	ret

000000000000845c <__advance>:
    845c:	55                   	push   %rbp
    845d:	48 89 e5             	mov    %rsp,%rbp
    8460:	48 89 7d f8          	mov    %rdi,-0x8(%rbp)
    8464:	48 89 75 f0          	mov    %rsi,-0x10(%rbp)
    8468:	48 89 55 e8          	mov    %rdx,-0x18(%rbp)
    846c:	48 8b 45 f8          	mov    -0x8(%rbp),%rax
    8470:	48 8b 00             	mov    (%rax),%rax
    8473:	0f b6 00             	movzbl (%rax),%eax
    8476:	3c 0a                	cmp    $0xa,%al
    8478:	75 1b                	jne    8495 <__advance+0x39>
    847a:	48 8b 45 f0          	mov    -0x10(%rbp),%rax
    847e:	8b 00                	mov    (%rax),%eax
    8480:	8d 50 01             	lea    0x1(%rax),%edx
    8483:	48 8b 45 f0          	mov    -0x10(%rbp),%rax
    8487:	89 10                	mov    %edx,(%rax)
    8489:	48 8b 45 e8          	mov    -0x18(%rbp),%rax
    848d:	c7 00 01 00 00 00    	movl   $0x1,(%rax)
    8493:	eb 0f                	jmp    84a4 <__advance+0x48>
    8495:	48 8b 45 e8          	mov    -0x18(%rbp),%rax
    8499:	8b 00                	mov    (%rax),%eax
    849b:	8d 50 01             	lea    0x1(%rax),%edx
    849e:	48 8b 45 e8          	mov    -0x18(%rbp),%rax
    84a2:	89 10                	mov    %edx,(%rax)
    84a4:	48 8b 45 f8          	mov    -0x8(%rbp),%rax
    84a8:	48 8b 00             	mov    (%rax),%rax
    84ab:	48 8d 50 01          	lea    0x1(%rax),%rdx
    84af:	48 8b 45 f8          	mov    -0x8(%rbp),%rax
    84b3:	48 89 10             	mov    %rdx,(%rax)
    84b6:	90                   	nop
    84b7:	5d                   	pop    %rbp
    84b8:	c3                   	ret

00000000000084b9 <parse_string>:
    84b9:	55                   	push   %rbp
    84ba:	48 89 e5             	mov    %rsp,%rbp
    84bd:	48 83 ec 30          	sub    $0x30,%rsp
    84c1:	48 89 7d d8          	mov    %rdi,-0x28(%rbp)
    84c5:	48 89 75 d0          	mov    %rsi,-0x30(%rbp)
    84c9:	48 8b 45 d8          	mov    -0x28(%rbp),%rax
    84cd:	48 89 c7             	mov    %rax,%rdi
    84d0:	e8 eb 8c ff ff       	call   11c0 <strdup@plt>
    84d5:	48 89 45 f8          	mov    %rax,-0x8(%rbp)
    84d9:	48 c7 45 e8 00 00 00 	movq   $0x0,-0x18(%rbp)
    84e0:	00 
    84e1:	48 c7 45 f0 00 00 00 	movq   $0x0,-0x10(%rbp)
    84e8:	00 
    84e9:	e9 2e 01 00 00       	jmp    861c <parse_string+0x163>
    84ee:	48 8b 55 d8          	mov    -0x28(%rbp),%rdx
    84f2:	48 8b 45 e8          	mov    -0x18(%rbp),%rax
    84f6:	48 01 d0             	add    %rdx,%rax
    84f9:	0f b6 00             	movzbl (%rax),%eax
    84fc:	3c 5c                	cmp    $0x5c,%al
    84fe:	74 31                	je     8531 <parse_string+0x78>
    8500:	48 8b 45 e8          	mov    -0x18(%rbp),%rax
    8504:	48 8d 50 01          	lea    0x1(%rax),%rdx
    8508:	48 89 55 e8          	mov    %rdx,-0x18(%rbp)
    850c:	48 8b 55 d8          	mov    -0x28(%rbp),%rdx
    8510:	48 8d 0c 10          	lea    (%rax,%rdx,1),%rcx
    8514:	48 8b 45 f0          	mov    -0x10(%rbp),%rax
    8518:	48 8d 50 01          	lea    0x1(%rax),%rdx
    851c:	48 89 55 f0          	mov    %rdx,-0x10(%rbp)
    8520:	48 8b 55 f8          	mov    -0x8(%rbp),%rdx
    8524:	48 01 c2             	add    %rax,%rdx
    8527:	0f b6 01             	movzbl (%rcx),%eax
    852a:	88 02                	mov    %al,(%rdx)
    852c:	e9 eb 00 00 00       	jmp    861c <parse_string+0x163>
    8531:	48 83 45 e8 01       	addq   $0x1,-0x18(%rbp)
    8536:	48 8b 45 e8          	mov    -0x18(%rbp),%rax
    853a:	48 3b 45 d0          	cmp    -0x30(%rbp),%rax
    853e:	0f 83 fa 00 00 00    	jae    863e <parse_string+0x185>
    8544:	48 8b 55 d8          	mov    -0x28(%rbp),%rdx
    8548:	48 8b 45 e8          	mov    -0x18(%rbp),%rax
    854c:	48 01 d0             	add    %rdx,%rax
    854f:	0f b6 00             	movzbl (%rax),%eax
    8552:	0f be c0             	movsbl %al,%eax
    8555:	83 f8 74             	cmp    $0x74,%eax
    8558:	74 71                	je     85cb <parse_string+0x112>
    855a:	83 f8 74             	cmp    $0x74,%eax
    855d:	0f 8f 88 00 00 00    	jg     85eb <parse_string+0x132>
    8563:	83 f8 6e             	cmp    $0x6e,%eax
    8566:	74 53                	je     85bb <parse_string+0x102>
    8568:	83 f8 6e             	cmp    $0x6e,%eax
    856b:	7f 7e                	jg     85eb <parse_string+0x132>
    856d:	83 f8 5c             	cmp    $0x5c,%eax
    8570:	74 39                	je     85ab <parse_string+0xf2>
    8572:	83 f8 5c             	cmp    $0x5c,%eax
    8575:	7f 74                	jg     85eb <parse_string+0x132>
    8577:	83 f8 30             	cmp    $0x30,%eax
    857a:	74 5f                	je     85db <parse_string+0x122>
    857c:	83 f8 30             	cmp    $0x30,%eax
    857f:	7f 6a                	jg     85eb <parse_string+0x132>
    8581:	83 f8 22             	cmp    $0x22,%eax
    8584:	74 15                	je     859b <parse_string+0xe2>
    8586:	83 f8 27             	cmp    $0x27,%eax
    8589:	75 60                	jne    85eb <parse_string+0x132>
    858b:	48 8b 55 f8          	mov    -0x8(%rbp),%rdx
    858f:	48 8b 45 f0          	mov    -0x10(%rbp),%rax
    8593:	48 01 d0             	add    %rdx,%rax
    8596:	c6 00 27             	movb   $0x27,(%rax)
    8599:	eb 77                	jmp    8612 <parse_string+0x159>
    859b:	48 8b 55 f8          	mov    -0x8(%rbp),%rdx
    859f:	48 8b 45 f0          	mov    -0x10(%rbp),%rax
    85a3:	48 01 d0             	add    %rdx,%rax
    85a6:	c6 00 22             	movb   $0x22,(%rax)
    85a9:	eb 67                	jmp    8612 <parse_string+0x159>
    85ab:	48 8b 55 f8          	mov    -0x8(%rbp),%rdx
    85af:	48 8b 45 f0          	mov    -0x10(%rbp),%rax
    85b3:	48 01 d0             	add    %rdx,%rax
    85b6:	c6 00 5c             	movb   $0x5c,(%rax)
    85b9:	eb 57                	jmp    8612 <parse_string+0x159>
    85bb:	48 8b 55 f8          	mov    -0x8(%rbp),%rdx
    85bf:	48 8b 45 f0          	mov    -0x10(%rbp),%rax
    85c3:	48 01 d0             	add    %rdx,%rax
    85c6:	c6 00 0a             	movb   $0xa,(%rax)
    85c9:	eb 47                	jmp    8612 <parse_string+0x159>
    85cb:	48 8b 55 f8          	mov    -0x8(%rbp),%rdx
    85cf:	48 8b 45 f0          	mov    -0x10(%rbp),%rax
    85d3:	48 01 d0             	add    %rdx,%rax
    85d6:	c6 00 09             	movb   $0x9,(%rax)
    85d9:	eb 37                	jmp    8612 <parse_string+0x159>
    85db:	48 8b 55 f8          	mov    -0x8(%rbp),%rdx
    85df:	48 8b 45 f0          	mov    -0x10(%rbp),%rax
    85e3:	48 01 d0             	add    %rdx,%rax
    85e6:	c6 00 00             	movb   $0x0,(%rax)
    85e9:	eb 27                	jmp    8612 <parse_string+0x159>
    85eb:	48 8b 05 2e 5b 00 00 	mov    0x5b2e(%rip),%rax        # e120 <stderr@GLIBC_2.2.5>
    85f2:	48 8d 3d af 30 00 00 	lea    0x30af(%rip),%rdi        # b6a8 <__PRETTY_FUNCTION__.0+0x5a4>
    85f9:	48 89 c1             	mov    %rax,%rcx
    85fc:	ba 1d 00 00 00       	mov    $0x1d,%edx
    8601:	be 01 00 00 00       	mov    $0x1,%esi
    8606:	e8 a5 8b ff ff       	call   11b0 <fwrite@plt>
    860b:	48 83 45 e8 01       	addq   $0x1,-0x18(%rbp)
    8610:	eb 0a                	jmp    861c <parse_string+0x163>
    8612:	48 83 45 e8 01       	addq   $0x1,-0x18(%rbp)
    8617:	48 83 45 f0 01       	addq   $0x1,-0x10(%rbp)
    861c:	48 8b 55 d8          	mov    -0x28(%rbp),%rdx
    8620:	48 8b 45 e8          	mov    -0x18(%rbp),%rax
    8624:	48 01 d0             	add    %rdx,%rax
    8627:	0f b6 00             	movzbl (%rax),%eax
    862a:	84 c0                	test   %al,%al
    862c:	74 11                	je     863f <parse_string+0x186>
    862e:	48 8b 45 e8          	mov    -0x18(%rbp),%rax
    8632:	48 3b 45 d0          	cmp    -0x30(%rbp),%rax
    8636:	0f 82 b2 fe ff ff    	jb     84ee <parse_string+0x35>
    863c:	eb 01                	jmp    863f <parse_string+0x186>
    863e:	90                   	nop
    863f:	48 8b 55 f8          	mov    -0x8(%rbp),%rdx
    8643:	48 8b 45 f0          	mov    -0x10(%rbp),%rax
    8647:	48 01 d0             	add    %rdx,%rax
    864a:	c6 00 00             	movb   $0x0,(%rax)
    864d:	48 8b 45 f8          	mov    -0x8(%rbp),%rax
    8651:	c9                   	leave
    8652:	c3                   	ret

0000000000008653 <tklist_init>:
    8653:	55                   	push   %rbp
    8654:	48 89 e5             	mov    %rsp,%rbp
    8657:	48 83 ec 10          	sub    $0x10,%rsp
    865b:	89 7d fc             	mov    %edi,-0x4(%rbp)
    865e:	48 89 75 f0          	mov    %rsi,-0x10(%rbp)
    8662:	83 7d fc 00          	cmpl   $0x0,-0x4(%rbp)
    8666:	7f 07                	jg     866f <tklist_init+0x1c>
    8668:	c7 45 fc 01 00 00 00 	movl   $0x1,-0x4(%rbp)
    866f:	48 8b 45 f0          	mov    -0x10(%rbp),%rax
    8673:	c7 40 08 00 00 00 00 	movl   $0x0,0x8(%rax)
    867a:	8b 45 fc             	mov    -0x4(%rbp),%eax
    867d:	48 98                	cltq
    867f:	be 20 00 00 00       	mov    $0x20,%esi
    8684:	48 89 c7             	mov    %rax,%rdi
    8687:	e8 74 8a ff ff       	call   1100 <calloc@plt>
    868c:	48 89 c2             	mov    %rax,%rdx
    868f:	48 8b 45 f0          	mov    -0x10(%rbp),%rax
    8693:	48 89 10             	mov    %rdx,(%rax)
    8696:	48 8b 45 f0          	mov    -0x10(%rbp),%rax
    869a:	48 8b 00             	mov    (%rax),%rax
    869d:	48 85 c0             	test   %rax,%rax
    86a0:	75 07                	jne    86a9 <tklist_init+0x56>
    86a2:	b8 ff ff ff ff       	mov    $0xffffffff,%eax
    86a7:	eb 0f                	jmp    86b8 <tklist_init+0x65>
    86a9:	48 8b 45 f0          	mov    -0x10(%rbp),%rax
    86ad:	8b 55 fc             	mov    -0x4(%rbp),%edx
    86b0:	89 50 0c             	mov    %edx,0xc(%rax)
    86b3:	b8 00 00 00 00       	mov    $0x0,%eax
    86b8:	c9                   	leave
    86b9:	c3                   	ret

00000000000086ba <tklist_resize>:
    86ba:	55                   	push   %rbp
    86bb:	48 89 e5             	mov    %rsp,%rbp
    86be:	48 83 ec 20          	sub    $0x20,%rsp
    86c2:	48 89 7d e8          	mov    %rdi,-0x18(%rbp)
    86c6:	89 75 e4             	mov    %esi,-0x1c(%rbp)
    86c9:	83 7d e4 00          	cmpl   $0x0,-0x1c(%rbp)
    86cd:	75 07                	jne    86d6 <tklist_resize+0x1c>
    86cf:	c7 45 e4 01 00 00 00 	movl   $0x1,-0x1c(%rbp)
    86d6:	8b 45 e4             	mov    -0x1c(%rbp),%eax
    86d9:	48 98                	cltq
    86db:	48 c1 e0 05          	shl    $0x5,%rax
    86df:	48 89 c7             	mov    %rax,%rdi
    86e2:	e8 59 8a ff ff       	call   1140 <malloc@plt>
    86e7:	48 89 45 f8          	mov    %rax,-0x8(%rbp)
    86eb:	48 83 7d f8 00       	cmpq   $0x0,-0x8(%rbp)
    86f0:	75 07                	jne    86f9 <tklist_resize+0x3f>
    86f2:	b8 ff ff ff ff       	mov    $0xffffffff,%eax
    86f7:	eb 4f                	jmp    8748 <tklist_resize+0x8e>
    86f9:	48 8b 45 e8          	mov    -0x18(%rbp),%rax
    86fd:	8b 40 08             	mov    0x8(%rax),%eax
    8700:	48 98                	cltq
    8702:	48 c1 e0 05          	shl    $0x5,%rax
    8706:	48 89 c2             	mov    %rax,%rdx
    8709:	48 8b 45 e8          	mov    -0x18(%rbp),%rax
    870d:	48 8b 08             	mov    (%rax),%rcx
    8710:	48 8b 45 f8          	mov    -0x8(%rbp),%rax
    8714:	48 89 ce             	mov    %rcx,%rsi
    8717:	48 89 c7             	mov    %rax,%rdi
    871a:	e8 01 8a ff ff       	call   1120 <memcpy@plt>
    871f:	48 8b 45 e8          	mov    -0x18(%rbp),%rax
    8723:	48 8b 00             	mov    (%rax),%rax
    8726:	48 89 c7             	mov    %rax,%rdi
    8729:	e8 02 89 ff ff       	call   1030 <free@plt>
    872e:	48 8b 45 e8          	mov    -0x18(%rbp),%rax
    8732:	48 8b 55 f8          	mov    -0x8(%rbp),%rdx
    8736:	48 89 10             	mov    %rdx,(%rax)
    8739:	48 8b 45 e8          	mov    -0x18(%rbp),%rax
    873d:	8b 55 e4             	mov    -0x1c(%rbp),%edx
    8740:	89 50 0c             	mov    %edx,0xc(%rax)
    8743:	b8 00 00 00 00       	mov    $0x0,%eax
    8748:	c9                   	leave
    8749:	c3                   	ret

000000000000874a <tklist_append>:
    874a:	55                   	push   %rbp
    874b:	48 89 e5             	mov    %rsp,%rbp
    874e:	48 83 ec 10          	sub    $0x10,%rsp
    8752:	48 89 7d f8          	mov    %rdi,-0x8(%rbp)
    8756:	48 89 75 f0          	mov    %rsi,-0x10(%rbp)
    875a:	48 8b 45 f8          	mov    -0x8(%rbp),%rax
    875e:	8b 40 08             	mov    0x8(%rax),%eax
    8761:	8d 50 01             	lea    0x1(%rax),%edx
    8764:	48 8b 45 f8          	mov    -0x8(%rbp),%rax
    8768:	8b 40 0c             	mov    0xc(%rax),%eax
    876b:	39 c2                	cmp    %eax,%edx
    876d:	7c 25                	jl     8794 <tklist_append+0x4a>
    876f:	48 8b 45 f8          	mov    -0x8(%rbp),%rax
    8773:	8b 40 0c             	mov    0xc(%rax),%eax
    8776:	01 c0                	add    %eax,%eax
    8778:	ba 01 00 00 00       	mov    $0x1,%edx
    877d:	85 c0                	test   %eax,%eax
    877f:	0f 4f d0             	cmovg  %eax,%edx
    8782:	48 8b 45 f8          	mov    -0x8(%rbp),%rax
    8786:	89 d6                	mov    %edx,%esi
    8788:	48 89 c7             	mov    %rax,%rdi
    878b:	e8 2a ff ff ff       	call   86ba <tklist_resize>
    8790:	85 c0                	test   %eax,%eax
    8792:	75 38                	jne    87cc <tklist_append+0x82>
    8794:	48 8b 45 f8          	mov    -0x8(%rbp),%rax
    8798:	48 8b 30             	mov    (%rax),%rsi
    879b:	48 8b 45 f8          	mov    -0x8(%rbp),%rax
    879f:	8b 40 08             	mov    0x8(%rax),%eax
    87a2:	8d 48 01             	lea    0x1(%rax),%ecx
    87a5:	48 8b 55 f8          	mov    -0x8(%rbp),%rdx
    87a9:	89 4a 08             	mov    %ecx,0x8(%rdx)
    87ac:	48 98                	cltq
    87ae:	48 c1 e0 05          	shl    $0x5,%rax
    87b2:	48 8d 0c 06          	lea    (%rsi,%rax,1),%rcx
    87b6:	48 8b 45 f0          	mov    -0x10(%rbp),%rax
    87ba:	ba 20 00 00 00       	mov    $0x20,%edx
    87bf:	48 89 c6             	mov    %rax,%rsi
    87c2:	48 89 cf             	mov    %rcx,%rdi
    87c5:	e8 56 89 ff ff       	call   1120 <memcpy@plt>
    87ca:	eb 01                	jmp    87cd <tklist_append+0x83>
    87cc:	90                   	nop
    87cd:	c9                   	leave
    87ce:	c3                   	ret

00000000000087cf <_lexerror>:
    87cf:	55                   	push   %rbp
    87d0:	48 89 e5             	mov    %rsp,%rbp
    87d3:	48 81 ec 00 01 00 00 	sub    $0x100,%rsp
    87da:	48 89 bd 28 ff ff ff 	mov    %rdi,-0xd8(%rbp)
    87e1:	89 b5 24 ff ff ff    	mov    %esi,-0xdc(%rbp)
    87e7:	89 95 20 ff ff ff    	mov    %edx,-0xe0(%rbp)
    87ed:	48 89 8d 18 ff ff ff 	mov    %rcx,-0xe8(%rbp)
    87f4:	44 89 85 14 ff ff ff 	mov    %r8d,-0xec(%rbp)
    87fb:	4c 89 8d 08 ff ff ff 	mov    %r9,-0xf8(%rbp)
    8802:	84 c0                	test   %al,%al
    8804:	74 20                	je     8826 <_lexerror+0x57>
    8806:	0f 29 45 80          	movaps %xmm0,-0x80(%rbp)
    880a:	0f 29 4d 90          	movaps %xmm1,-0x70(%rbp)
    880e:	0f 29 55 a0          	movaps %xmm2,-0x60(%rbp)
    8812:	0f 29 5d b0          	movaps %xmm3,-0x50(%rbp)
    8816:	0f 29 65 c0          	movaps %xmm4,-0x40(%rbp)
    881a:	0f 29 6d d0          	movaps %xmm5,-0x30(%rbp)
    881e:	0f 29 75 e0          	movaps %xmm6,-0x20(%rbp)
    8822:	0f 29 7d f0          	movaps %xmm7,-0x10(%rbp)
    8826:	64 48 8b 04 25 28 00 	mov    %fs:0x28,%rax
    882d:	00 00 
    882f:	48 89 85 48 ff ff ff 	mov    %rax,-0xb8(%rbp)
    8836:	31 c0                	xor    %eax,%eax
    8838:	c7 85 30 ff ff ff 30 	movl   $0x30,-0xd0(%rbp)
    883f:	00 00 00 
    8842:	c7 85 34 ff ff ff 30 	movl   $0x30,-0xcc(%rbp)
    8849:	00 00 00 
    884c:	48 8d 45 10          	lea    0x10(%rbp),%rax
    8850:	48 89 85 38 ff ff ff 	mov    %rax,-0xc8(%rbp)
    8857:	48 8d 85 50 ff ff ff 	lea    -0xb0(%rbp),%rax
    885e:	48 89 85 40 ff ff ff 	mov    %rax,-0xc0(%rbp)
    8865:	48 8b 05 b4 58 00 00 	mov    0x58b4(%rip),%rax        # e120 <stderr@GLIBC_2.2.5>
    886c:	8b 8d 14 ff ff ff    	mov    -0xec(%rbp),%ecx
    8872:	48 8b 95 18 ff ff ff 	mov    -0xe8(%rbp),%rdx
    8879:	48 8d 35 46 2e 00 00 	lea    0x2e46(%rip),%rsi        # b6c6 <__PRETTY_FUNCTION__.0+0x5c2>
    8880:	48 89 c7             	mov    %rax,%rdi
    8883:	b8 00 00 00 00       	mov    $0x0,%eax
    8888:	e8 83 88 ff ff       	call   1110 <fprintf@plt>
    888d:	48 8b 05 8c 58 00 00 	mov    0x588c(%rip),%rax        # e120 <stderr@GLIBC_2.2.5>
    8894:	8b bd 20 ff ff ff    	mov    -0xe0(%rbp),%edi
    889a:	8b 8d 24 ff ff ff    	mov    -0xdc(%rbp),%ecx
    88a0:	48 8b 95 28 ff ff ff 	mov    -0xd8(%rbp),%rdx
    88a7:	48 8d 35 21 2e 00 00 	lea    0x2e21(%rip),%rsi        # b6cf <__PRETTY_FUNCTION__.0+0x5cb>
    88ae:	41 89 f8             	mov    %edi,%r8d
    88b1:	48 89 c7             	mov    %rax,%rdi
    88b4:	b8 00 00 00 00       	mov    $0x0,%eax
    88b9:	e8 52 88 ff ff       	call   1110 <fprintf@plt>
    88be:	48 8b 05 5b 58 00 00 	mov    0x585b(%rip),%rax        # e120 <stderr@GLIBC_2.2.5>
    88c5:	48 8d 95 30 ff ff ff 	lea    -0xd0(%rbp),%rdx
    88cc:	48 8b 8d 08 ff ff ff 	mov    -0xf8(%rbp),%rcx
    88d3:	48 89 ce             	mov    %rcx,%rsi
    88d6:	48 89 c7             	mov    %rax,%rdi
    88d9:	e8 b2 88 ff ff       	call   1190 <vfprintf@plt>
    88de:	90                   	nop
    88df:	48 8b 85 48 ff ff ff 	mov    -0xb8(%rbp),%rax
    88e6:	64 48 2b 04 25 28 00 	sub    %fs:0x28,%rax
    88ed:	00 00 
    88ef:	74 05                	je     88f6 <_lexerror+0x127>
    88f1:	e8 9a 87 ff ff       	call   1090 <__stack_chk_fail@plt>
    88f6:	c9                   	leave
    88f7:	c3                   	ret

00000000000088f8 <_strndup>:
    88f8:	55                   	push   %rbp
    88f9:	48 89 e5             	mov    %rsp,%rbp
    88fc:	48 83 ec 30          	sub    $0x30,%rsp
    8900:	48 89 7d d8          	mov    %rdi,-0x28(%rbp)
    8904:	48 89 75 d0          	mov    %rsi,-0x30(%rbp)
    8908:	48 8b 45 d8          	mov    -0x28(%rbp),%rax
    890c:	48 89 c7             	mov    %rax,%rdi
    890f:	e8 6c 87 ff ff       	call   1080 <strlen@plt>
    8914:	48 89 45 e8          	mov    %rax,-0x18(%rbp)
    8918:	48 8b 55 d0          	mov    -0x30(%rbp),%rdx
    891c:	48 8b 45 e8          	mov    -0x18(%rbp),%rax
    8920:	48 39 c2             	cmp    %rax,%rdx
    8923:	48 0f 46 c2          	cmovbe %rdx,%rax
    8927:	48 89 45 f0          	mov    %rax,-0x10(%rbp)
    892b:	48 8b 45 f0          	mov    -0x10(%rbp),%rax
    892f:	48 83 c0 01          	add    $0x1,%rax
    8933:	48 89 c7             	mov    %rax,%rdi
    8936:	e8 05 88 ff ff       	call   1140 <malloc@plt>
    893b:	48 89 45 f8          	mov    %rax,-0x8(%rbp)
    893f:	48 8b 45 f0          	mov    -0x10(%rbp),%rax
    8943:	48 8d 50 01          	lea    0x1(%rax),%rdx
    8947:	48 8b 4d d8          	mov    -0x28(%rbp),%rcx
    894b:	48 8b 45 f8          	mov    -0x8(%rbp),%rax
    894f:	48 89 ce             	mov    %rcx,%rsi
    8952:	48 89 c7             	mov    %rax,%rdi
    8955:	e8 f6 87 ff ff       	call   1150 <strlcpy@plt>
    895a:	48 8b 45 f8          	mov    -0x8(%rbp),%rax
    895e:	c9                   	leave
    895f:	c3                   	ret

0000000000008960 <e_tokenize>:
    8960:	55                   	push   %rbp
    8961:	48 89 e5             	mov    %rsp,%rbp
    8964:	48 81 ec d0 00 00 00 	sub    $0xd0,%rsp
    896b:	48 89 bd 48 ff ff ff 	mov    %rdi,-0xb8(%rbp)
    8972:	48 89 b5 40 ff ff ff 	mov    %rsi,-0xc0(%rbp)
    8979:	48 89 95 38 ff ff ff 	mov    %rdx,-0xc8(%rbp)
    8980:	48 89 8d 30 ff ff ff 	mov    %rcx,-0xd0(%rbp)
    8987:	64 48 8b 04 25 28 00 	mov    %fs:0x28,%rax
    898e:	00 00 
    8990:	48 89 45 f8          	mov    %rax,-0x8(%rbp)
    8994:	31 c0                	xor    %eax,%eax
    8996:	c7 85 68 ff ff ff 00 	movl   $0x0,-0x98(%rbp)
    899d:	00 00 00 
    89a0:	48 8b 85 48 ff ff ff 	mov    -0xb8(%rbp),%rax
    89a7:	48 89 85 78 ff ff ff 	mov    %rax,-0x88(%rbp)
    89ae:	c7 85 5c ff ff ff 01 	movl   $0x1,-0xa4(%rbp)
    89b5:	00 00 00 
    89b8:	c7 85 60 ff ff ff 01 	movl   $0x1,-0xa0(%rbp)
    89bf:	00 00 00 
    89c2:	48 8d 45 b0          	lea    -0x50(%rbp),%rax
    89c6:	48 89 c6             	mov    %rax,%rsi
    89c9:	bf 80 00 00 00       	mov    $0x80,%edi
    89ce:	e8 80 fc ff ff       	call   8653 <tklist_init>
    89d3:	89 85 68 ff ff ff    	mov    %eax,-0x98(%rbp)
    89d9:	83 bd 68 ff ff ff 00 	cmpl   $0x0,-0x98(%rbp)
    89e0:	0f 84 62 11 00 00    	je     9b48 <e_tokenize+0x11e8>
    89e6:	8b 85 68 ff ff ff    	mov    -0x98(%rbp),%eax
    89ec:	e9 9f 11 00 00       	jmp    9b90 <e_tokenize+0x1230>
    89f1:	48 8d 95 60 ff ff ff 	lea    -0xa0(%rbp),%rdx
    89f8:	48 8d 8d 5c ff ff ff 	lea    -0xa4(%rbp),%rcx
    89ff:	48 8d 85 78 ff ff ff 	lea    -0x88(%rbp),%rax
    8a06:	48 89 ce             	mov    %rcx,%rsi
    8a09:	48 89 c7             	mov    %rax,%rdi
    8a0c:	e8 4b fa ff ff       	call   845c <__advance>
    8a11:	e8 ba 87 ff ff       	call   11d0 <__ctype_b_loc@plt>
    8a16:	48 8b 10             	mov    (%rax),%rdx
    8a19:	48 8b 85 78 ff ff ff 	mov    -0x88(%rbp),%rax
    8a20:	0f b6 00             	movzbl (%rax),%eax
    8a23:	48 0f be c0          	movsbq %al,%rax
    8a27:	48 01 c0             	add    %rax,%rax
    8a2a:	48 01 d0             	add    %rdx,%rax
    8a2d:	0f b7 00             	movzwl (%rax),%eax
    8a30:	0f b7 c0             	movzwl %ax,%eax
    8a33:	25 00 20 00 00       	and    $0x2000,%eax
    8a38:	85 c0                	test   %eax,%eax
    8a3a:	75 b5                	jne    89f1 <e_tokenize+0x91>
    8a3c:	48 8b 85 78 ff ff ff 	mov    -0x88(%rbp),%rax
    8a43:	0f b6 00             	movzbl (%rax),%eax
    8a46:	3c 0a                	cmp    $0xa,%al
    8a48:	74 a7                	je     89f1 <e_tokenize+0x91>
    8a4a:	48 8b 85 78 ff ff ff 	mov    -0x88(%rbp),%rax
    8a51:	0f b6 00             	movzbl (%rax),%eax
    8a54:	84 c0                	test   %al,%al
    8a56:	0f 84 99 00 00 00    	je     8af5 <e_tokenize+0x195>
    8a5c:	48 8b 85 78 ff ff ff 	mov    -0x88(%rbp),%rax
    8a63:	0f b6 00             	movzbl (%rax),%eax
    8a66:	3c 2f                	cmp    $0x2f,%al
    8a68:	0f 85 87 00 00 00    	jne    8af5 <e_tokenize+0x195>
    8a6e:	48 8b 85 78 ff ff ff 	mov    -0x88(%rbp),%rax
    8a75:	48 83 c0 01          	add    $0x1,%rax
    8a79:	0f b6 00             	movzbl (%rax),%eax
    8a7c:	3c 2f                	cmp    $0x2f,%al
    8a7e:	75 75                	jne    8af5 <e_tokenize+0x195>
    8a80:	48 8d 95 60 ff ff ff 	lea    -0xa0(%rbp),%rdx
    8a87:	48 8d 8d 5c ff ff ff 	lea    -0xa4(%rbp),%rcx
    8a8e:	48 8d 85 78 ff ff ff 	lea    -0x88(%rbp),%rax
    8a95:	48 89 ce             	mov    %rcx,%rsi
    8a98:	48 89 c7             	mov    %rax,%rdi
    8a9b:	e8 bc f9 ff ff       	call   845c <__advance>
    8aa0:	48 8d 95 60 ff ff ff 	lea    -0xa0(%rbp),%rdx
    8aa7:	48 8d 8d 5c ff ff ff 	lea    -0xa4(%rbp),%rcx
    8aae:	48 8d 85 78 ff ff ff 	lea    -0x88(%rbp),%rax
    8ab5:	48 89 ce             	mov    %rcx,%rsi
    8ab8:	48 89 c7             	mov    %rax,%rdi
    8abb:	e8 9c f9 ff ff       	call   845c <__advance>
    8ac0:	eb 20                	jmp    8ae2 <e_tokenize+0x182>
    8ac2:	48 8d 95 60 ff ff ff 	lea    -0xa0(%rbp),%rdx
    8ac9:	48 8d 8d 5c ff ff ff 	lea    -0xa4(%rbp),%rcx
    8ad0:	48 8d 85 78 ff ff ff 	lea    -0x88(%rbp),%rax
    8ad7:	48 89 ce             	mov    %rcx,%rsi
    8ada:	48 89 c7             	mov    %rax,%rdi
    8add:	e8 7a f9 ff ff       	call   845c <__advance>
    8ae2:	48 8b 85 78 ff ff ff 	mov    -0x88(%rbp),%rax
    8ae9:	0f b6 00             	movzbl (%rax),%eax
    8aec:	3c 0a                	cmp    $0xa,%al
    8aee:	75 d2                	jne    8ac2 <e_tokenize+0x162>
    8af0:	e9 53 10 00 00       	jmp    9b48 <e_tokenize+0x11e8>
    8af5:	48 8b 85 78 ff ff ff 	mov    -0x88(%rbp),%rax
    8afc:	0f b6 00             	movzbl (%rax),%eax
    8aff:	84 c0                	test   %al,%al
    8b01:	0f 84 55 10 00 00    	je     9b5c <e_tokenize+0x11fc>
    8b07:	48 8b 85 40 ff ff ff 	mov    -0xc0(%rbp),%rax
    8b0e:	48 89 c7             	mov    %rax,%rdi
    8b11:	e8 aa 86 ff ff       	call   11c0 <strdup@plt>
    8b16:	48 89 45 c0          	mov    %rax,-0x40(%rbp)
    8b1a:	8b 85 5c ff ff ff    	mov    -0xa4(%rbp),%eax
    8b20:	89 45 c8             	mov    %eax,-0x38(%rbp)
    8b23:	8b 85 60 ff ff ff    	mov    -0xa0(%rbp),%eax
    8b29:	89 45 cc             	mov    %eax,-0x34(%rbp)
    8b2c:	e8 9f 86 ff ff       	call   11d0 <__ctype_b_loc@plt>
    8b31:	48 8b 10             	mov    (%rax),%rdx
    8b34:	48 8b 85 78 ff ff ff 	mov    -0x88(%rbp),%rax
    8b3b:	0f b6 00             	movzbl (%rax),%eax
    8b3e:	48 0f be c0          	movsbq %al,%rax
    8b42:	48 01 c0             	add    %rax,%rax
    8b45:	48 01 d0             	add    %rdx,%rax
    8b48:	0f b7 00             	movzwl (%rax),%eax
    8b4b:	0f b7 c0             	movzwl %ax,%eax
    8b4e:	25 00 08 00 00       	and    $0x800,%eax
    8b53:	85 c0                	test   %eax,%eax
    8b55:	0f 84 86 01 00 00    	je     8ce1 <e_tokenize+0x381>
    8b5b:	48 c7 45 80 00 00 00 	movq   $0x0,-0x80(%rbp)
    8b62:	00 
    8b63:	48 c7 45 88 00 00 00 	movq   $0x0,-0x78(%rbp)
    8b6a:	00 
    8b6b:	48 8b 85 78 ff ff ff 	mov    -0x88(%rbp),%rax
    8b72:	48 8d 4d 80          	lea    -0x80(%rbp),%rcx
    8b76:	ba 0a 00 00 00       	mov    $0xa,%edx
    8b7b:	48 89 ce             	mov    %rcx,%rsi
    8b7e:	48 89 c7             	mov    %rax,%rdi
    8b81:	e8 aa 85 ff ff       	call   1130 <__isoc23_strtol@plt>
    8b86:	89 85 74 ff ff ff    	mov    %eax,-0x8c(%rbp)
    8b8c:	48 8b 85 78 ff ff ff 	mov    -0x88(%rbp),%rax
    8b93:	48 8d 55 88          	lea    -0x78(%rbp),%rdx
    8b97:	48 89 d6             	mov    %rdx,%rsi
    8b9a:	48 89 c7             	mov    %rax,%rdi
    8b9d:	e8 2e 85 ff ff       	call   10d0 <strtof@plt>
    8ba2:	f3 0f 5a c0          	cvtss2sd %xmm0,%xmm0
    8ba6:	f2 0f 11 45 a8       	movsd  %xmm0,-0x58(%rbp)
    8bab:	48 8b 45 88          	mov    -0x78(%rbp),%rax
    8baf:	48 8b 55 80          	mov    -0x80(%rbp),%rdx
    8bb3:	48 39 c2             	cmp    %rax,%rdx
    8bb6:	72 09                	jb     8bc1 <e_tokenize+0x261>
    8bb8:	48 8b 45 80          	mov    -0x80(%rbp),%rax
    8bbc:	48 85 c0             	test   %rax,%rax
    8bbf:	75 07                	jne    8bc8 <e_tokenize+0x268>
    8bc1:	b8 01 00 00 00       	mov    $0x1,%eax
    8bc6:	eb 05                	jmp    8bcd <e_tokenize+0x26d>
    8bc8:	b8 00 00 00 00       	mov    $0x0,%eax
    8bcd:	88 85 5b ff ff ff    	mov    %al,-0xa5(%rbp)
    8bd3:	80 a5 5b ff ff ff 01 	andb   $0x1,-0xa5(%rbp)
    8bda:	48 8b 45 80          	mov    -0x80(%rbp),%rax
    8bde:	48 85 c0             	test   %rax,%rax
    8be1:	75 4a                	jne    8c2d <e_tokenize+0x2cd>
    8be3:	48 8b 45 88          	mov    -0x78(%rbp),%rax
    8be7:	48 85 c0             	test   %rax,%rax
    8bea:	75 41                	jne    8c2d <e_tokenize+0x2cd>
    8bec:	8b 95 60 ff ff ff    	mov    -0xa0(%rbp),%edx
    8bf2:	8b b5 5c ff ff ff    	mov    -0xa4(%rbp),%esi
    8bf8:	48 8d 3d e1 2a 00 00 	lea    0x2ae1(%rip),%rdi        # b6e0 <__PRETTY_FUNCTION__.0+0x5dc>
    8bff:	48 8d 0d 05 2b 00 00 	lea    0x2b05(%rip),%rcx        # b70b <__PRETTY_FUNCTION__.0+0x607>
    8c06:	48 8b 85 40 ff ff ff 	mov    -0xc0(%rbp),%rax
    8c0d:	49 89 f9             	mov    %rdi,%r9
    8c10:	41 b8 b4 00 00 00    	mov    $0xb4,%r8d
    8c16:	48 89 c7             	mov    %rax,%rdi
    8c19:	b8 00 00 00 00       	mov    $0x0,%eax
    8c1e:	e8 ac fb ff ff       	call   87cf <_lexerror>
    8c23:	b8 ff ff ff ff       	mov    $0xffffffff,%eax
    8c28:	e9 63 0f 00 00       	jmp    9b90 <e_tokenize+0x1230>
    8c2d:	80 bd 5b ff ff ff 00 	cmpb   $0x0,-0xa5(%rbp)
    8c34:	74 36                	je     8c6c <e_tokenize+0x30c>
    8c36:	c7 45 d0 0b 00 00 00 	movl   $0xb,-0x30(%rbp)
    8c3d:	f2 0f 10 45 a8       	movsd  -0x58(%rbp),%xmm0
    8c42:	f2 0f 11 45 d8       	movsd  %xmm0,-0x28(%rbp)
    8c47:	48 8b 45 c0          	mov    -0x40(%rbp),%rax
    8c4b:	48 8b 55 c8          	mov    -0x38(%rbp),%rdx
    8c4f:	48 89 45 e0          	mov    %rax,-0x20(%rbp)
    8c53:	48 89 55 e8          	mov    %rdx,-0x18(%rbp)
    8c57:	48 8d 55 d0          	lea    -0x30(%rbp),%rdx
    8c5b:	48 8d 45 b0          	lea    -0x50(%rbp),%rax
    8c5f:	48 89 d6             	mov    %rdx,%rsi
    8c62:	48 89 c7             	mov    %rax,%rdi
    8c65:	e8 e0 fa ff ff       	call   874a <tklist_append>
    8c6a:	eb 55                	jmp    8cc1 <e_tokenize+0x361>
    8c6c:	c7 45 d0 08 00 00 00 	movl   $0x8,-0x30(%rbp)
    8c73:	8b 85 74 ff ff ff    	mov    -0x8c(%rbp),%eax
    8c79:	89 45 d8             	mov    %eax,-0x28(%rbp)
    8c7c:	48 8b 45 c0          	mov    -0x40(%rbp),%rax
    8c80:	48 8b 55 c8          	mov    -0x38(%rbp),%rdx
    8c84:	48 89 45 e0          	mov    %rax,-0x20(%rbp)
    8c88:	48 89 55 e8          	mov    %rdx,-0x18(%rbp)
    8c8c:	48 8d 55 d0          	lea    -0x30(%rbp),%rdx
    8c90:	48 8d 45 b0          	lea    -0x50(%rbp),%rax
    8c94:	48 89 d6             	mov    %rdx,%rsi
    8c97:	48 89 c7             	mov    %rax,%rdi
    8c9a:	e8 ab fa ff ff       	call   874a <tklist_append>
    8c9f:	eb 20                	jmp    8cc1 <e_tokenize+0x361>
    8ca1:	48 8d 95 60 ff ff ff 	lea    -0xa0(%rbp),%rdx
    8ca8:	48 8d 8d 5c ff ff ff 	lea    -0xa4(%rbp),%rcx
    8caf:	48 8d 85 78 ff ff ff 	lea    -0x88(%rbp),%rax
    8cb6:	48 89 ce             	mov    %rcx,%rsi
    8cb9:	48 89 c7             	mov    %rax,%rdi
    8cbc:	e8 9b f7 ff ff       	call   845c <__advance>
    8cc1:	48 8b 55 88          	mov    -0x78(%rbp),%rdx
    8cc5:	48 8b 45 80          	mov    -0x80(%rbp),%rax
    8cc9:	48 39 c2             	cmp    %rax,%rdx
    8ccc:	48 0f 43 c2          	cmovae %rdx,%rax
    8cd0:	48 8b 95 78 ff ff ff 	mov    -0x88(%rbp),%rdx
    8cd7:	48 39 c2             	cmp    %rax,%rdx
    8cda:	72 c5                	jb     8ca1 <e_tokenize+0x341>
    8cdc:	e9 67 0e 00 00       	jmp    9b48 <e_tokenize+0x11e8>
    8ce1:	e8 ea 84 ff ff       	call   11d0 <__ctype_b_loc@plt>
    8ce6:	48 8b 10             	mov    (%rax),%rdx
    8ce9:	48 8b 85 78 ff ff ff 	mov    -0x88(%rbp),%rax
    8cf0:	0f b6 00             	movzbl (%rax),%eax
    8cf3:	48 0f be c0          	movsbq %al,%rax
    8cf7:	48 01 c0             	add    %rax,%rax
    8cfa:	48 01 d0             	add    %rdx,%rax
    8cfd:	0f b7 00             	movzwl (%rax),%eax
    8d00:	0f b7 c0             	movzwl %ax,%eax
    8d03:	25 00 04 00 00       	and    $0x400,%eax
    8d08:	85 c0                	test   %eax,%eax
    8d0a:	75 12                	jne    8d1e <e_tokenize+0x3be>
    8d0c:	48 8b 85 78 ff ff ff 	mov    -0x88(%rbp),%rax
    8d13:	0f b6 00             	movzbl (%rax),%eax
    8d16:	3c 5f                	cmp    $0x5f,%al
    8d18:	0f 85 29 04 00 00    	jne    9147 <e_tokenize+0x7e7>
    8d1e:	48 8b 85 78 ff ff ff 	mov    -0x88(%rbp),%rax
    8d25:	48 89 45 a0          	mov    %rax,-0x60(%rbp)
    8d29:	eb 20                	jmp    8d4b <e_tokenize+0x3eb>
    8d2b:	48 8d 95 60 ff ff ff 	lea    -0xa0(%rbp),%rdx
    8d32:	48 8d 8d 5c ff ff ff 	lea    -0xa4(%rbp),%rcx
    8d39:	48 8d 85 78 ff ff ff 	lea    -0x88(%rbp),%rax
    8d40:	48 89 ce             	mov    %rcx,%rsi
    8d43:	48 89 c7             	mov    %rax,%rdi
    8d46:	e8 11 f7 ff ff       	call   845c <__advance>
    8d4b:	e8 80 84 ff ff       	call   11d0 <__ctype_b_loc@plt>
    8d50:	48 8b 10             	mov    (%rax),%rdx
    8d53:	48 8b 85 78 ff ff ff 	mov    -0x88(%rbp),%rax
    8d5a:	0f b6 00             	movzbl (%rax),%eax
    8d5d:	48 0f be c0          	movsbq %al,%rax
    8d61:	48 01 c0             	add    %rax,%rax
    8d64:	48 01 d0             	add    %rdx,%rax
    8d67:	0f b7 00             	movzwl (%rax),%eax
    8d6a:	0f b7 c0             	movzwl %ax,%eax
    8d6d:	25 00 04 00 00       	and    $0x400,%eax
    8d72:	85 c0                	test   %eax,%eax
    8d74:	75 b5                	jne    8d2b <e_tokenize+0x3cb>
    8d76:	e8 55 84 ff ff       	call   11d0 <__ctype_b_loc@plt>
    8d7b:	48 8b 10             	mov    (%rax),%rdx
    8d7e:	48 8b 85 78 ff ff ff 	mov    -0x88(%rbp),%rax
    8d85:	0f b6 00             	movzbl (%rax),%eax
    8d88:	48 0f be c0          	movsbq %al,%rax
    8d8c:	48 01 c0             	add    %rax,%rax
    8d8f:	48 01 d0             	add    %rdx,%rax
    8d92:	0f b7 00             	movzwl (%rax),%eax
    8d95:	0f b7 c0             	movzwl %ax,%eax
    8d98:	25 00 08 00 00       	and    $0x800,%eax
    8d9d:	85 c0                	test   %eax,%eax
    8d9f:	75 8a                	jne    8d2b <e_tokenize+0x3cb>
    8da1:	48 8b 85 78 ff ff ff 	mov    -0x88(%rbp),%rax
    8da8:	0f b6 00             	movzbl (%rax),%eax
    8dab:	3c 5f                	cmp    $0x5f,%al
    8dad:	0f 84 78 ff ff ff    	je     8d2b <e_tokenize+0x3cb>
    8db3:	48 8b 85 78 ff ff ff 	mov    -0x88(%rbp),%rax
    8dba:	48 2b 45 a0          	sub    -0x60(%rbp),%rax
    8dbe:	89 85 70 ff ff ff    	mov    %eax,-0x90(%rbp)
    8dc4:	66 0f ef c0          	pxor   %xmm0,%xmm0
    8dc8:	0f 29 45 d0          	movaps %xmm0,-0x30(%rbp)
    8dcc:	0f 29 45 e0          	movaps %xmm0,-0x20(%rbp)
    8dd0:	8b 85 70 ff ff ff    	mov    -0x90(%rbp),%eax
    8dd6:	48 63 d0             	movslq %eax,%rdx
    8dd9:	48 8d 0d 31 29 00 00 	lea    0x2931(%rip),%rcx        # b711 <__PRETTY_FUNCTION__.0+0x60d>
    8de0:	48 8b 45 a0          	mov    -0x60(%rbp),%rax
    8de4:	48 89 ce             	mov    %rcx,%rsi
    8de7:	48 89 c7             	mov    %rax,%rdi
    8dea:	e8 51 82 ff ff       	call   1040 <strncmp@plt>
    8def:	85 c0                	test   %eax,%eax
    8df1:	75 28                	jne    8e1b <e_tokenize+0x4bb>
    8df3:	66 0f ef c0          	pxor   %xmm0,%xmm0
    8df7:	0f 29 45 d0          	movaps %xmm0,-0x30(%rbp)
    8dfb:	0f 29 45 e0          	movaps %xmm0,-0x20(%rbp)
    8dff:	c7 45 d0 0d 00 00 00 	movl   $0xd,-0x30(%rbp)
    8e06:	48 8b 45 c0          	mov    -0x40(%rbp),%rax
    8e0a:	48 8b 55 c8          	mov    -0x38(%rbp),%rdx
    8e0e:	48 89 45 e0          	mov    %rax,-0x20(%rbp)
    8e12:	48 89 55 e8          	mov    %rdx,-0x18(%rbp)
    8e16:	e9 14 03 00 00       	jmp    912f <e_tokenize+0x7cf>
    8e1b:	83 bd 70 ff ff ff 03 	cmpl   $0x3,-0x90(%rbp)
    8e22:	75 4b                	jne    8e6f <e_tokenize+0x50f>
    8e24:	8b 85 70 ff ff ff    	mov    -0x90(%rbp),%eax
    8e2a:	48 63 d0             	movslq %eax,%rdx
    8e2d:	48 8d 0d e0 28 00 00 	lea    0x28e0(%rip),%rcx        # b714 <__PRETTY_FUNCTION__.0+0x610>
    8e34:	48 8b 45 a0          	mov    -0x60(%rbp),%rax
    8e38:	48 89 ce             	mov    %rcx,%rsi
    8e3b:	48 89 c7             	mov    %rax,%rdi
    8e3e:	e8 fd 81 ff ff       	call   1040 <strncmp@plt>
    8e43:	85 c0                	test   %eax,%eax
    8e45:	75 28                	jne    8e6f <e_tokenize+0x50f>
    8e47:	66 0f ef c0          	pxor   %xmm0,%xmm0
    8e4b:	0f 29 45 d0          	movaps %xmm0,-0x30(%rbp)
    8e4f:	0f 29 45 e0          	movaps %xmm0,-0x20(%rbp)
    8e53:	c7 45 d0 0e 00 00 00 	movl   $0xe,-0x30(%rbp)
    8e5a:	48 8b 45 c0          	mov    -0x40(%rbp),%rax
    8e5e:	48 8b 55 c8          	mov    -0x38(%rbp),%rdx
    8e62:	48 89 45 e0          	mov    %rax,-0x20(%rbp)
    8e66:	48 89 55 e8          	mov    %rdx,-0x18(%rbp)
    8e6a:	e9 c0 02 00 00       	jmp    912f <e_tokenize+0x7cf>
    8e6f:	83 bd 70 ff ff ff 04 	cmpl   $0x4,-0x90(%rbp)
    8e76:	75 43                	jne    8ebb <e_tokenize+0x55b>
    8e78:	8b 85 70 ff ff ff    	mov    -0x90(%rbp),%eax
    8e7e:	48 63 d0             	movslq %eax,%rdx
    8e81:	48 8d 0d 90 28 00 00 	lea    0x2890(%rip),%rcx        # b718 <__PRETTY_FUNCTION__.0+0x614>
    8e88:	48 8b 45 a0          	mov    -0x60(%rbp),%rax
    8e8c:	48 89 ce             	mov    %rcx,%rsi
    8e8f:	48 89 c7             	mov    %rax,%rdi
    8e92:	e8 a9 81 ff ff       	call   1040 <strncmp@plt>
    8e97:	85 c0                	test   %eax,%eax
    8e99:	75 20                	jne    8ebb <e_tokenize+0x55b>
    8e9b:	c7 45 d0 0a 00 00 00 	movl   $0xa,-0x30(%rbp)
    8ea2:	c6 45 d8 01          	movb   $0x1,-0x28(%rbp)
    8ea6:	48 8b 45 c0          	mov    -0x40(%rbp),%rax
    8eaa:	48 8b 55 c8          	mov    -0x38(%rbp),%rdx
    8eae:	48 89 45 e0          	mov    %rax,-0x20(%rbp)
    8eb2:	48 89 55 e8          	mov    %rdx,-0x18(%rbp)
    8eb6:	e9 74 02 00 00       	jmp    912f <e_tokenize+0x7cf>
    8ebb:	83 bd 70 ff ff ff 05 	cmpl   $0x5,-0x90(%rbp)
    8ec2:	75 43                	jne    8f07 <e_tokenize+0x5a7>
    8ec4:	8b 85 70 ff ff ff    	mov    -0x90(%rbp),%eax
    8eca:	48 63 d0             	movslq %eax,%rdx
    8ecd:	48 8d 0d 49 28 00 00 	lea    0x2849(%rip),%rcx        # b71d <__PRETTY_FUNCTION__.0+0x619>
    8ed4:	48 8b 45 a0          	mov    -0x60(%rbp),%rax
    8ed8:	48 89 ce             	mov    %rcx,%rsi
    8edb:	48 89 c7             	mov    %rax,%rdi
    8ede:	e8 5d 81 ff ff       	call   1040 <strncmp@plt>
    8ee3:	85 c0                	test   %eax,%eax
    8ee5:	75 20                	jne    8f07 <e_tokenize+0x5a7>
    8ee7:	c7 45 d0 0a 00 00 00 	movl   $0xa,-0x30(%rbp)
    8eee:	c6 45 d8 00          	movb   $0x0,-0x28(%rbp)
    8ef2:	48 8b 45 c0          	mov    -0x40(%rbp),%rax
    8ef6:	48 8b 55 c8          	mov    -0x38(%rbp),%rdx
    8efa:	48 89 45 e0          	mov    %rax,-0x20(%rbp)
    8efe:	48 89 55 e8          	mov    %rdx,-0x18(%rbp)
    8f02:	e9 28 02 00 00       	jmp    912f <e_tokenize+0x7cf>
    8f07:	83 bd 70 ff ff ff 02 	cmpl   $0x2,-0x90(%rbp)
    8f0e:	75 4b                	jne    8f5b <e_tokenize+0x5fb>
    8f10:	8b 85 70 ff ff ff    	mov    -0x90(%rbp),%eax
    8f16:	48 63 d0             	movslq %eax,%rdx
    8f19:	48 8d 0d 03 28 00 00 	lea    0x2803(%rip),%rcx        # b723 <__PRETTY_FUNCTION__.0+0x61f>
    8f20:	48 8b 45 a0          	mov    -0x60(%rbp),%rax
    8f24:	48 89 ce             	mov    %rcx,%rsi
    8f27:	48 89 c7             	mov    %rax,%rdi
    8f2a:	e8 11 81 ff ff       	call   1040 <strncmp@plt>
    8f2f:	85 c0                	test   %eax,%eax
    8f31:	75 28                	jne    8f5b <e_tokenize+0x5fb>
    8f33:	66 0f ef c0          	pxor   %xmm0,%xmm0
    8f37:	0f 29 45 d0          	movaps %xmm0,-0x30(%rbp)
    8f3b:	0f 29 45 e0          	movaps %xmm0,-0x20(%rbp)
    8f3f:	c7 45 d0 0f 00 00 00 	movl   $0xf,-0x30(%rbp)
    8f46:	48 8b 45 c0          	mov    -0x40(%rbp),%rax
    8f4a:	48 8b 55 c8          	mov    -0x38(%rbp),%rdx
    8f4e:	48 89 45 e0          	mov    %rax,-0x20(%rbp)
    8f52:	48 89 55 e8          	mov    %rdx,-0x18(%rbp)
    8f56:	e9 d4 01 00 00       	jmp    912f <e_tokenize+0x7cf>
    8f5b:	83 bd 70 ff ff ff 04 	cmpl   $0x4,-0x90(%rbp)
    8f62:	75 4b                	jne    8faf <e_tokenize+0x64f>
    8f64:	8b 85 70 ff ff ff    	mov    -0x90(%rbp),%eax
    8f6a:	48 63 d0             	movslq %eax,%rdx
    8f6d:	48 8d 0d b2 27 00 00 	lea    0x27b2(%rip),%rcx        # b726 <__PRETTY_FUNCTION__.0+0x622>
    8f74:	48 8b 45 a0          	mov    -0x60(%rbp),%rax
    8f78:	48 89 ce             	mov    %rcx,%rsi
    8f7b:	48 89 c7             	mov    %rax,%rdi
    8f7e:	e8 bd 80 ff ff       	call   1040 <strncmp@plt>
    8f83:	85 c0                	test   %eax,%eax
    8f85:	75 28                	jne    8faf <e_tokenize+0x64f>
    8f87:	66 0f ef c0          	pxor   %xmm0,%xmm0
    8f8b:	0f 29 45 d0          	movaps %xmm0,-0x30(%rbp)
    8f8f:	0f 29 45 e0          	movaps %xmm0,-0x20(%rbp)
    8f93:	c7 45 d0 10 00 00 00 	movl   $0x10,-0x30(%rbp)
    8f9a:	48 8b 45 c0          	mov    -0x40(%rbp),%rax
    8f9e:	48 8b 55 c8          	mov    -0x38(%rbp),%rdx
    8fa2:	48 89 45 e0          	mov    %rax,-0x20(%rbp)
    8fa6:	48 89 55 e8          	mov    %rdx,-0x18(%rbp)
    8faa:	e9 80 01 00 00       	jmp    912f <e_tokenize+0x7cf>
    8faf:	83 bd 70 ff ff ff 05 	cmpl   $0x5,-0x90(%rbp)
    8fb6:	75 4b                	jne    9003 <e_tokenize+0x6a3>
    8fb8:	8b 85 70 ff ff ff    	mov    -0x90(%rbp),%eax
    8fbe:	48 63 d0             	movslq %eax,%rdx
    8fc1:	48 8d 0d 63 27 00 00 	lea    0x2763(%rip),%rcx        # b72b <__PRETTY_FUNCTION__.0+0x627>
    8fc8:	48 8b 45 a0          	mov    -0x60(%rbp),%rax
    8fcc:	48 89 ce             	mov    %rcx,%rsi
    8fcf:	48 89 c7             	mov    %rax,%rdi
    8fd2:	e8 69 80 ff ff       	call   1040 <strncmp@plt>
    8fd7:	85 c0                	test   %eax,%eax
    8fd9:	75 28                	jne    9003 <e_tokenize+0x6a3>
    8fdb:	66 0f ef c0          	pxor   %xmm0,%xmm0
    8fdf:	0f 29 45 d0          	movaps %xmm0,-0x30(%rbp)
    8fe3:	0f 29 45 e0          	movaps %xmm0,-0x20(%rbp)
    8fe7:	c7 45 d0 11 00 00 00 	movl   $0x11,-0x30(%rbp)
    8fee:	48 8b 45 c0          	mov    -0x40(%rbp),%rax
    8ff2:	48 8b 55 c8          	mov    -0x38(%rbp),%rdx
    8ff6:	48 89 45 e0          	mov    %rax,-0x20(%rbp)
    8ffa:	48 89 55 e8          	mov    %rdx,-0x18(%rbp)
    8ffe:	e9 2c 01 00 00       	jmp    912f <e_tokenize+0x7cf>
    9003:	83 bd 70 ff ff ff 05 	cmpl   $0x5,-0x90(%rbp)
    900a:	75 4b                	jne    9057 <e_tokenize+0x6f7>
    900c:	8b 85 70 ff ff ff    	mov    -0x90(%rbp),%eax
    9012:	48 63 d0             	movslq %eax,%rdx
    9015:	48 8d 0d 15 27 00 00 	lea    0x2715(%rip),%rcx        # b731 <__PRETTY_FUNCTION__.0+0x62d>
    901c:	48 8b 45 a0          	mov    -0x60(%rbp),%rax
    9020:	48 89 ce             	mov    %rcx,%rsi
    9023:	48 89 c7             	mov    %rax,%rdi
    9026:	e8 15 80 ff ff       	call   1040 <strncmp@plt>
    902b:	85 c0                	test   %eax,%eax
    902d:	75 28                	jne    9057 <e_tokenize+0x6f7>
    902f:	66 0f ef c0          	pxor   %xmm0,%xmm0
    9033:	0f 29 45 d0          	movaps %xmm0,-0x30(%rbp)
    9037:	0f 29 45 e0          	movaps %xmm0,-0x20(%rbp)
    903b:	c7 45 d0 13 00 00 00 	movl   $0x13,-0x30(%rbp)
    9042:	48 8b 45 c0          	mov    -0x40(%rbp),%rax
    9046:	48 8b 55 c8          	mov    -0x38(%rbp),%rdx
    904a:	48 89 45 e0          	mov    %rax,-0x20(%rbp)
    904e:	48 89 55 e8          	mov    %rdx,-0x18(%rbp)
    9052:	e9 d8 00 00 00       	jmp    912f <e_tokenize+0x7cf>
    9057:	83 bd 70 ff ff ff 08 	cmpl   $0x8,-0x90(%rbp)
    905e:	75 4b                	jne    90ab <e_tokenize+0x74b>
    9060:	8b 85 70 ff ff ff    	mov    -0x90(%rbp),%eax
    9066:	48 63 d0             	movslq %eax,%rdx
    9069:	48 8d 0d c7 26 00 00 	lea    0x26c7(%rip),%rcx        # b737 <__PRETTY_FUNCTION__.0+0x633>
    9070:	48 8b 45 a0          	mov    -0x60(%rbp),%rax
    9074:	48 89 ce             	mov    %rcx,%rsi
    9077:	48 89 c7             	mov    %rax,%rdi
    907a:	e8 c1 7f ff ff       	call   1040 <strncmp@plt>
    907f:	85 c0                	test   %eax,%eax
    9081:	75 28                	jne    90ab <e_tokenize+0x74b>
    9083:	66 0f ef c0          	pxor   %xmm0,%xmm0
    9087:	0f 29 45 d0          	movaps %xmm0,-0x30(%rbp)
    908b:	0f 29 45 e0          	movaps %xmm0,-0x20(%rbp)
    908f:	c7 45 d0 14 00 00 00 	movl   $0x14,-0x30(%rbp)
    9096:	48 8b 45 c0          	mov    -0x40(%rbp),%rax
    909a:	48 8b 55 c8          	mov    -0x38(%rbp),%rdx
    909e:	48 89 45 e0          	mov    %rax,-0x20(%rbp)
    90a2:	48 89 55 e8          	mov    %rdx,-0x18(%rbp)
    90a6:	e9 84 00 00 00       	jmp    912f <e_tokenize+0x7cf>
    90ab:	83 bd 70 ff ff ff 06 	cmpl   $0x6,-0x90(%rbp)
    90b2:	75 48                	jne    90fc <e_tokenize+0x79c>
    90b4:	8b 85 70 ff ff ff    	mov    -0x90(%rbp),%eax
    90ba:	48 63 d0             	movslq %eax,%rdx
    90bd:	48 8d 0d 7c 26 00 00 	lea    0x267c(%rip),%rcx        # b740 <__PRETTY_FUNCTION__.0+0x63c>
    90c4:	48 8b 45 a0          	mov    -0x60(%rbp),%rax
    90c8:	48 89 ce             	mov    %rcx,%rsi
    90cb:	48 89 c7             	mov    %rax,%rdi
    90ce:	e8 6d 7f ff ff       	call   1040 <strncmp@plt>
    90d3:	85 c0                	test   %eax,%eax
    90d5:	75 25                	jne    90fc <e_tokenize+0x79c>
    90d7:	66 0f ef c0          	pxor   %xmm0,%xmm0
    90db:	0f 29 45 d0          	movaps %xmm0,-0x30(%rbp)
    90df:	0f 29 45 e0          	movaps %xmm0,-0x20(%rbp)
    90e3:	c7 45 d0 15 00 00 00 	movl   $0x15,-0x30(%rbp)
    90ea:	48 8b 45 c0          	mov    -0x40(%rbp),%rax
    90ee:	48 8b 55 c8          	mov    -0x38(%rbp),%rdx
    90f2:	48 89 45 e0          	mov    %rax,-0x20(%rbp)
    90f6:	48 89 55 e8          	mov    %rdx,-0x18(%rbp)
    90fa:	eb 33                	jmp    912f <e_tokenize+0x7cf>
    90fc:	8b 85 70 ff ff ff    	mov    -0x90(%rbp),%eax
    9102:	48 63 d0             	movslq %eax,%rdx
    9105:	48 8b 45 a0          	mov    -0x60(%rbp),%rax
    9109:	48 89 d6             	mov    %rdx,%rsi
    910c:	48 89 c7             	mov    %rax,%rdi
    910f:	e8 e4 f7 ff ff       	call   88f8 <_strndup>
    9114:	c7 45 d0 2c 00 00 00 	movl   $0x2c,-0x30(%rbp)
    911b:	48 89 45 d8          	mov    %rax,-0x28(%rbp)
    911f:	48 8b 45 c0          	mov    -0x40(%rbp),%rax
    9123:	48 8b 55 c8          	mov    -0x38(%rbp),%rdx
    9127:	48 89 45 e0          	mov    %rax,-0x20(%rbp)
    912b:	48 89 55 e8          	mov    %rdx,-0x18(%rbp)
    912f:	48 8d 55 d0          	lea    -0x30(%rbp),%rdx
    9133:	48 8d 45 b0          	lea    -0x50(%rbp),%rax
    9137:	48 89 d6             	mov    %rdx,%rsi
    913a:	48 89 c7             	mov    %rax,%rdi
    913d:	e8 08 f6 ff ff       	call   874a <tklist_append>
    9142:	e9 01 0a 00 00       	jmp    9b48 <e_tokenize+0x11e8>
    9147:	48 8b 85 78 ff ff ff 	mov    -0x88(%rbp),%rax
    914e:	0f b6 00             	movzbl (%rax),%eax
    9151:	3c 22                	cmp    $0x22,%al
    9153:	0f 85 3c 01 00 00    	jne    9295 <e_tokenize+0x935>
    9159:	48 8d 95 60 ff ff ff 	lea    -0xa0(%rbp),%rdx
    9160:	48 8d 8d 5c ff ff ff 	lea    -0xa4(%rbp),%rcx
    9167:	48 8d 85 78 ff ff ff 	lea    -0x88(%rbp),%rax
    916e:	48 89 ce             	mov    %rcx,%rsi
    9171:	48 89 c7             	mov    %rax,%rdi
    9174:	e8 e3 f2 ff ff       	call   845c <__advance>
    9179:	48 8b 85 78 ff ff ff 	mov    -0x88(%rbp),%rax
    9180:	48 89 45 90          	mov    %rax,-0x70(%rbp)
    9184:	eb 20                	jmp    91a6 <e_tokenize+0x846>
    9186:	48 8d 95 60 ff ff ff 	lea    -0xa0(%rbp),%rdx
    918d:	48 8d 8d 5c ff ff ff 	lea    -0xa4(%rbp),%rcx
    9194:	48 8d 85 78 ff ff ff 	lea    -0x88(%rbp),%rax
    919b:	48 89 ce             	mov    %rcx,%rsi
    919e:	48 89 c7             	mov    %rax,%rdi
    91a1:	e8 b6 f2 ff ff       	call   845c <__advance>
    91a6:	48 8b 85 78 ff ff ff 	mov    -0x88(%rbp),%rax
    91ad:	0f b6 00             	movzbl (%rax),%eax
    91b0:	84 c0                	test   %al,%al
    91b2:	74 0e                	je     91c2 <e_tokenize+0x862>
    91b4:	48 8b 85 78 ff ff ff 	mov    -0x88(%rbp),%rax
    91bb:	0f b6 00             	movzbl (%rax),%eax
    91be:	3c 22                	cmp    $0x22,%al
    91c0:	75 c4                	jne    9186 <e_tokenize+0x826>
    91c2:	48 8b 85 78 ff ff ff 	mov    -0x88(%rbp),%rax
    91c9:	0f b6 00             	movzbl (%rax),%eax
    91cc:	84 c0                	test   %al,%al
    91ce:	75 41                	jne    9211 <e_tokenize+0x8b1>
    91d0:	8b 95 60 ff ff ff    	mov    -0xa0(%rbp),%edx
    91d6:	8b b5 5c ff ff ff    	mov    -0xa4(%rbp),%esi
    91dc:	48 8d 3d 64 25 00 00 	lea    0x2564(%rip),%rdi        # b747 <__PRETTY_FUNCTION__.0+0x643>
    91e3:	48 8d 0d 21 25 00 00 	lea    0x2521(%rip),%rcx        # b70b <__PRETTY_FUNCTION__.0+0x607>
    91ea:	48 8b 85 40 ff ff ff 	mov    -0xc0(%rbp),%rax
    91f1:	49 89 f9             	mov    %rdi,%r9
    91f4:	41 b8 e9 00 00 00    	mov    $0xe9,%r8d
    91fa:	48 89 c7             	mov    %rax,%rdi
    91fd:	b8 00 00 00 00       	mov    $0x0,%eax
    9202:	e8 c8 f5 ff ff       	call   87cf <_lexerror>
    9207:	b8 ff ff ff ff       	mov    $0xffffffff,%eax
    920c:	e9 7f 09 00 00       	jmp    9b90 <e_tokenize+0x1230>
    9211:	48 8b 85 78 ff ff ff 	mov    -0x88(%rbp),%rax
    9218:	48 2b 45 90          	sub    -0x70(%rbp),%rax
    921c:	89 85 6c ff ff ff    	mov    %eax,-0x94(%rbp)
    9222:	8b 85 6c ff ff ff    	mov    -0x94(%rbp),%eax
    9228:	48 63 d0             	movslq %eax,%rdx
    922b:	48 8b 45 90          	mov    -0x70(%rbp),%rax
    922f:	48 89 d6             	mov    %rdx,%rsi
    9232:	48 89 c7             	mov    %rax,%rdi
    9235:	e8 7f f2 ff ff       	call   84b9 <parse_string>
    923a:	48 89 45 98          	mov    %rax,-0x68(%rbp)
    923e:	c7 45 d0 0c 00 00 00 	movl   $0xc,-0x30(%rbp)
    9245:	48 8b 45 98          	mov    -0x68(%rbp),%rax
    9249:	48 89 45 d8          	mov    %rax,-0x28(%rbp)
    924d:	48 8b 45 c0          	mov    -0x40(%rbp),%rax
    9251:	48 8b 55 c8          	mov    -0x38(%rbp),%rdx
    9255:	48 89 45 e0          	mov    %rax,-0x20(%rbp)
    9259:	48 89 55 e8          	mov    %rdx,-0x18(%rbp)
    925d:	48 8d 55 d0          	lea    -0x30(%rbp),%rdx
    9261:	48 8d 45 b0          	lea    -0x50(%rbp),%rax
    9265:	48 89 d6             	mov    %rdx,%rsi
    9268:	48 89 c7             	mov    %rax,%rdi
    926b:	e8 da f4 ff ff       	call   874a <tklist_append>
    9270:	48 8d 95 60 ff ff ff 	lea    -0xa0(%rbp),%rdx
    9277:	48 8d 8d 5c ff ff ff 	lea    -0xa4(%rbp),%rcx
    927e:	48 8d 85 78 ff ff ff 	lea    -0x88(%rbp),%rax
    9285:	48 89 ce             	mov    %rcx,%rsi
    9288:	48 89 c7             	mov    %rax,%rdi
    928b:	e8 cc f1 ff ff       	call   845c <__advance>
    9290:	e9 b3 08 00 00       	jmp    9b48 <e_tokenize+0x11e8>
    9295:	48 8b 85 78 ff ff ff 	mov    -0x88(%rbp),%rax
    929c:	0f b6 00             	movzbl (%rax),%eax
    929f:	3c 27                	cmp    $0x27,%al
    92a1:	0f 85 9e 01 00 00    	jne    9445 <e_tokenize+0xae5>
    92a7:	48 8d 95 60 ff ff ff 	lea    -0xa0(%rbp),%rdx
    92ae:	48 8d 8d 5c ff ff ff 	lea    -0xa4(%rbp),%rcx
    92b5:	48 8d 85 78 ff ff ff 	lea    -0x88(%rbp),%rax
    92bc:	48 89 ce             	mov    %rcx,%rsi
    92bf:	48 89 c7             	mov    %rax,%rdi
    92c2:	e8 95 f1 ff ff       	call   845c <__advance>
    92c7:	c6 85 58 ff ff ff ff 	movb   $0xff,-0xa8(%rbp)
    92ce:	48 8b 85 78 ff ff ff 	mov    -0x88(%rbp),%rax
    92d5:	0f b6 00             	movzbl (%rax),%eax
    92d8:	3c 5c                	cmp    $0x5c,%al
    92da:	74 35                	je     9311 <e_tokenize+0x9b1>
    92dc:	48 8b 85 78 ff ff ff 	mov    -0x88(%rbp),%rax
    92e3:	0f b6 00             	movzbl (%rax),%eax
    92e6:	88 85 58 ff ff ff    	mov    %al,-0xa8(%rbp)
    92ec:	48 8d 95 60 ff ff ff 	lea    -0xa0(%rbp),%rdx
    92f3:	48 8d 8d 5c ff ff ff 	lea    -0xa4(%rbp),%rcx
    92fa:	48 8d 85 78 ff ff ff 	lea    -0x88(%rbp),%rax
    9301:	48 89 ce             	mov    %rcx,%rsi
    9304:	48 89 c7             	mov    %rax,%rdi
    9307:	e8 50 f1 ff ff       	call   845c <__advance>
    930c:	e9 a3 00 00 00       	jmp    93b4 <e_tokenize+0xa54>
    9311:	48 8d 95 60 ff ff ff 	lea    -0xa0(%rbp),%rdx
    9318:	48 8d 8d 5c ff ff ff 	lea    -0xa4(%rbp),%rcx
    931f:	48 8d 85 78 ff ff ff 	lea    -0x88(%rbp),%rax
    9326:	48 89 ce             	mov    %rcx,%rsi
    9329:	48 89 c7             	mov    %rax,%rdi
    932c:	e8 2b f1 ff ff       	call   845c <__advance>
    9331:	48 8b 85 78 ff ff ff 	mov    -0x88(%rbp),%rax
    9338:	0f b6 00             	movzbl (%rax),%eax
    933b:	0f be c0             	movsbl %al,%eax
    933e:	83 f8 74             	cmp    $0x74,%eax
    9341:	74 2e                	je     9371 <e_tokenize+0xa11>
    9343:	83 f8 74             	cmp    $0x74,%eax
    9346:	7f 4c                	jg     9394 <e_tokenize+0xa34>
    9348:	83 f8 72             	cmp    $0x72,%eax
    934b:	74 2d                	je     937a <e_tokenize+0xa1a>
    934d:	83 f8 72             	cmp    $0x72,%eax
    9350:	7f 42                	jg     9394 <e_tokenize+0xa34>
    9352:	83 f8 6e             	cmp    $0x6e,%eax
    9355:	74 11                	je     9368 <e_tokenize+0xa08>
    9357:	83 f8 6e             	cmp    $0x6e,%eax
    935a:	7f 38                	jg     9394 <e_tokenize+0xa34>
    935c:	83 f8 30             	cmp    $0x30,%eax
    935f:	74 2b                	je     938c <e_tokenize+0xa2c>
    9361:	83 f8 62             	cmp    $0x62,%eax
    9364:	74 1d                	je     9383 <e_tokenize+0xa23>
    9366:	eb 2c                	jmp    9394 <e_tokenize+0xa34>
    9368:	c6 85 58 ff ff ff 0a 	movb   $0xa,-0xa8(%rbp)
    936f:	eb 23                	jmp    9394 <e_tokenize+0xa34>
    9371:	c6 85 58 ff ff ff 09 	movb   $0x9,-0xa8(%rbp)
    9378:	eb 1a                	jmp    9394 <e_tokenize+0xa34>
    937a:	c6 85 58 ff ff ff 0d 	movb   $0xd,-0xa8(%rbp)
    9381:	eb 11                	jmp    9394 <e_tokenize+0xa34>
    9383:	c6 85 58 ff ff ff 08 	movb   $0x8,-0xa8(%rbp)
    938a:	eb 08                	jmp    9394 <e_tokenize+0xa34>
    938c:	c6 85 58 ff ff ff 00 	movb   $0x0,-0xa8(%rbp)
    9393:	90                   	nop
    9394:	48 8d 95 60 ff ff ff 	lea    -0xa0(%rbp),%rdx
    939b:	48 8d 8d 5c ff ff ff 	lea    -0xa4(%rbp),%rcx
    93a2:	48 8d 85 78 ff ff ff 	lea    -0x88(%rbp),%rax
    93a9:	48 89 ce             	mov    %rcx,%rsi
    93ac:	48 89 c7             	mov    %rax,%rdi
    93af:	e8 a8 f0 ff ff       	call   845c <__advance>
    93b4:	48 8b 85 78 ff ff ff 	mov    -0x88(%rbp),%rax
    93bb:	0f b6 00             	movzbl (%rax),%eax
    93be:	3c 27                	cmp    $0x27,%al
    93c0:	74 2a                	je     93ec <e_tokenize+0xa8c>
    93c2:	48 8b 05 57 4d 00 00 	mov    0x4d57(%rip),%rax        # e120 <stderr@GLIBC_2.2.5>
    93c9:	48 8d 3d 98 23 00 00 	lea    0x2398(%rip),%rdi        # b768 <__PRETTY_FUNCTION__.0+0x664>
    93d0:	48 89 c1             	mov    %rax,%rcx
    93d3:	ba 2f 00 00 00       	mov    $0x2f,%edx
    93d8:	be 01 00 00 00       	mov    $0x1,%esi
    93dd:	e8 ce 7d ff ff       	call   11b0 <fwrite@plt>
    93e2:	b8 ff ff ff ff       	mov    $0xffffffff,%eax
    93e7:	e9 a4 07 00 00       	jmp    9b90 <e_tokenize+0x1230>
    93ec:	48 8d 95 60 ff ff ff 	lea    -0xa0(%rbp),%rdx
    93f3:	48 8d 8d 5c ff ff ff 	lea    -0xa4(%rbp),%rcx
    93fa:	48 8d 85 78 ff ff ff 	lea    -0x88(%rbp),%rax
    9401:	48 89 ce             	mov    %rcx,%rsi
    9404:	48 89 c7             	mov    %rax,%rdi
    9407:	e8 50 f0 ff ff       	call   845c <__advance>
    940c:	c7 45 d0 09 00 00 00 	movl   $0x9,-0x30(%rbp)
    9413:	0f b6 85 58 ff ff ff 	movzbl -0xa8(%rbp),%eax
    941a:	88 45 d8             	mov    %al,-0x28(%rbp)
    941d:	48 8b 45 c0          	mov    -0x40(%rbp),%rax
    9421:	48 8b 55 c8          	mov    -0x38(%rbp),%rdx
    9425:	48 89 45 e0          	mov    %rax,-0x20(%rbp)
    9429:	48 89 55 e8          	mov    %rdx,-0x18(%rbp)
    942d:	48 8d 55 d0          	lea    -0x30(%rbp),%rdx
    9431:	48 8d 45 b0          	lea    -0x50(%rbp),%rax
    9435:	48 89 d6             	mov    %rdx,%rsi
    9438:	48 89 c7             	mov    %rax,%rdi
    943b:	e8 0a f3 ff ff       	call   874a <tklist_append>
    9440:	e9 03 07 00 00       	jmp    9b48 <e_tokenize+0x11e8>
    9445:	48 8b 85 78 ff ff ff 	mov    -0x88(%rbp),%rax
    944c:	0f b6 00             	movzbl (%rax),%eax
    944f:	88 85 5a ff ff ff    	mov    %al,-0xa6(%rbp)
    9455:	c7 85 64 ff ff ff 00 	movl   $0x0,-0x9c(%rbp)
    945c:	00 00 00 
    945f:	c6 85 59 ff ff ff 00 	movb   $0x0,-0xa7(%rbp)
    9466:	48 8b 85 78 ff ff ff 	mov    -0x88(%rbp),%rax
    946d:	48 83 c0 01          	add    $0x1,%rax
    9471:	0f b6 00             	movzbl (%rax),%eax
    9474:	3c 3d                	cmp    $0x3d,%al
    9476:	0f 85 53 02 00 00    	jne    96cf <e_tokenize+0xd6f>
    947c:	48 8b 85 78 ff ff ff 	mov    -0x88(%rbp),%rax
    9483:	0f b6 00             	movzbl (%rax),%eax
    9486:	0f be c0             	movsbl %al,%eax
    9489:	83 f8 7e             	cmp    $0x7e,%eax
    948c:	0f 84 32 01 00 00    	je     95c4 <e_tokenize+0xc64>
    9492:	83 f8 7e             	cmp    $0x7e,%eax
    9495:	0f 8f ae 01 00 00    	jg     9649 <e_tokenize+0xce9>
    949b:	83 f8 7c             	cmp    $0x7c,%eax
    949e:	0f 84 36 01 00 00    	je     95da <e_tokenize+0xc7a>
    94a4:	83 f8 7c             	cmp    $0x7c,%eax
    94a7:	0f 8f 9c 01 00 00    	jg     9649 <e_tokenize+0xce9>
    94ad:	83 f8 5e             	cmp    $0x5e,%eax
    94b0:	0f 84 3a 01 00 00    	je     95f0 <e_tokenize+0xc90>
    94b6:	83 f8 5e             	cmp    $0x5e,%eax
    94b9:	0f 8f 8a 01 00 00    	jg     9649 <e_tokenize+0xce9>
    94bf:	83 f8 3e             	cmp    $0x3e,%eax
    94c2:	0f 84 75 01 00 00    	je     963d <e_tokenize+0xcdd>
    94c8:	83 f8 3e             	cmp    $0x3e,%eax
    94cb:	0f 8f 78 01 00 00    	jg     9649 <e_tokenize+0xce9>
    94d1:	83 f8 3d             	cmp    $0x3d,%eax
    94d4:	0f 84 3f 01 00 00    	je     9619 <e_tokenize+0xcb9>
    94da:	83 f8 3d             	cmp    $0x3d,%eax
    94dd:	0f 8f 66 01 00 00    	jg     9649 <e_tokenize+0xce9>
    94e3:	83 f8 3c             	cmp    $0x3c,%eax
    94e6:	0f 84 45 01 00 00    	je     9631 <e_tokenize+0xcd1>
    94ec:	83 f8 3c             	cmp    $0x3c,%eax
    94ef:	0f 8f 54 01 00 00    	jg     9649 <e_tokenize+0xce9>
    94f5:	83 f8 2f             	cmp    $0x2f,%eax
    94f8:	0f 84 9a 00 00 00    	je     9598 <e_tokenize+0xc38>
    94fe:	83 f8 2f             	cmp    $0x2f,%eax
    9501:	0f 8f 42 01 00 00    	jg     9649 <e_tokenize+0xce9>
    9507:	83 f8 2d             	cmp    $0x2d,%eax
    950a:	74 60                	je     956c <e_tokenize+0xc0c>
    950c:	83 f8 2d             	cmp    $0x2d,%eax
    950f:	0f 8f 34 01 00 00    	jg     9649 <e_tokenize+0xce9>
    9515:	83 f8 2b             	cmp    $0x2b,%eax
    9518:	74 3c                	je     9556 <e_tokenize+0xbf6>
    951a:	83 f8 2b             	cmp    $0x2b,%eax
    951d:	0f 8f 26 01 00 00    	jg     9649 <e_tokenize+0xce9>
    9523:	83 f8 2a             	cmp    $0x2a,%eax
    9526:	74 5a                	je     9582 <e_tokenize+0xc22>
    9528:	83 f8 2a             	cmp    $0x2a,%eax
    952b:	0f 8f 18 01 00 00    	jg     9649 <e_tokenize+0xce9>
    9531:	83 f8 26             	cmp    $0x26,%eax
    9534:	0f 84 cc 00 00 00    	je     9606 <e_tokenize+0xca6>
    953a:	83 f8 26             	cmp    $0x26,%eax
    953d:	0f 8f 06 01 00 00    	jg     9649 <e_tokenize+0xce9>
    9543:	83 f8 21             	cmp    $0x21,%eax
    9546:	0f 84 d9 00 00 00    	je     9625 <e_tokenize+0xcc5>
    954c:	83 f8 25             	cmp    $0x25,%eax
    954f:	74 5d                	je     95ae <e_tokenize+0xc4e>
    9551:	e9 f3 00 00 00       	jmp    9649 <e_tokenize+0xce9>
    9556:	c7 85 64 ff ff ff 16 	movl   $0x16,-0x9c(%rbp)
    955d:	00 00 00 
    9560:	c6 85 59 ff ff ff 01 	movb   $0x1,-0xa7(%rbp)
    9567:	e9 1e 01 00 00       	jmp    968a <e_tokenize+0xd2a>
    956c:	c7 85 64 ff ff ff 17 	movl   $0x17,-0x9c(%rbp)
    9573:	00 00 00 
    9576:	c6 85 59 ff ff ff 01 	movb   $0x1,-0xa7(%rbp)
    957d:	e9 08 01 00 00       	jmp    968a <e_tokenize+0xd2a>
    9582:	c7 85 64 ff ff ff 18 	movl   $0x18,-0x9c(%rbp)
    9589:	00 00 00 
    958c:	c6 85 59 ff ff ff 01 	movb   $0x1,-0xa7(%rbp)
    9593:	e9 f2 00 00 00       	jmp    968a <e_tokenize+0xd2a>
    9598:	c7 85 64 ff ff ff 19 	movl   $0x19,-0x9c(%rbp)
    959f:	00 00 00 
    95a2:	c6 85 59 ff ff ff 01 	movb   $0x1,-0xa7(%rbp)
    95a9:	e9 dc 00 00 00       	jmp    968a <e_tokenize+0xd2a>
    95ae:	c7 85 64 ff ff ff 1b 	movl   $0x1b,-0x9c(%rbp)
    95b5:	00 00 00 
    95b8:	c6 85 59 ff ff ff 01 	movb   $0x1,-0xa7(%rbp)
    95bf:	e9 c6 00 00 00       	jmp    968a <e_tokenize+0xd2a>
    95c4:	c7 85 64 ff ff ff 24 	movl   $0x24,-0x9c(%rbp)
    95cb:	00 00 00 
    95ce:	c6 85 59 ff ff ff 01 	movb   $0x1,-0xa7(%rbp)
    95d5:	e9 b0 00 00 00       	jmp    968a <e_tokenize+0xd2a>
    95da:	c7 85 64 ff ff ff 22 	movl   $0x22,-0x9c(%rbp)
    95e1:	00 00 00 
    95e4:	c6 85 59 ff ff ff 01 	movb   $0x1,-0xa7(%rbp)
    95eb:	e9 9a 00 00 00       	jmp    968a <e_tokenize+0xd2a>
    95f0:	c7 85 64 ff ff ff 23 	movl   $0x23,-0x9c(%rbp)
    95f7:	00 00 00 
    95fa:	c6 85 59 ff ff ff 01 	movb   $0x1,-0xa7(%rbp)
    9601:	e9 84 00 00 00       	jmp    968a <e_tokenize+0xd2a>
    9606:	c7 85 64 ff ff ff 21 	movl   $0x21,-0x9c(%rbp)
    960d:	00 00 00 
    9610:	c6 85 59 ff ff ff 01 	movb   $0x1,-0xa7(%rbp)
    9617:	eb 71                	jmp    968a <e_tokenize+0xd2a>
    9619:	c7 85 64 ff ff ff 27 	movl   $0x27,-0x9c(%rbp)
    9620:	00 00 00 
    9623:	eb 65                	jmp    968a <e_tokenize+0xd2a>
    9625:	c7 85 64 ff ff ff 26 	movl   $0x26,-0x9c(%rbp)
    962c:	00 00 00 
    962f:	eb 59                	jmp    968a <e_tokenize+0xd2a>
    9631:	c7 85 64 ff ff ff 29 	movl   $0x29,-0x9c(%rbp)
    9638:	00 00 00 
    963b:	eb 4d                	jmp    968a <e_tokenize+0xd2a>
    963d:	c7 85 64 ff ff ff 2b 	movl   $0x2b,-0x9c(%rbp)
    9644:	00 00 00 
    9647:	eb 41                	jmp    968a <e_tokenize+0xd2a>
    9649:	8b 95 60 ff ff ff    	mov    -0xa0(%rbp),%edx
    964f:	8b b5 5c ff ff ff    	mov    -0xa4(%rbp),%esi
    9655:	48 8d 3d 3c 21 00 00 	lea    0x213c(%rip),%rdi        # b798 <__PRETTY_FUNCTION__.0+0x694>
    965c:	48 8d 0d a8 20 00 00 	lea    0x20a8(%rip),%rcx        # b70b <__PRETTY_FUNCTION__.0+0x607>
    9663:	48 8b 85 40 ff ff ff 	mov    -0xc0(%rbp),%rax
    966a:	49 89 f9             	mov    %rdi,%r9
    966d:	41 b8 2b 01 00 00    	mov    $0x12b,%r8d
    9673:	48 89 c7             	mov    %rax,%rdi
    9676:	b8 00 00 00 00       	mov    $0x0,%eax
    967b:	e8 4f f1 ff ff       	call   87cf <_lexerror>
    9680:	b8 ff ff ff ff       	mov    $0xffffffff,%eax
    9685:	e9 06 05 00 00       	jmp    9b90 <e_tokenize+0x1230>
    968a:	48 8d 95 60 ff ff ff 	lea    -0xa0(%rbp),%rdx
    9691:	48 8d 8d 5c ff ff ff 	lea    -0xa4(%rbp),%rcx
    9698:	48 8d 85 78 ff ff ff 	lea    -0x88(%rbp),%rax
    969f:	48 89 ce             	mov    %rcx,%rsi
    96a2:	48 89 c7             	mov    %rax,%rdi
    96a5:	e8 b2 ed ff ff       	call   845c <__advance>
    96aa:	48 8d 95 60 ff ff ff 	lea    -0xa0(%rbp),%rdx
    96b1:	48 8d 8d 5c ff ff ff 	lea    -0xa4(%rbp),%rcx
    96b8:	48 8d 85 78 ff ff ff 	lea    -0x88(%rbp),%rax
    96bf:	48 89 ce             	mov    %rcx,%rsi
    96c2:	48 89 c7             	mov    %rax,%rdi
    96c5:	e8 92 ed ff ff       	call   845c <__advance>
    96ca:	e9 39 04 00 00       	jmp    9b08 <e_tokenize+0x11a8>
    96cf:	48 8b 85 78 ff ff ff 	mov    -0x88(%rbp),%rax
    96d6:	0f b6 00             	movzbl (%rax),%eax
    96d9:	3c 2b                	cmp    $0x2b,%al
    96db:	75 68                	jne    9745 <e_tokenize+0xde5>
    96dd:	48 8b 85 78 ff ff ff 	mov    -0x88(%rbp),%rax
    96e4:	48 83 c0 01          	add    $0x1,%rax
    96e8:	0f b6 00             	movzbl (%rax),%eax
    96eb:	3c 2b                	cmp    $0x2b,%al
    96ed:	75 56                	jne    9745 <e_tokenize+0xde5>
    96ef:	c7 85 64 ff ff ff 1c 	movl   $0x1c,-0x9c(%rbp)
    96f6:	00 00 00 
    96f9:	c6 85 59 ff ff ff 00 	movb   $0x0,-0xa7(%rbp)
    9700:	48 8d 95 60 ff ff ff 	lea    -0xa0(%rbp),%rdx
    9707:	48 8d 8d 5c ff ff ff 	lea    -0xa4(%rbp),%rcx
    970e:	48 8d 85 78 ff ff ff 	lea    -0x88(%rbp),%rax
    9715:	48 89 ce             	mov    %rcx,%rsi
    9718:	48 89 c7             	mov    %rax,%rdi
    971b:	e8 3c ed ff ff       	call   845c <__advance>
    9720:	48 8d 95 60 ff ff ff 	lea    -0xa0(%rbp),%rdx
    9727:	48 8d 8d 5c ff ff ff 	lea    -0xa4(%rbp),%rcx
    972e:	48 8d 85 78 ff ff ff 	lea    -0x88(%rbp),%rax
    9735:	48 89 ce             	mov    %rcx,%rsi
    9738:	48 89 c7             	mov    %rax,%rdi
    973b:	e8 1c ed ff ff       	call   845c <__advance>
    9740:	e9 c3 03 00 00       	jmp    9b08 <e_tokenize+0x11a8>
    9745:	48 8b 85 78 ff ff ff 	mov    -0x88(%rbp),%rax
    974c:	0f b6 00             	movzbl (%rax),%eax
    974f:	3c 2d                	cmp    $0x2d,%al
    9751:	75 68                	jne    97bb <e_tokenize+0xe5b>
    9753:	48 8b 85 78 ff ff ff 	mov    -0x88(%rbp),%rax
    975a:	48 83 c0 01          	add    $0x1,%rax
    975e:	0f b6 00             	movzbl (%rax),%eax
    9761:	3c 2d                	cmp    $0x2d,%al
    9763:	75 56                	jne    97bb <e_tokenize+0xe5b>
    9765:	c7 85 64 ff ff ff 1d 	movl   $0x1d,-0x9c(%rbp)
    976c:	00 00 00 
    976f:	c6 85 59 ff ff ff 00 	movb   $0x0,-0xa7(%rbp)
    9776:	48 8d 95 60 ff ff ff 	lea    -0xa0(%rbp),%rdx
    977d:	48 8d 8d 5c ff ff ff 	lea    -0xa4(%rbp),%rcx
    9784:	48 8d 85 78 ff ff ff 	lea    -0x88(%rbp),%rax
    978b:	48 89 ce             	mov    %rcx,%rsi
    978e:	48 89 c7             	mov    %rax,%rdi
    9791:	e8 c6 ec ff ff       	call   845c <__advance>
    9796:	48 8d 95 60 ff ff ff 	lea    -0xa0(%rbp),%rdx
    979d:	48 8d 8d 5c ff ff ff 	lea    -0xa4(%rbp),%rcx
    97a4:	48 8d 85 78 ff ff ff 	lea    -0x88(%rbp),%rax
    97ab:	48 89 ce             	mov    %rcx,%rsi
    97ae:	48 89 c7             	mov    %rax,%rdi
    97b1:	e8 a6 ec ff ff       	call   845c <__advance>
    97b6:	e9 4d 03 00 00       	jmp    9b08 <e_tokenize+0x11a8>
    97bb:	48 8b 85 78 ff ff ff 	mov    -0x88(%rbp),%rax
    97c2:	0f b6 00             	movzbl (%rax),%eax
    97c5:	3c 2a                	cmp    $0x2a,%al
    97c7:	75 68                	jne    9831 <e_tokenize+0xed1>
    97c9:	48 8b 85 78 ff ff ff 	mov    -0x88(%rbp),%rax
    97d0:	48 83 c0 01          	add    $0x1,%rax
    97d4:	0f b6 00             	movzbl (%rax),%eax
    97d7:	3c 2a                	cmp    $0x2a,%al
    97d9:	75 56                	jne    9831 <e_tokenize+0xed1>
    97db:	c7 85 64 ff ff ff 1a 	movl   $0x1a,-0x9c(%rbp)
    97e2:	00 00 00 
    97e5:	c6 85 59 ff ff ff 00 	movb   $0x0,-0xa7(%rbp)
    97ec:	48 8d 95 60 ff ff ff 	lea    -0xa0(%rbp),%rdx
    97f3:	48 8d 8d 5c ff ff ff 	lea    -0xa4(%rbp),%rcx
    97fa:	48 8d 85 78 ff ff ff 	lea    -0x88(%rbp),%rax
    9801:	48 89 ce             	mov    %rcx,%rsi
    9804:	48 89 c7             	mov    %rax,%rdi
    9807:	e8 50 ec ff ff       	call   845c <__advance>
    980c:	48 8d 95 60 ff ff ff 	lea    -0xa0(%rbp),%rdx
    9813:	48 8d 8d 5c ff ff ff 	lea    -0xa4(%rbp),%rcx
    981a:	48 8d 85 78 ff ff ff 	lea    -0x88(%rbp),%rax
    9821:	48 89 ce             	mov    %rcx,%rsi
    9824:	48 89 c7             	mov    %rax,%rdi
    9827:	e8 30 ec ff ff       	call   845c <__advance>
    982c:	e9 d7 02 00 00       	jmp    9b08 <e_tokenize+0x11a8>
    9831:	48 8b 85 78 ff ff ff 	mov    -0x88(%rbp),%rax
    9838:	0f b6 00             	movzbl (%rax),%eax
    983b:	0f be c0             	movsbl %al,%eax
    983e:	83 f8 7e             	cmp    $0x7e,%eax
    9841:	0f 84 a0 01 00 00    	je     99e7 <e_tokenize+0x1087>
    9847:	83 f8 7e             	cmp    $0x7e,%eax
    984a:	0f 8f 57 02 00 00    	jg     9aa7 <e_tokenize+0x1147>
    9850:	83 f8 7d             	cmp    $0x7d,%eax
    9853:	0f 84 2a 02 00 00    	je     9a83 <e_tokenize+0x1123>
    9859:	83 f8 7d             	cmp    $0x7d,%eax
    985c:	0f 8f 45 02 00 00    	jg     9aa7 <e_tokenize+0x1147>
    9862:	83 f8 7c             	cmp    $0x7c,%eax
    9865:	0f 84 8b 01 00 00    	je     99f6 <e_tokenize+0x1096>
    986b:	83 f8 7c             	cmp    $0x7c,%eax
    986e:	0f 8f 33 02 00 00    	jg     9aa7 <e_tokenize+0x1147>
    9874:	83 f8 7b             	cmp    $0x7b,%eax
    9877:	0f 84 fa 01 00 00    	je     9a77 <e_tokenize+0x1117>
    987d:	83 f8 7b             	cmp    $0x7b,%eax
    9880:	0f 8f 21 02 00 00    	jg     9aa7 <e_tokenize+0x1147>
    9886:	83 f8 5e             	cmp    $0x5e,%eax
    9889:	0f 84 76 01 00 00    	je     9a05 <e_tokenize+0x10a5>
    988f:	83 f8 5e             	cmp    $0x5e,%eax
    9892:	0f 8f 0f 02 00 00    	jg     9aa7 <e_tokenize+0x1147>
    9898:	83 f8 3e             	cmp    $0x3e,%eax
    989b:	0f 84 a0 01 00 00    	je     9a41 <e_tokenize+0x10e1>
    98a1:	83 f8 3e             	cmp    $0x3e,%eax
    98a4:	0f 8f fd 01 00 00    	jg     9aa7 <e_tokenize+0x1147>
    98aa:	83 f8 3d             	cmp    $0x3d,%eax
    98ad:	0f 84 25 01 00 00    	je     99d8 <e_tokenize+0x1078>
    98b3:	83 f8 3d             	cmp    $0x3d,%eax
    98b6:	0f 8f eb 01 00 00    	jg     9aa7 <e_tokenize+0x1147>
    98bc:	83 f8 3c             	cmp    $0x3c,%eax
    98bf:	0f 84 6d 01 00 00    	je     9a32 <e_tokenize+0x10d2>
    98c5:	83 f8 3c             	cmp    $0x3c,%eax
    98c8:	0f 8f d9 01 00 00    	jg     9aa7 <e_tokenize+0x1147>
    98ce:	83 f8 3b             	cmp    $0x3b,%eax
    98d1:	0f 84 79 01 00 00    	je     9a50 <e_tokenize+0x10f0>
    98d7:	83 f8 3b             	cmp    $0x3b,%eax
    98da:	0f 8f c7 01 00 00    	jg     9aa7 <e_tokenize+0x1147>
    98e0:	83 f8 3a             	cmp    $0x3a,%eax
    98e3:	0f 84 76 01 00 00    	je     9a5f <e_tokenize+0x10ff>
    98e9:	83 f8 3a             	cmp    $0x3a,%eax
    98ec:	0f 8f b5 01 00 00    	jg     9aa7 <e_tokenize+0x1147>
    98f2:	83 f8 2f             	cmp    $0x2f,%eax
    98f5:	0f 84 bf 00 00 00    	je     99ba <e_tokenize+0x105a>
    98fb:	83 f8 2f             	cmp    $0x2f,%eax
    98fe:	0f 8f a3 01 00 00    	jg     9aa7 <e_tokenize+0x1147>
    9904:	83 f8 2d             	cmp    $0x2d,%eax
    9907:	0f 84 8f 00 00 00    	je     999c <e_tokenize+0x103c>
    990d:	83 f8 2d             	cmp    $0x2d,%eax
    9910:	0f 8f 91 01 00 00    	jg     9aa7 <e_tokenize+0x1147>
    9916:	83 f8 2c             	cmp    $0x2c,%eax
    9919:	0f 84 4c 01 00 00    	je     9a6b <e_tokenize+0x110b>
    991f:	83 f8 2c             	cmp    $0x2c,%eax
    9922:	0f 8f 7f 01 00 00    	jg     9aa7 <e_tokenize+0x1147>
    9928:	83 f8 2b             	cmp    $0x2b,%eax
    992b:	74 60                	je     998d <e_tokenize+0x102d>
    992d:	83 f8 2b             	cmp    $0x2b,%eax
    9930:	0f 8f 71 01 00 00    	jg     9aa7 <e_tokenize+0x1147>
    9936:	83 f8 2a             	cmp    $0x2a,%eax
    9939:	74 70                	je     99ab <e_tokenize+0x104b>
    993b:	83 f8 2a             	cmp    $0x2a,%eax
    993e:	0f 8f 63 01 00 00    	jg     9aa7 <e_tokenize+0x1147>
    9944:	83 f8 29             	cmp    $0x29,%eax
    9947:	0f 84 4e 01 00 00    	je     9a9b <e_tokenize+0x113b>
    994d:	83 f8 29             	cmp    $0x29,%eax
    9950:	0f 8f 51 01 00 00    	jg     9aa7 <e_tokenize+0x1147>
    9956:	83 f8 28             	cmp    $0x28,%eax
    9959:	0f 84 30 01 00 00    	je     9a8f <e_tokenize+0x112f>
    995f:	83 f8 28             	cmp    $0x28,%eax
    9962:	0f 8f 3f 01 00 00    	jg     9aa7 <e_tokenize+0x1147>
    9968:	83 f8 26             	cmp    $0x26,%eax
    996b:	0f 84 a3 00 00 00    	je     9a14 <e_tokenize+0x10b4>
    9971:	83 f8 26             	cmp    $0x26,%eax
    9974:	0f 8f 2d 01 00 00    	jg     9aa7 <e_tokenize+0x1147>
    997a:	83 f8 21             	cmp    $0x21,%eax
    997d:	0f 84 a0 00 00 00    	je     9a23 <e_tokenize+0x10c3>
    9983:	83 f8 25             	cmp    $0x25,%eax
    9986:	74 41                	je     99c9 <e_tokenize+0x1069>
    9988:	e9 1a 01 00 00       	jmp    9aa7 <e_tokenize+0x1147>
    998d:	c7 85 64 ff ff ff 16 	movl   $0x16,-0x9c(%rbp)
    9994:	00 00 00 
    9997:	e9 4c 01 00 00       	jmp    9ae8 <e_tokenize+0x1188>
    999c:	c7 85 64 ff ff ff 17 	movl   $0x17,-0x9c(%rbp)
    99a3:	00 00 00 
    99a6:	e9 3d 01 00 00       	jmp    9ae8 <e_tokenize+0x1188>
    99ab:	c7 85 64 ff ff ff 18 	movl   $0x18,-0x9c(%rbp)
    99b2:	00 00 00 
    99b5:	e9 2e 01 00 00       	jmp    9ae8 <e_tokenize+0x1188>
    99ba:	c7 85 64 ff ff ff 19 	movl   $0x19,-0x9c(%rbp)
    99c1:	00 00 00 
    99c4:	e9 1f 01 00 00       	jmp    9ae8 <e_tokenize+0x1188>
    99c9:	c7 85 64 ff ff ff 1b 	movl   $0x1b,-0x9c(%rbp)
    99d0:	00 00 00 
    99d3:	e9 10 01 00 00       	jmp    9ae8 <e_tokenize+0x1188>
    99d8:	c7 85 64 ff ff ff 25 	movl   $0x25,-0x9c(%rbp)
    99df:	00 00 00 
    99e2:	e9 01 01 00 00       	jmp    9ae8 <e_tokenize+0x1188>
    99e7:	c7 85 64 ff ff ff 24 	movl   $0x24,-0x9c(%rbp)
    99ee:	00 00 00 
    99f1:	e9 f2 00 00 00       	jmp    9ae8 <e_tokenize+0x1188>
    99f6:	c7 85 64 ff ff ff 22 	movl   $0x22,-0x9c(%rbp)
    99fd:	00 00 00 
    9a00:	e9 e3 00 00 00       	jmp    9ae8 <e_tokenize+0x1188>
    9a05:	c7 85 64 ff ff ff 23 	movl   $0x23,-0x9c(%rbp)
    9a0c:	00 00 00 
    9a0f:	e9 d4 00 00 00       	jmp    9ae8 <e_tokenize+0x1188>
    9a14:	c7 85 64 ff ff ff 21 	movl   $0x21,-0x9c(%rbp)
    9a1b:	00 00 00 
    9a1e:	e9 c5 00 00 00       	jmp    9ae8 <e_tokenize+0x1188>
    9a23:	c7 85 64 ff ff ff 20 	movl   $0x20,-0x9c(%rbp)
    9a2a:	00 00 00 
    9a2d:	e9 b6 00 00 00       	jmp    9ae8 <e_tokenize+0x1188>
    9a32:	c7 85 64 ff ff ff 28 	movl   $0x28,-0x9c(%rbp)
    9a39:	00 00 00 
    9a3c:	e9 a7 00 00 00       	jmp    9ae8 <e_tokenize+0x1188>
    9a41:	c7 85 64 ff ff ff 2a 	movl   $0x2a,-0x9c(%rbp)
    9a48:	00 00 00 
    9a4b:	e9 98 00 00 00       	jmp    9ae8 <e_tokenize+0x1188>
    9a50:	c7 85 64 ff ff ff 01 	movl   $0x1,-0x9c(%rbp)
    9a57:	00 00 00 
    9a5a:	e9 89 00 00 00       	jmp    9ae8 <e_tokenize+0x1188>
    9a5f:	c7 85 64 ff ff ff 02 	movl   $0x2,-0x9c(%rbp)
    9a66:	00 00 00 
    9a69:	eb 7d                	jmp    9ae8 <e_tokenize+0x1188>
    9a6b:	c7 85 64 ff ff ff 03 	movl   $0x3,-0x9c(%rbp)
    9a72:	00 00 00 
    9a75:	eb 71                	jmp    9ae8 <e_tokenize+0x1188>
    9a77:	c7 85 64 ff ff ff 04 	movl   $0x4,-0x9c(%rbp)
    9a7e:	00 00 00 
    9a81:	eb 65                	jmp    9ae8 <e_tokenize+0x1188>
    9a83:	c7 85 64 ff ff ff 05 	movl   $0x5,-0x9c(%rbp)
    9a8a:	00 00 00 
    9a8d:	eb 59                	jmp    9ae8 <e_tokenize+0x1188>
    9a8f:	c7 85 64 ff ff ff 06 	movl   $0x6,-0x9c(%rbp)
    9a96:	00 00 00 
    9a99:	eb 4d                	jmp    9ae8 <e_tokenize+0x1188>
    9a9b:	c7 85 64 ff ff ff 07 	movl   $0x7,-0x9c(%rbp)
    9aa2:	00 00 00 
    9aa5:	eb 41                	jmp    9ae8 <e_tokenize+0x1188>
    9aa7:	8b 95 60 ff ff ff    	mov    -0xa0(%rbp),%edx
    9aad:	8b b5 5c ff ff ff    	mov    -0xa4(%rbp),%esi
    9ab3:	48 8d 3d de 1c 00 00 	lea    0x1cde(%rip),%rdi        # b798 <__PRETTY_FUNCTION__.0+0x694>
    9aba:	48 8d 0d 4a 1c 00 00 	lea    0x1c4a(%rip),%rcx        # b70b <__PRETTY_FUNCTION__.0+0x607>
    9ac1:	48 8b 85 40 ff ff ff 	mov    -0xc0(%rbp),%rax
    9ac8:	49 89 f9             	mov    %rdi,%r9
    9acb:	41 b8 56 01 00 00    	mov    $0x156,%r8d
    9ad1:	48 89 c7             	mov    %rax,%rdi
    9ad4:	b8 00 00 00 00       	mov    $0x0,%eax
    9ad9:	e8 f1 ec ff ff       	call   87cf <_lexerror>
    9ade:	b8 ff ff ff ff       	mov    $0xffffffff,%eax
    9ae3:	e9 a8 00 00 00       	jmp    9b90 <e_tokenize+0x1230>
    9ae8:	48 8d 95 60 ff ff ff 	lea    -0xa0(%rbp),%rdx
    9aef:	48 8d 8d 5c ff ff ff 	lea    -0xa4(%rbp),%rcx
    9af6:	48 8d 85 78 ff ff ff 	lea    -0x88(%rbp),%rax
    9afd:	48 89 ce             	mov    %rcx,%rsi
    9b00:	48 89 c7             	mov    %rax,%rdi
    9b03:	e8 54 e9 ff ff       	call   845c <__advance>
    9b08:	8b 85 64 ff ff ff    	mov    -0x9c(%rbp),%eax
    9b0e:	89 45 d0             	mov    %eax,-0x30(%rbp)
    9b11:	0f b6 85 5a ff ff ff 	movzbl -0xa6(%rbp),%eax
    9b18:	88 45 d8             	mov    %al,-0x28(%rbp)
    9b1b:	0f b6 85 59 ff ff ff 	movzbl -0xa7(%rbp),%eax
    9b22:	88 45 d9             	mov    %al,-0x27(%rbp)
    9b25:	48 8b 45 c0          	mov    -0x40(%rbp),%rax
    9b29:	48 8b 55 c8          	mov    -0x38(%rbp),%rdx
    9b2d:	48 89 45 e0          	mov    %rax,-0x20(%rbp)
    9b31:	48 89 55 e8          	mov    %rdx,-0x18(%rbp)
    9b35:	48 8d 55 d0          	lea    -0x30(%rbp),%rdx
    9b39:	48 8d 45 b0          	lea    -0x50(%rbp),%rax
    9b3d:	48 89 d6             	mov    %rdx,%rsi
    9b40:	48 89 c7             	mov    %rax,%rdi
    9b43:	e8 02 ec ff ff       	call   874a <tklist_append>
    9b48:	48 8b 85 78 ff ff ff 	mov    -0x88(%rbp),%rax
    9b4f:	0f b6 00             	movzbl (%rax),%eax
    9b52:	84 c0                	test   %al,%al
    9b54:	0f 85 b7 ee ff ff    	jne    8a11 <e_tokenize+0xb1>
    9b5a:	eb 01                	jmp    9b5d <e_tokenize+0x11fd>
    9b5c:	90                   	nop
    9b5d:	48 83 bd 38 ff ff ff 	cmpq   $0x0,-0xc8(%rbp)
    9b64:	00 
    9b65:	74 0e                	je     9b75 <e_tokenize+0x1215>
    9b67:	48 8b 55 b0          	mov    -0x50(%rbp),%rdx
    9b6b:	48 8b 85 38 ff ff ff 	mov    -0xc8(%rbp),%rax
    9b72:	48 89 10             	mov    %rdx,(%rax)
    9b75:	48 83 bd 30 ff ff ff 	cmpq   $0x0,-0xd0(%rbp)
    9b7c:	00 
    9b7d:	74 0c                	je     9b8b <e_tokenize+0x122b>
    9b7f:	8b 55 b8             	mov    -0x48(%rbp),%edx
    9b82:	48 8b 85 30 ff ff ff 	mov    -0xd0(%rbp),%rax
    9b89:	89 10                	mov    %edx,(%rax)
    9b8b:	b8 00 00 00 00       	mov    $0x0,%eax
    9b90:	48 8b 55 f8          	mov    -0x8(%rbp),%rdx
    9b94:	64 48 2b 14 25 28 00 	sub    %fs:0x28,%rdx
    9b9b:	00 00 
    9b9d:	74 05                	je     9ba4 <e_tokenize+0x1244>
    9b9f:	e8 ec 74 ff ff       	call   1090 <__stack_chk_fail@plt>
    9ba4:	c9                   	leave
    9ba5:	c3                   	ret

0000000000009ba6 <e_freetoks>:
    9ba6:	55                   	push   %rbp
    9ba7:	48 89 e5             	mov    %rsp,%rbp
    9baa:	48 83 ec 20          	sub    $0x20,%rsp
    9bae:	48 89 7d e8          	mov    %rdi,-0x18(%rbp)
    9bb2:	89 75 e4             	mov    %esi,-0x1c(%rbp)
    9bb5:	c7 45 fc 00 00 00 00 	movl   $0x0,-0x4(%rbp)
    9bbc:	eb 76                	jmp    9c34 <e_freetoks+0x8e>
    9bbe:	8b 45 fc             	mov    -0x4(%rbp),%eax
    9bc1:	48 98                	cltq
    9bc3:	48 c1 e0 05          	shl    $0x5,%rax
    9bc7:	48 89 c2             	mov    %rax,%rdx
    9bca:	48 8b 45 e8          	mov    -0x18(%rbp),%rax
    9bce:	48 01 d0             	add    %rdx,%rax
    9bd1:	8b 00                	mov    (%rax),%eax
    9bd3:	83 f8 0c             	cmp    $0xc,%eax
    9bd6:	74 1a                	je     9bf2 <e_freetoks+0x4c>
    9bd8:	8b 45 fc             	mov    -0x4(%rbp),%eax
    9bdb:	48 98                	cltq
    9bdd:	48 c1 e0 05          	shl    $0x5,%rax
    9be1:	48 89 c2             	mov    %rax,%rdx
    9be4:	48 8b 45 e8          	mov    -0x18(%rbp),%rax
    9be8:	48 01 d0             	add    %rdx,%rax
    9beb:	8b 00                	mov    (%rax),%eax
    9bed:	83 f8 2c             	cmp    $0x2c,%eax
    9bf0:	75 1f                	jne    9c11 <e_freetoks+0x6b>
    9bf2:	8b 45 fc             	mov    -0x4(%rbp),%eax
    9bf5:	48 98                	cltq
    9bf7:	48 c1 e0 05          	shl    $0x5,%rax
    9bfb:	48 89 c2             	mov    %rax,%rdx
    9bfe:	48 8b 45 e8          	mov    -0x18(%rbp),%rax
    9c02:	48 01 d0             	add    %rdx,%rax
    9c05:	48 8b 40 08          	mov    0x8(%rax),%rax
    9c09:	48 89 c7             	mov    %rax,%rdi
    9c0c:	e8 1f 74 ff ff       	call   1030 <free@plt>
    9c11:	8b 45 fc             	mov    -0x4(%rbp),%eax
    9c14:	48 98                	cltq
    9c16:	48 c1 e0 05          	shl    $0x5,%rax
    9c1a:	48 89 c2             	mov    %rax,%rdx
    9c1d:	48 8b 45 e8          	mov    -0x18(%rbp),%rax
    9c21:	48 01 d0             	add    %rdx,%rax
    9c24:	48 8b 40 10          	mov    0x10(%rax),%rax
    9c28:	48 89 c7             	mov    %rax,%rdi
    9c2b:	e8 00 74 ff ff       	call   1030 <free@plt>
    9c30:	83 45 fc 01          	addl   $0x1,-0x4(%rbp)
    9c34:	8b 45 fc             	mov    -0x4(%rbp),%eax
    9c37:	3b 45 e4             	cmp    -0x1c(%rbp),%eax
    9c3a:	7c 82                	jl     9bbe <e_freetoks+0x18>
    9c3c:	48 8b 45 e8          	mov    -0x18(%rbp),%rax
    9c40:	48 89 c7             	mov    %rax,%rdi
    9c43:	e8 e8 73 ff ff       	call   1030 <free@plt>
    9c48:	90                   	nop
    9c49:	c9                   	leave
    9c4a:	c3                   	ret

0000000000009c4b <e_refc_init>:
    9c4b:	55                   	push   %rbp
    9c4c:	48 89 e5             	mov    %rsp,%rbp
    9c4f:	48 83 ec 10          	sub    $0x10,%rsp
    9c53:	bf 04 00 00 00       	mov    $0x4,%edi
    9c58:	e8 e3 74 ff ff       	call   1140 <malloc@plt>
    9c5d:	48 89 45 f8          	mov    %rax,-0x8(%rbp)
    9c61:	48 8b 45 f8          	mov    -0x8(%rbp),%rax
    9c65:	c7 00 01 00 00 00    	movl   $0x1,(%rax)
    9c6b:	48 8b 45 f8          	mov    -0x8(%rbp),%rax
    9c6f:	c9                   	leave
    9c70:	c3                   	ret

0000000000009c71 <e_refc_release>:
    9c71:	55                   	push   %rbp
    9c72:	48 89 e5             	mov    %rsp,%rbp
    9c75:	48 89 7d f8          	mov    %rdi,-0x8(%rbp)
    9c79:	48 8b 45 f8          	mov    -0x8(%rbp),%rax
    9c7d:	8b 00                	mov    (%rax),%eax
    9c7f:	85 c0                	test   %eax,%eax
    9c81:	7e 0f                	jle    9c92 <e_refc_release+0x21>
    9c83:	48 8b 45 f8          	mov    -0x8(%rbp),%rax
    9c87:	8b 00                	mov    (%rax),%eax
    9c89:	8d 50 ff             	lea    -0x1(%rax),%edx
    9c8c:	48 8b 45 f8          	mov    -0x8(%rbp),%rax
    9c90:	89 10                	mov    %edx,(%rax)
    9c92:	90                   	nop
    9c93:	5d                   	pop    %rbp
    9c94:	c3                   	ret

0000000000009c95 <e_refc_free>:
    9c95:	55                   	push   %rbp
    9c96:	48 89 e5             	mov    %rsp,%rbp
    9c99:	48 83 ec 10          	sub    $0x10,%rsp
    9c9d:	48 89 7d f8          	mov    %rdi,-0x8(%rbp)
    9ca1:	48 8b 45 f8          	mov    -0x8(%rbp),%rax
    9ca5:	48 89 c7             	mov    %rax,%rdi
    9ca8:	e8 83 73 ff ff       	call   1030 <free@plt>
    9cad:	90                   	nop
    9cae:	c9                   	leave
    9caf:	c3                   	ret

0000000000009cb0 <e_var_release>:
    9cb0:	55                   	push   %rbp
    9cb1:	48 89 e5             	mov    %rsp,%rbp
    9cb4:	48 83 ec 10          	sub    $0x10,%rsp
    9cb8:	48 89 7d f8          	mov    %rdi,-0x8(%rbp)
    9cbc:	48 8b 45 f8          	mov    -0x8(%rbp),%rax
    9cc0:	48 8b 40 08          	mov    0x8(%rax),%rax
    9cc4:	48 89 c7             	mov    %rax,%rdi
    9cc7:	e8 a5 ff ff ff       	call   9c71 <e_refc_release>
    9ccc:	48 8b 45 f8          	mov    -0x8(%rbp),%rax
    9cd0:	48 8b 40 08          	mov    0x8(%rax),%rax
    9cd4:	8b 00                	mov    (%rax),%eax
    9cd6:	85 c0                	test   %eax,%eax
    9cd8:	7f 0c                	jg     9ce6 <e_var_release+0x36>
    9cda:	48 8b 45 f8          	mov    -0x8(%rbp),%rax
    9cde:	48 89 c7             	mov    %rax,%rdi
    9ce1:	e8 ce 01 00 00       	call   9eb4 <e_var_free>
    9ce6:	90                   	nop
    9ce7:	c9                   	leave
    9ce8:	c3                   	ret

0000000000009ce9 <e_list_init>:
    9ce9:	55                   	push   %rbp
    9cea:	48 89 e5             	mov    %rsp,%rbp
    9ced:	48 83 ec 30          	sub    $0x30,%rsp
    9cf1:	48 89 7d e8          	mov    %rdi,-0x18(%rbp)
    9cf5:	48 89 75 e0          	mov    %rsi,-0x20(%rbp)
    9cf9:	48 89 55 d8          	mov    %rdx,-0x28(%rbp)
    9cfd:	48 8b 45 e0          	mov    -0x20(%rbp),%rax
    9d01:	89 c2                	mov    %eax,%edx
    9d03:	48 8b 45 d8          	mov    -0x28(%rbp),%rax
    9d07:	89 10                	mov    %edx,(%rax)
    9d09:	b8 10 00 00 00       	mov    $0x10,%eax
    9d0e:	89 c2                	mov    %eax,%edx
    9d10:	48 8b 45 e0          	mov    -0x20(%rbp),%rax
    9d14:	48 39 c2             	cmp    %rax,%rdx
    9d17:	48 0f 43 c2          	cmovae %rdx,%rax
    9d1b:	89 c2                	mov    %eax,%edx
    9d1d:	48 8b 45 d8          	mov    -0x28(%rbp),%rax
    9d21:	89 50 04             	mov    %edx,0x4(%rax)
    9d24:	48 8b 45 e0          	mov    -0x20(%rbp),%rax
    9d28:	48 c1 e0 03          	shl    $0x3,%rax
    9d2c:	48 89 c7             	mov    %rax,%rdi
    9d2f:	e8 0c 74 ff ff       	call   1140 <malloc@plt>
    9d34:	48 89 c2             	mov    %rax,%rdx
    9d37:	48 8b 45 d8          	mov    -0x28(%rbp),%rax
    9d3b:	48 89 50 08          	mov    %rdx,0x8(%rax)
    9d3f:	48 8b 45 d8          	mov    -0x28(%rbp),%rax
    9d43:	48 8b 40 08          	mov    0x8(%rax),%rax
    9d47:	48 85 c0             	test   %rax,%rax
    9d4a:	75 07                	jne    9d53 <e_list_init+0x6a>
    9d4c:	b8 ff ff ff ff       	mov    $0xffffffff,%eax
    9d51:	eb 5a                	jmp    9dad <e_list_init+0xc4>
    9d53:	48 c7 45 f8 00 00 00 	movq   $0x0,-0x8(%rbp)
    9d5a:	00 
    9d5b:	eb 41                	jmp    9d9e <e_list_init+0xb5>
    9d5d:	48 8b 45 d8          	mov    -0x28(%rbp),%rax
    9d61:	48 8b 40 08          	mov    0x8(%rax),%rax
    9d65:	48 8b 55 f8          	mov    -0x8(%rbp),%rdx
    9d69:	48 c1 e2 03          	shl    $0x3,%rdx
    9d6d:	48 01 d0             	add    %rdx,%rax
    9d70:	48 8b 08             	mov    (%rax),%rcx
    9d73:	48 8b 55 f8          	mov    -0x8(%rbp),%rdx
    9d77:	48 89 d0             	mov    %rdx,%rax
    9d7a:	48 01 c0             	add    %rax,%rax
    9d7d:	48 01 d0             	add    %rdx,%rax
    9d80:	48 c1 e0 03          	shl    $0x3,%rax
    9d84:	48 89 c2             	mov    %rax,%rdx
    9d87:	48 8b 45 e8          	mov    -0x18(%rbp),%rax
    9d8b:	48 01 d0             	add    %rdx,%rax
    9d8e:	48 89 ce             	mov    %rcx,%rsi
    9d91:	48 89 c7             	mov    %rax,%rdi
    9d94:	e8 16 00 00 00       	call   9daf <e_var_shallow_cpy>
    9d99:	48 83 45 f8 01       	addq   $0x1,-0x8(%rbp)
    9d9e:	48 8b 45 f8          	mov    -0x8(%rbp),%rax
    9da2:	48 3b 45 e0          	cmp    -0x20(%rbp),%rax
    9da6:	72 b5                	jb     9d5d <e_list_init+0x74>
    9da8:	b8 00 00 00 00       	mov    $0x0,%eax
    9dad:	c9                   	leave
    9dae:	c3                   	ret

0000000000009daf <e_var_shallow_cpy>:
    9daf:	55                   	push   %rbp
    9db0:	48 89 e5             	mov    %rsp,%rbp
    9db3:	48 89 7d f8          	mov    %rdi,-0x8(%rbp)
    9db7:	48 89 75 f0          	mov    %rsi,-0x10(%rbp)
    9dbb:	48 83 7d f0 00       	cmpq   $0x0,-0x10(%rbp)
    9dc0:	74 07                	je     9dc9 <e_var_shallow_cpy+0x1a>
    9dc2:	48 83 7d f8 00       	cmpq   $0x0,-0x8(%rbp)
    9dc7:	75 07                	jne    9dd0 <e_var_shallow_cpy+0x21>
    9dc9:	b8 ff ff ff ff       	mov    $0xffffffff,%eax
    9dce:	eb 31                	jmp    9e01 <e_var_shallow_cpy+0x52>
    9dd0:	48 8b 45 f8          	mov    -0x8(%rbp),%rax
    9dd4:	8b 10                	mov    (%rax),%edx
    9dd6:	48 8b 45 f0          	mov    -0x10(%rbp),%rax
    9dda:	89 10                	mov    %edx,(%rax)
    9ddc:	48 8b 45 f0          	mov    -0x10(%rbp),%rax
    9de0:	48 8b 55 f8          	mov    -0x8(%rbp),%rdx
    9de4:	48 8b 52 10          	mov    0x10(%rdx),%rdx
    9de8:	48 89 50 10          	mov    %rdx,0x10(%rax)
    9dec:	48 8b 45 f8          	mov    -0x8(%rbp),%rax
    9df0:	48 8b 50 08          	mov    0x8(%rax),%rdx
    9df4:	48 8b 45 f0          	mov    -0x10(%rbp),%rax
    9df8:	48 89 50 08          	mov    %rdx,0x8(%rax)
    9dfc:	b8 00 00 00 00       	mov    $0x0,%eax
    9e01:	5d                   	pop    %rbp
    9e02:	c3                   	ret

0000000000009e03 <e_var_deep_cpy>:
    9e03:	55                   	push   %rbp
    9e04:	48 89 e5             	mov    %rsp,%rbp
    9e07:	53                   	push   %rbx
    9e08:	48 83 ec 18          	sub    $0x18,%rsp
    9e0c:	48 89 7d e8          	mov    %rdi,-0x18(%rbp)
    9e10:	48 89 75 e0          	mov    %rsi,-0x20(%rbp)
    9e14:	48 83 7d e0 00       	cmpq   $0x0,-0x20(%rbp)
    9e19:	74 07                	je     9e22 <e_var_deep_cpy+0x1f>
    9e1b:	48 83 7d e8 00       	cmpq   $0x0,-0x18(%rbp)
    9e20:	75 0a                	jne    9e2c <e_var_deep_cpy+0x29>
    9e22:	b8 ff ff ff ff       	mov    $0xffffffff,%eax
    9e27:	e9 82 00 00 00       	jmp    9eae <e_var_deep_cpy+0xab>
    9e2c:	48 8b 45 e8          	mov    -0x18(%rbp),%rax
    9e30:	8b 10                	mov    (%rax),%edx
    9e32:	48 8b 45 e0          	mov    -0x20(%rbp),%rax
    9e36:	89 10                	mov    %edx,(%rax)
    9e38:	e8 0e fe ff ff       	call   9c4b <e_refc_init>
    9e3d:	48 8b 55 e0          	mov    -0x20(%rbp),%rdx
    9e41:	48 89 42 08          	mov    %rax,0x8(%rdx)
    9e45:	48 8b 45 e8          	mov    -0x18(%rbp),%rax
    9e49:	8b 00                	mov    (%rax),%eax
    9e4b:	83 f8 08             	cmp    $0x8,%eax
    9e4e:	77 59                	ja     9ea9 <e_var_deep_cpy+0xa6>
    9e50:	83 f8 06             	cmp    $0x6,%eax
    9e53:	73 53                	jae    9ea8 <e_var_deep_cpy+0xa5>
    9e55:	83 f8 04             	cmp    $0x4,%eax
    9e58:	76 07                	jbe    9e61 <e_var_deep_cpy+0x5e>
    9e5a:	83 f8 05             	cmp    $0x5,%eax
    9e5d:	74 14                	je     9e73 <e_var_deep_cpy+0x70>
    9e5f:	eb 48                	jmp    9ea9 <e_var_deep_cpy+0xa6>
    9e61:	48 8b 45 e0          	mov    -0x20(%rbp),%rax
    9e65:	48 8b 55 e8          	mov    -0x18(%rbp),%rdx
    9e69:	48 8b 52 10          	mov    0x10(%rdx),%rdx
    9e6d:	48 89 50 10          	mov    %rdx,0x10(%rax)
    9e71:	eb 36                	jmp    9ea9 <e_var_deep_cpy+0xa6>
    9e73:	bf 08 00 00 00       	mov    $0x8,%edi
    9e78:	e8 c3 72 ff ff       	call   1140 <malloc@plt>
    9e7d:	48 89 c2             	mov    %rax,%rdx
    9e80:	48 8b 45 e0          	mov    -0x20(%rbp),%rax
    9e84:	48 89 50 10          	mov    %rdx,0x10(%rax)
    9e88:	48 8b 45 e8          	mov    -0x18(%rbp),%rax
    9e8c:	48 8b 40 10          	mov    0x10(%rax),%rax
    9e90:	48 8b 00             	mov    (%rax),%rax
    9e93:	48 8b 55 e0          	mov    -0x20(%rbp),%rdx
    9e97:	48 8b 5a 10          	mov    0x10(%rdx),%rbx
    9e9b:	48 89 c7             	mov    %rax,%rdi
    9e9e:	e8 1d 73 ff ff       	call   11c0 <strdup@plt>
    9ea3:	48 89 03             	mov    %rax,(%rbx)
    9ea6:	eb 01                	jmp    9ea9 <e_var_deep_cpy+0xa6>
    9ea8:	90                   	nop
    9ea9:	b8 00 00 00 00       	mov    $0x0,%eax
    9eae:	48 8b 5d f8          	mov    -0x8(%rbp),%rbx
    9eb2:	c9                   	leave
    9eb3:	c3                   	ret

0000000000009eb4 <e_var_free>:
    9eb4:	55                   	push   %rbp
    9eb5:	48 89 e5             	mov    %rsp,%rbp
    9eb8:	48 83 ec 30          	sub    $0x30,%rsp
    9ebc:	48 89 7d d8          	mov    %rdi,-0x28(%rbp)
    9ec0:	48 8b 45 d8          	mov    -0x28(%rbp),%rax
    9ec4:	48 8b 40 08          	mov    0x8(%rax),%rax
    9ec8:	48 89 c7             	mov    %rax,%rdi
    9ecb:	e8 c5 fd ff ff       	call   9c95 <e_refc_free>
    9ed0:	48 8b 45 d8          	mov    -0x28(%rbp),%rax
    9ed4:	8b 00                	mov    (%rax),%eax
    9ed6:	83 f8 08             	cmp    $0x8,%eax
    9ed9:	0f 84 54 01 00 00    	je     a033 <e_var_free+0x17f>
    9edf:	83 f8 08             	cmp    $0x8,%eax
    9ee2:	0f 87 4c 01 00 00    	ja     a034 <e_var_free+0x180>
    9ee8:	83 f8 07             	cmp    $0x7,%eax
    9eeb:	0f 84 aa 00 00 00    	je     9f9b <e_var_free+0xe7>
    9ef1:	83 f8 07             	cmp    $0x7,%eax
    9ef4:	0f 87 3a 01 00 00    	ja     a034 <e_var_free+0x180>
    9efa:	83 f8 06             	cmp    $0x6,%eax
    9efd:	74 44                	je     9f43 <e_var_free+0x8f>
    9eff:	83 f8 06             	cmp    $0x6,%eax
    9f02:	0f 87 2c 01 00 00    	ja     a034 <e_var_free+0x180>
    9f08:	83 f8 04             	cmp    $0x4,%eax
    9f0b:	0f 86 22 01 00 00    	jbe    a033 <e_var_free+0x17f>
    9f11:	83 f8 05             	cmp    $0x5,%eax
    9f14:	74 05                	je     9f1b <e_var_free+0x67>
    9f16:	e9 19 01 00 00       	jmp    a034 <e_var_free+0x180>
    9f1b:	48 8b 45 d8          	mov    -0x28(%rbp),%rax
    9f1f:	48 8b 40 10          	mov    0x10(%rax),%rax
    9f23:	48 8b 00             	mov    (%rax),%rax
    9f26:	48 89 c7             	mov    %rax,%rdi
    9f29:	e8 02 71 ff ff       	call   1030 <free@plt>
    9f2e:	48 8b 45 d8          	mov    -0x28(%rbp),%rax
    9f32:	48 8b 40 10          	mov    0x10(%rax),%rax
    9f36:	48 89 c7             	mov    %rax,%rdi
    9f39:	e8 f2 70 ff ff       	call   1030 <free@plt>
    9f3e:	e9 f1 00 00 00       	jmp    a034 <e_var_free+0x180>
    9f43:	48 c7 45 e8 00 00 00 	movq   $0x0,-0x18(%rbp)
    9f4a:	00 
    9f4b:	eb 27                	jmp    9f74 <e_var_free+0xc0>
    9f4d:	48 8b 45 d8          	mov    -0x28(%rbp),%rax
    9f51:	48 8b 40 10          	mov    0x10(%rax),%rax
    9f55:	48 8b 40 08          	mov    0x8(%rax),%rax
    9f59:	48 8b 55 e8          	mov    -0x18(%rbp),%rdx
    9f5d:	48 c1 e2 03          	shl    $0x3,%rdx
    9f61:	48 01 d0             	add    %rdx,%rax
    9f64:	48 8b 00             	mov    (%rax),%rax
    9f67:	48 89 c7             	mov    %rax,%rdi
    9f6a:	e8 41 fd ff ff       	call   9cb0 <e_var_release>
    9f6f:	48 83 45 e8 01       	addq   $0x1,-0x18(%rbp)
    9f74:	48 8b 45 d8          	mov    -0x28(%rbp),%rax
    9f78:	48 8b 40 10          	mov    0x10(%rax),%rax
    9f7c:	8b 00                	mov    (%rax),%eax
    9f7e:	89 c0                	mov    %eax,%eax
    9f80:	48 39 45 e8          	cmp    %rax,-0x18(%rbp)
    9f84:	72 c7                	jb     9f4d <e_var_free+0x99>
    9f86:	48 8b 45 d8          	mov    -0x28(%rbp),%rax
    9f8a:	48 8b 40 10          	mov    0x10(%rax),%rax
    9f8e:	48 89 c7             	mov    %rax,%rdi
    9f91:	e8 9a 70 ff ff       	call   1030 <free@plt>
    9f96:	e9 99 00 00 00       	jmp    a034 <e_var_free+0x180>
    9f9b:	48 c7 45 f0 00 00 00 	movq   $0x0,-0x10(%rbp)
    9fa2:	00 
    9fa3:	eb 27                	jmp    9fcc <e_var_free+0x118>
    9fa5:	48 8b 45 d8          	mov    -0x28(%rbp),%rax
    9fa9:	48 8b 40 10          	mov    0x10(%rax),%rax
    9fad:	48 8b 40 08          	mov    0x8(%rax),%rax
    9fb1:	48 8b 55 f0          	mov    -0x10(%rbp),%rdx
    9fb5:	48 c1 e2 03          	shl    $0x3,%rdx
    9fb9:	48 01 d0             	add    %rdx,%rax
    9fbc:	48 8b 00             	mov    (%rax),%rax
    9fbf:	48 89 c7             	mov    %rax,%rdi
    9fc2:	e8 e9 fc ff ff       	call   9cb0 <e_var_release>
    9fc7:	48 83 45 f0 01       	addq   $0x1,-0x10(%rbp)
    9fcc:	48 8b 45 d8          	mov    -0x28(%rbp),%rax
    9fd0:	48 8b 40 10          	mov    0x10(%rax),%rax
    9fd4:	8b 00                	mov    (%rax),%eax
    9fd6:	89 c0                	mov    %eax,%eax
    9fd8:	48 39 45 f0          	cmp    %rax,-0x10(%rbp)
    9fdc:	72 c7                	jb     9fa5 <e_var_free+0xf1>
    9fde:	48 c7 45 f8 00 00 00 	movq   $0x0,-0x8(%rbp)
    9fe5:	00 
    9fe6:	eb 27                	jmp    a00f <e_var_free+0x15b>
    9fe8:	48 8b 45 d8          	mov    -0x28(%rbp),%rax
    9fec:	48 8b 40 10          	mov    0x10(%rax),%rax
    9ff0:	48 8b 40 10          	mov    0x10(%rax),%rax
    9ff4:	48 8b 55 f8          	mov    -0x8(%rbp),%rdx
    9ff8:	48 c1 e2 03          	shl    $0x3,%rdx
    9ffc:	48 01 d0             	add    %rdx,%rax
    9fff:	48 8b 00             	mov    (%rax),%rax
    a002:	48 89 c7             	mov    %rax,%rdi
    a005:	e8 a6 fc ff ff       	call   9cb0 <e_var_release>
    a00a:	48 83 45 f8 01       	addq   $0x1,-0x8(%rbp)
    a00f:	48 8b 45 d8          	mov    -0x28(%rbp),%rax
    a013:	48 8b 40 10          	mov    0x10(%rax),%rax
    a017:	8b 00                	mov    (%rax),%eax
    a019:	89 c0                	mov    %eax,%eax
    a01b:	48 39 45 f8          	cmp    %rax,-0x8(%rbp)
    a01f:	72 c7                	jb     9fe8 <e_var_free+0x134>
    a021:	48 8b 45 d8          	mov    -0x28(%rbp),%rax
    a025:	48 8b 40 10          	mov    0x10(%rax),%rax
    a029:	48 89 c7             	mov    %rax,%rdi
    a02c:	e8 ff 6f ff ff       	call   1030 <free@plt>
    a031:	eb 01                	jmp    a034 <e_var_free+0x180>
    a033:	90                   	nop
    a034:	90                   	nop
    a035:	c9                   	leave
    a036:	c3                   	ret

000000000000a037 <e_var_print>:
    a037:	55                   	push   %rbp
    a038:	48 89 e5             	mov    %rsp,%rbp
    a03b:	48 83 ec 10          	sub    $0x10,%rsp
    a03f:	48 89 7d f8          	mov    %rdi,-0x8(%rbp)
    a043:	48 89 75 f0          	mov    %rsi,-0x10(%rbp)
    a047:	48 8b 45 f8          	mov    -0x8(%rbp),%rax
    a04b:	8b 00                	mov    (%rax),%eax
    a04d:	83 f8 08             	cmp    $0x8,%eax
    a050:	0f 84 55 01 00 00    	je     a1ab <e_var_print+0x174>
    a056:	83 f8 08             	cmp    $0x8,%eax
    a059:	0f 87 74 01 00 00    	ja     a1d3 <e_var_print+0x19c>
    a05f:	83 f8 07             	cmp    $0x7,%eax
    a062:	0f 84 67 01 00 00    	je     a1cf <e_var_print+0x198>
    a068:	83 f8 07             	cmp    $0x7,%eax
    a06b:	0f 87 62 01 00 00    	ja     a1d3 <e_var_print+0x19c>
    a071:	83 f8 06             	cmp    $0x6,%eax
    a074:	0f 84 58 01 00 00    	je     a1d2 <e_var_print+0x19b>
    a07a:	83 f8 06             	cmp    $0x6,%eax
    a07d:	0f 87 50 01 00 00    	ja     a1d3 <e_var_print+0x19c>
    a083:	83 f8 05             	cmp    $0x5,%eax
    a086:	0f 84 03 01 00 00    	je     a18f <e_var_print+0x158>
    a08c:	83 f8 05             	cmp    $0x5,%eax
    a08f:	0f 87 3e 01 00 00    	ja     a1d3 <e_var_print+0x19c>
    a095:	83 f8 04             	cmp    $0x4,%eax
    a098:	0f 84 c7 00 00 00    	je     a165 <e_var_print+0x12e>
    a09e:	83 f8 04             	cmp    $0x4,%eax
    a0a1:	0f 87 2c 01 00 00    	ja     a1d3 <e_var_print+0x19c>
    a0a7:	83 f8 03             	cmp    $0x3,%eax
    a0aa:	74 6e                	je     a11a <e_var_print+0xe3>
    a0ac:	83 f8 03             	cmp    $0x3,%eax
    a0af:	0f 87 1e 01 00 00    	ja     a1d3 <e_var_print+0x19c>
    a0b5:	83 f8 02             	cmp    $0x2,%eax
    a0b8:	74 7e                	je     a138 <e_var_print+0x101>
    a0ba:	83 f8 02             	cmp    $0x2,%eax
    a0bd:	0f 87 10 01 00 00    	ja     a1d3 <e_var_print+0x19c>
    a0c3:	85 c0                	test   %eax,%eax
    a0c5:	74 0a                	je     a0d1 <e_var_print+0x9a>
    a0c7:	83 f8 01             	cmp    $0x1,%eax
    a0ca:	74 27                	je     a0f3 <e_var_print+0xbc>
    a0cc:	e9 02 01 00 00       	jmp    a1d3 <e_var_print+0x19c>
    a0d1:	48 8b 45 f0          	mov    -0x10(%rbp),%rax
    a0d5:	48 8d 3d e4 16 00 00 	lea    0x16e4(%rip),%rdi        # b7c0 <klist_init_capacity+0x4>
    a0dc:	48 89 c1             	mov    %rax,%rcx
    a0df:	ba 04 00 00 00       	mov    $0x4,%edx
    a0e4:	be 01 00 00 00       	mov    $0x1,%esi
    a0e9:	e8 c2 70 ff ff       	call   11b0 <fwrite@plt>
    a0ee:	e9 e0 00 00 00       	jmp    a1d3 <e_var_print+0x19c>
    a0f3:	48 8b 45 f8          	mov    -0x8(%rbp),%rax
    a0f7:	8b 50 10             	mov    0x10(%rax),%edx
    a0fa:	48 8d 0d c4 16 00 00 	lea    0x16c4(%rip),%rcx        # b7c5 <klist_init_capacity+0x9>
    a101:	48 8b 45 f0          	mov    -0x10(%rbp),%rax
    a105:	48 89 ce             	mov    %rcx,%rsi
    a108:	48 89 c7             	mov    %rax,%rdi
    a10b:	b8 00 00 00 00       	mov    $0x0,%eax
    a110:	e8 fb 6f ff ff       	call   1110 <fprintf@plt>
    a115:	e9 b9 00 00 00       	jmp    a1d3 <e_var_print+0x19c>
    a11a:	48 8b 45 f8          	mov    -0x8(%rbp),%rax
    a11e:	0f b6 40 10          	movzbl 0x10(%rax),%eax
    a122:	0f be c0             	movsbl %al,%eax
    a125:	48 8b 55 f0          	mov    -0x10(%rbp),%rdx
    a129:	48 89 d6             	mov    %rdx,%rsi
    a12c:	89 c7                	mov    %eax,%edi
    a12e:	e8 bd 6f ff ff       	call   10f0 <fputc@plt>
    a133:	e9 9b 00 00 00       	jmp    a1d3 <e_var_print+0x19c>
    a138:	48 8b 45 f8          	mov    -0x8(%rbp),%rax
    a13c:	0f b6 40 10          	movzbl 0x10(%rax),%eax
    a140:	84 c0                	test   %al,%al
    a142:	74 09                	je     a14d <e_var_print+0x116>
    a144:	48 8d 05 7d 16 00 00 	lea    0x167d(%rip),%rax        # b7c8 <klist_init_capacity+0xc>
    a14b:	eb 07                	jmp    a154 <e_var_print+0x11d>
    a14d:	48 8d 05 79 16 00 00 	lea    0x1679(%rip),%rax        # b7cd <klist_init_capacity+0x11>
    a154:	48 8b 55 f0          	mov    -0x10(%rbp),%rdx
    a158:	48 89 d6             	mov    %rdx,%rsi
    a15b:	48 89 c7             	mov    %rax,%rdi
    a15e:	e8 5d 6f ff ff       	call   10c0 <fputs@plt>
    a163:	eb 6e                	jmp    a1d3 <e_var_print+0x19c>
    a165:	48 8b 45 f8          	mov    -0x8(%rbp),%rax
    a169:	48 8b 50 10          	mov    0x10(%rax),%rdx
    a16d:	48 8d 0d 5f 16 00 00 	lea    0x165f(%rip),%rcx        # b7d3 <klist_init_capacity+0x17>
    a174:	48 8b 45 f0          	mov    -0x10(%rbp),%rax
    a178:	66 48 0f 6e c2       	movq   %rdx,%xmm0
    a17d:	48 89 ce             	mov    %rcx,%rsi
    a180:	48 89 c7             	mov    %rax,%rdi
    a183:	b8 01 00 00 00       	mov    $0x1,%eax
    a188:	e8 83 6f ff ff       	call   1110 <fprintf@plt>
    a18d:	eb 44                	jmp    a1d3 <e_var_print+0x19c>
    a18f:	48 8b 45 f8          	mov    -0x8(%rbp),%rax
    a193:	48 8b 40 10          	mov    0x10(%rax),%rax
    a197:	48 8b 00             	mov    (%rax),%rax
    a19a:	48 8b 55 f0          	mov    -0x10(%rbp),%rdx
    a19e:	48 89 d6             	mov    %rdx,%rsi
    a1a1:	48 89 c7             	mov    %rax,%rdi
    a1a4:	e8 17 6f ff ff       	call   10c0 <fputs@plt>
    a1a9:	eb 28                	jmp    a1d3 <e_var_print+0x19c>
    a1ab:	48 8b 45 f8          	mov    -0x8(%rbp),%rax
    a1af:	8b 50 10             	mov    0x10(%rax),%edx
    a1b2:	48 8d 0d 0c 16 00 00 	lea    0x160c(%rip),%rcx        # b7c5 <klist_init_capacity+0x9>
    a1b9:	48 8b 45 f0          	mov    -0x10(%rbp),%rax
    a1bd:	48 89 ce             	mov    %rcx,%rsi
    a1c0:	48 89 c7             	mov    %rax,%rdi
    a1c3:	b8 00 00 00 00       	mov    $0x0,%eax
    a1c8:	e8 43 6f ff ff       	call   1110 <fprintf@plt>
    a1cd:	eb 04                	jmp    a1d3 <e_var_print+0x19c>
    a1cf:	90                   	nop
    a1d0:	eb 01                	jmp    a1d3 <e_var_print+0x19c>
    a1d2:	90                   	nop
    a1d3:	90                   	nop
    a1d4:	c9                   	leave
    a1d5:	c3                   	ret

Disassembly of section .fini:

000000000000a1d8 <_fini>:
    a1d8:	f3 0f 1e fa          	endbr64
    a1dc:	48 83 ec 08          	sub    $0x8,%rsp
    a1e0:	48 83 c4 08          	add    $0x8,%rsp
    a1e4:	c3                   	ret
